
/home/sun/Documents/SwiftletLaboratories-animated-octo-waddle/superGPS/target/1.5.2/argon/superGPS.elf:     file format elf32-littlearm

Sections:
Idx Name          Size      VMA       LMA       File off  Algn
  0 .module_info  00000018  000d4000  000d4000  00004000  2**2
                  CONTENTS, ALLOC, LOAD, READONLY, DATA
  1 .dynalib      00000004  000d4018  000d4018  00004018  2**2
                  CONTENTS, ALLOC, LOAD, READONLY, DATA
  2 .text         00005700  000d4020  000d4020  00004020  2**3
                  CONTENTS, ALLOC, LOAD, READONLY, CODE
  3 .backup       00000004  2003f400  000d9720  0000f400  2**2
                  CONTENTS, ALLOC, LOAD, DATA
  4 .data         0000024c  2003d3d4  000d9724  0001d3d4  2**2
                  CONTENTS, ALLOC, LOAD, DATA
  5 .bss          000011d0  2003d620  2003d620  0002d620  2**2
                  ALLOC
  6 .module_info_suffix 00000028  000d9970  000d9970  00029970  2**0
                  CONTENTS, ALLOC, LOAD, READONLY, DATA
  7 .module_info_crc 00000004  000d9998  000d9998  00029998  2**0
                  CONTENTS, ALLOC, LOAD, READONLY, DATA
  8 .debug_info   0011db04  00000000  00000000  0002999c  2**0
                  CONTENTS, READONLY, DEBUGGING
  9 .debug_abbrev 000161f2  00000000  00000000  001474a0  2**0
                  CONTENTS, READONLY, DEBUGGING
 10 .debug_aranges 00002d68  00000000  00000000  0015d692  2**0
                  CONTENTS, READONLY, DEBUGGING
 11 .debug_macro  0003cf1d  00000000  00000000  001603fa  2**0
                  CONTENTS, READONLY, DEBUGGING
 12 .debug_line   000366a8  00000000  00000000  0019d317  2**0
                  CONTENTS, READONLY, DEBUGGING
 13 .debug_str    00115aa7  00000000  00000000  001d39bf  2**0
                  CONTENTS, READONLY, DEBUGGING
 14 .debug_loc    00026463  00000000  00000000  002e9466  2**0
                  CONTENTS, READONLY, DEBUGGING
 15 .debug_ranges 000056f0  00000000  00000000  0030f8c9  2**0
                  CONTENTS, READONLY, DEBUGGING
 16 .debug_frame  0000e7e4  00000000  00000000  00314fbc  2**2
                  CONTENTS, READONLY, DEBUGGING

Disassembly of section .text:

000d4020 <module_user_pre_init>:
/**
 * Initializes this user module. Returns the start of the heap.
 */
void* module_user_pre_init() {

    if ( (&link_global_data_start!=&link_global_data_initial_values) && (link_global_data_size != 0))
   d4020:	4809      	ldr	r0, [pc, #36]	; (d4048 <module_user_pre_init+0x28>)
   d4022:	490a      	ldr	r1, [pc, #40]	; (d404c <module_user_pre_init+0x2c>)
   d4024:	4288      	cmp	r0, r1
extern constructor_ptr_t link_constructors_end;

/**
 * Initializes this user module. Returns the start of the heap.
 */
void* module_user_pre_init() {
   d4026:	b508      	push	{r3, lr}

    if ( (&link_global_data_start!=&link_global_data_initial_values) && (link_global_data_size != 0))
   d4028:	d005      	beq.n	d4036 <module_user_pre_init+0x16>
   d402a:	4a09      	ldr	r2, [pc, #36]	; (d4050 <module_user_pre_init+0x30>)
   d402c:	4282      	cmp	r2, r0
   d402e:	d002      	beq.n	d4036 <module_user_pre_init+0x16>
    {
        memcpy(&link_global_data_start, &link_global_data_initial_values, link_global_data_size);
   d4030:	1a12      	subs	r2, r2, r0
   d4032:	f004 fd9f 	bl	d8b74 <memcpy>
    }

    memset(&link_bss_location, 0, link_bss_size );
   d4036:	4807      	ldr	r0, [pc, #28]	; (d4054 <module_user_pre_init+0x34>)
   d4038:	4a07      	ldr	r2, [pc, #28]	; (d4058 <module_user_pre_init+0x38>)
   d403a:	2100      	movs	r1, #0
   d403c:	1a12      	subs	r2, r2, r0
   d403e:	f004 fda4 	bl	d8b8a <memset>
    return &link_global_data_start;
}
   d4042:	4801      	ldr	r0, [pc, #4]	; (d4048 <module_user_pre_init+0x28>)
   d4044:	bd08      	pop	{r3, pc}
   d4046:	bf00      	nop
   d4048:	2003d3d4 	.word	0x2003d3d4
   d404c:	000d9724 	.word	0x000d9724
   d4050:	2003d620 	.word	0x2003d620
   d4054:	2003d620 	.word	0x2003d620
   d4058:	2003e7f0 	.word	0x2003e7f0

000d405c <module_user_init>:
extern constructor_ptr_t link_constructors_location[];
extern constructor_ptr_t link_constructors_end;
#define link_constructors_size   ((unsigned long)&link_constructors_end  -  (unsigned long)&link_constructors_location )

void module_user_init()
{
   d405c:	b570      	push	{r4, r5, r6, lr}
    module_user_init_hook();
   d405e:	f003 f8f5 	bl	d724c <module_user_init_hook>
   d4062:	4c07      	ldr	r4, [pc, #28]	; (d4080 <module_user_init+0x24>)
   d4064:	4b07      	ldr	r3, [pc, #28]	; (d4084 <module_user_init+0x28>)
   d4066:	1ae4      	subs	r4, r4, r3
   d4068:	08a4      	lsrs	r4, r4, #2

    // invoke constructors
    int ctor_num;
    for (ctor_num=0; ctor_num < link_constructors_size/sizeof(constructor_ptr_t); ctor_num++ )
   d406a:	2500      	movs	r5, #0
   d406c:	461e      	mov	r6, r3
   d406e:	42a5      	cmp	r5, r4
   d4070:	d004      	beq.n	d407c <module_user_init+0x20>
    {
        link_constructors_location[ctor_num]();
   d4072:	f856 3025 	ldr.w	r3, [r6, r5, lsl #2]
   d4076:	4798      	blx	r3
{
    module_user_init_hook();

    // invoke constructors
    int ctor_num;
    for (ctor_num=0; ctor_num < link_constructors_size/sizeof(constructor_ptr_t); ctor_num++ )
   d4078:	3501      	adds	r5, #1
   d407a:	e7f8      	b.n	d406e <module_user_init+0x12>
    {
        link_constructors_location[ctor_num]();
    }
}
   d407c:	bd70      	pop	{r4, r5, r6, pc}
   d407e:	bf00      	nop
   d4080:	000d9720 	.word	0x000d9720
   d4084:	000d96d8 	.word	0x000d96d8

000d4088 <module_user_setup>:

/**
 * Export these functions with a fuller name so they don't clash with the setup/loop wrappers in the system module.
 */
void module_user_setup() {
    setup();
   d4088:	f001 b826 	b.w	d50d8 <setup>

000d408c <module_user_loop>:
}

void module_user_loop() {
   d408c:	b508      	push	{r3, lr}
    loop();
   d408e:	f000 fbb3 	bl	d47f8 <loop>
    _post_loop();
}
   d4092:	e8bd 4008 	ldmia.w	sp!, {r3, lr}
    setup();
}

void module_user_loop() {
    loop();
    _post_loop();
   d4096:	f003 b89b 	b.w	d71d0 <_post_loop>

000d409a <_Znwj>:
   d409a:	f002 b919 	b.w	d62d0 <malloc>

000d409e <_ZdlPv>:
   d409e:	f002 b91f 	b.w	d62e0 <free>

000d40a2 <_ZdaPv>:
	free(p);
}

void operator delete[](void *p)
{
	free(p);
   d40a2:	f002 b91d 	b.w	d62e0 <free>

000d40a6 <__cxa_guard_acquire>:

/* Provide default implemenation for __cxa_guard_acquire() and
 * __cxa_guard_release(). Note: these must be revisited if a multitasking
 * OS is ported to this platform. */
__extension__ typedef int __guard __attribute__((mode (__DI__)));
int __cxa_guard_acquire(__guard *g) {return !*(char *)(g);};
   d40a6:	7800      	ldrb	r0, [r0, #0]
   d40a8:	fab0 f080 	clz	r0, r0
   d40ac:	0940      	lsrs	r0, r0, #5
   d40ae:	4770      	bx	lr

000d40b0 <__cxa_guard_release>:
void __cxa_guard_release (__guard *g) {*(char *)g = 1;};
   d40b0:	2301      	movs	r3, #1
   d40b2:	7003      	strb	r3, [r0, #0]
   d40b4:	4770      	bx	lr

000d40b6 <_ZN24SystemSleepConfigurationD1Ev>:
        config.config_.wakeup_sources = nullptr;
        return *this;
    }

    // Destructor
    ~SystemSleepConfiguration() {
   d40b6:	b538      	push	{r3, r4, r5, lr}
   d40b8:	4604      	mov	r4, r0
        // Free memory
        auto wakeupSource = config_.wakeup_sources;
   d40ba:	6900      	ldr	r0, [r0, #16]
        while (wakeupSource) {
   d40bc:	b128      	cbz	r0, d40ca <_ZN24SystemSleepConfigurationD1Ev+0x14>
            auto next = wakeupSource->next;
   d40be:	6885      	ldr	r5, [r0, #8]
            delete wakeupSource;
   d40c0:	210c      	movs	r1, #12
   d40c2:	f003 fc99 	bl	d79f8 <_ZdlPvj>
            wakeupSource = next;
   d40c6:	4628      	mov	r0, r5

    // Destructor
    ~SystemSleepConfiguration() {
        // Free memory
        auto wakeupSource = config_.wakeup_sources;
        while (wakeupSource) {
   d40c8:	e7f8      	b.n	d40bc <_ZN24SystemSleepConfigurationD1Ev+0x6>
            auto next = wakeupSource->next;
            delete wakeupSource;
            wakeupSource = next;
        }
    }
   d40ca:	4620      	mov	r0, r4
   d40cc:	bd38      	pop	{r3, r4, r5, pc}
	...

000d40d0 <_ZN10CloudClass7publishEPKcS1_.isra.7>:
// Deprecated methods
inline particle::Future<bool> CloudClass::publish(const char* name) {
    return publish(name, PUBLIC);
}

inline particle::Future<bool> CloudClass::publish(const char* name, const char* data) {
   d40d0:	b513      	push	{r0, r1, r4, lr}
   d40d2:	4b05      	ldr	r3, [pc, #20]	; (d40e8 <_ZN10CloudClass7publishEPKcS1_.isra.7+0x18>)
   d40d4:	781b      	ldrb	r3, [r3, #0]
        return publish(eventName, eventData, DEFAULT_CLOUD_EVENT_TTL, flags1, flags2);
    }

    inline particle::Future<bool> publish(const char *eventName, const char *eventData, int ttl, PublishFlags flags1, PublishFlags flags2 = PublishFlags())
    {
        return publish_event(eventName, eventData, ttl, flags1 | flags2);
   d40d6:	f88d 3000 	strb.w	r3, [sp]
   d40da:	233c      	movs	r3, #60	; 0x3c
// Deprecated methods
inline particle::Future<bool> CloudClass::publish(const char* name) {
    return publish(name, PUBLIC);
}

inline particle::Future<bool> CloudClass::publish(const char* name, const char* data) {
   d40dc:	4604      	mov	r4, r0
        return publish(eventName, eventData, DEFAULT_CLOUD_EVENT_TTL, flags1, flags2);
    }

    inline particle::Future<bool> publish(const char *eventName, const char *eventData, int ttl, PublishFlags flags1, PublishFlags flags2 = PublishFlags())
    {
        return publish_event(eventName, eventData, ttl, flags1 | flags2);
   d40de:	f002 fed7 	bl	d6e90 <_ZN10CloudClass13publish_eventEPKcS1_iN8particle5FlagsI15PublishFlagTypehEE>
    return publish(name, PUBLIC);
}

inline particle::Future<bool> CloudClass::publish(const char* name, const char* data) {
    return publish(name, data, PUBLIC);
}
   d40e2:	4620      	mov	r0, r4
   d40e4:	b002      	add	sp, #8
   d40e6:	bd10      	pop	{r4, pc}
   d40e8:	2003d628 	.word	0x2003d628

000d40ec <_ZN11SystemClassD1Ev>:
    system_error_t error_;
    SleepResult compatResult_;
};


class SystemClass {
   d40ec:	b510      	push	{r4, lr}
   d40ee:	4604      	mov	r4, r0
        return toSleepResult();
    }

private:
    void freeWakeupSourceMemory() {
        if (wakeupSource_) {
   d40f0:	6800      	ldr	r0, [r0, #0]
   d40f2:	b108      	cbz	r0, d40f8 <_ZN11SystemClassD1Ev+0xc>
            free(wakeupSource_);
   d40f4:	f002 f8f4 	bl	d62e0 <free>
    system_error_t error_;
    SleepResult compatResult_;
};


class SystemClass {
   d40f8:	4620      	mov	r0, r4
   d40fa:	bd10      	pop	{r4, pc}

000d40fc <_Z6getGPSPfS_S_Pi>:
    System.reset();
  }
}

void getGPS(float *latitude, float *longitude, float *altitude, int *satellites)
{
   d40fc:	e92d 47ff 	stmdb	sp!, {r0, r1, r2, r3, r4, r5, r6, r7, r8, r9, sl, lr}
  int theHour;

  theHour = GPS.hour + TIMEZONE;
   d4100:	4c24      	ldr	r4, [pc, #144]	; (d4194 <_Z6getGPSPfS_S_Pi+0x98>)
  if (theHour < 0)
  {
    theHour = theHour + 24;
  }

  Serial.printf("Time: %02i:%02i:%02i:%03i\n", theHour, GPS.minute, GPS.seconds, GPS.milliseconds);
   d4102:	f8df a090 	ldr.w	sl, [pc, #144]	; d4194 <_Z6getGPSPfS_S_Pi+0x98>
    System.reset();
  }
}

void getGPS(float *latitude, float *longitude, float *altitude, int *satellites)
{
   d4106:	4617      	mov	r7, r2
  int theHour;

  theHour = GPS.hour + TIMEZONE;
   d4108:	f894 203a 	ldrb.w	r2, [r4, #58]	; 0x3a
  if (theHour < 0)
   d410c:	1f95      	subs	r5, r2, #6
  {
    theHour = theHour + 24;
   d410e:	bf48      	it	mi
   d4110:	f102 0512 	addmi.w	r5, r2, #18
    System.reset();
  }
}

void getGPS(float *latitude, float *longitude, float *altitude, int *satellites)
{
   d4114:	4688      	mov	r8, r1
   d4116:	461e      	mov	r6, r3
   d4118:	4681      	mov	r9, r0
  if (theHour < 0)
  {
    theHour = theHour + 24;
  }

  Serial.printf("Time: %02i:%02i:%02i:%03i\n", theHour, GPS.minute, GPS.seconds, GPS.milliseconds);
   d411a:	f002 fccf 	bl	d6abc <_Z16_fetch_usbserialv>
    size_t println(const __FlashStringHelper*);

    template <typename... Args>
    inline size_t printf(const char* format, Args... args)
    {
        return this->printf_impl(false, format, args...);
   d411e:	8fe3      	ldrh	r3, [r4, #62]	; 0x3e
   d4120:	9302      	str	r3, [sp, #8]
   d4122:	f894 303c 	ldrb.w	r3, [r4, #60]	; 0x3c
   d4126:	9301      	str	r3, [sp, #4]
   d4128:	f894 303b 	ldrb.w	r3, [r4, #59]	; 0x3b
   d412c:	4a1a      	ldr	r2, [pc, #104]	; (d4198 <_Z6getGPSPfS_S_Pi+0x9c>)
   d412e:	9300      	str	r3, [sp, #0]
   d4130:	2100      	movs	r1, #0
   d4132:	462b      	mov	r3, r5
   d4134:	f003 f9a5 	bl	d7482 <_ZN5Print11printf_implEbPKcz>
  Serial.printf("Dates: %02i-%02i-%02i\n", GPS.month, GPS.day, GPS.year);
   d4138:	f002 fcc0 	bl	d6abc <_Z16_fetch_usbserialv>
   d413c:	f894 2040 	ldrb.w	r2, [r4, #64]	; 0x40
   d4140:	9201      	str	r2, [sp, #4]
   d4142:	f894 2042 	ldrb.w	r2, [r4, #66]	; 0x42
   d4146:	f894 3041 	ldrb.w	r3, [r4, #65]	; 0x41
   d414a:	9200      	str	r2, [sp, #0]
   d414c:	2100      	movs	r1, #0
   d414e:	4a13      	ldr	r2, [pc, #76]	; (d419c <_Z6getGPSPfS_S_Pi+0xa0>)
   d4150:	f003 f997 	bl	d7482 <_ZN5Print11printf_implEbPKcz>
  Serial.printf("Fix: %i, Quality: %i", (int)GPS.fix, (int)GPS.fixquality);
   d4154:	f002 fcb2 	bl	d6abc <_Z16_fetch_usbserialv>
   d4158:	f894 2080 	ldrb.w	r2, [r4, #128]	; 0x80
   d415c:	f894 307f 	ldrb.w	r3, [r4, #127]	; 0x7f
   d4160:	9200      	str	r2, [sp, #0]
   d4162:	2100      	movs	r1, #0
   d4164:	4a0e      	ldr	r2, [pc, #56]	; (d41a0 <_Z6getGPSPfS_S_Pi+0xa4>)
   d4166:	f003 f98c 	bl	d7482 <_ZN5Print11printf_implEbPKcz>
  if (GPS.fix)
   d416a:	f894 307f 	ldrb.w	r3, [r4, #127]	; 0x7f
   d416e:	b16b      	cbz	r3, d418c <_Z6getGPSPfS_S_Pi+0x90>
  {
    *latitude = GPS.latitudeDegrees;
   d4170:	f8da 3054 	ldr.w	r3, [sl, #84]	; 0x54
   d4174:	f8c9 3000 	str.w	r3, [r9]
    *longitude = GPS.longitudeDegrees;
   d4178:	f8da 3058 	ldr.w	r3, [sl, #88]	; 0x58
   d417c:	f8c8 3000 	str.w	r3, [r8]
    *altitude = GPS.altitude;
   d4180:	f8da 3060 	ldr.w	r3, [sl, #96]	; 0x60
   d4184:	603b      	str	r3, [r7, #0]
    *satellites = (int)GPS.satellites;
   d4186:	f89a 3082 	ldrb.w	r3, [sl, #130]	; 0x82
   d418a:	6033      	str	r3, [r6, #0]
    // Serial.printf("Lat: %0.6f, Lon: %0.6f, Alt: %0.6f\n",*latitude, *longitude, *altitude);
    // Serial.printf("Speed (m/s): %0.2f\n",GPS.speed/1.944);
    // Serial.printf("Angle: %0.2f\n",GPS.angle);
    // Serial.printf("Satellites: %i\n",*satellites);
  }
}
   d418c:	b004      	add	sp, #16
   d418e:	e8bd 87f0 	ldmia.w	sp!, {r4, r5, r6, r7, r8, r9, sl, pc}
   d4192:	bf00      	nop
   d4194:	2003d80c 	.word	0x2003d80c
   d4198:	000d8c58 	.word	0x000d8c58
   d419c:	000d8c73 	.word	0x000d8c73
   d41a0:	000d8c8a 	.word	0x000d8c8a
   d41a4:	00000000 	.word	0x00000000

000d41a8 <_Z11takeSamplesv>:
  Serial.printf("-------------- \nScan Complete!\n");
  delay(delayTime);
}

void takeSamples()
{
   d41a8:	b5f0      	push	{r4, r5, r6, r7, lr}
   d41aa:	ed2d 8b02 	vpush	{d8}
   d41ae:	4c60      	ldr	r4, [pc, #384]	; (d4330 <_Z11takeSamplesv+0x188>)
   d41b0:	b08b      	sub	sp, #44	; 0x2c
   d41b2:	f504 76c8 	add.w	r6, r4, #400	; 0x190
   d41b6:	4625      	mov	r5, r4
  uint8_t i;

  // take N samples in a row, with a slight delay
  for (i = 0; i < NUMSAMPLES; i++)
  {
    samples[i] = analogRead(THERMISTORPIN);
   d41b8:	2013      	movs	r0, #19
   d41ba:	f003 fbf9 	bl	d79b0 <analogRead>
   d41be:	ee07 0a90 	vmov	s15, r0
   d41c2:	eef8 7ae7 	vcvt.f32.s32	s15, s15
    delay(10);
   d41c6:	200a      	movs	r0, #10
  uint8_t i;

  // take N samples in a row, with a slight delay
  for (i = 0; i < NUMSAMPLES; i++)
  {
    samples[i] = analogRead(THERMISTORPIN);
   d41c8:	ece5 7a01 	vstmia	r5!, {s15}
    delay(10);
   d41cc:	f003 f8b0 	bl	d7330 <delay>
void takeSamples()
{
  uint8_t i;

  // take N samples in a row, with a slight delay
  for (i = 0; i < NUMSAMPLES; i++)
   d41d0:	42ae      	cmp	r6, r5
   d41d2:	d1f1      	bne.n	d41b8 <_Z11takeSamplesv+0x10>
   d41d4:	eddf 7a57 	vldr	s15, [pc, #348]	; d4334 <_Z11takeSamplesv+0x18c>

  // average all the samples out
  average = 0;
  for (i = 0; i < NUMSAMPLES; i++)
  {
    average += samples[i];
   d41d8:	ecb4 7a01 	vldmia	r4!, {s14}
    delay(10);
  }

  // average all the samples out
  average = 0;
  for (i = 0; i < NUMSAMPLES; i++)
   d41dc:	42a6      	cmp	r6, r4
  {
    average += samples[i];
   d41de:	ee77 7a87 	vadd.f32	s15, s15, s14
    delay(10);
  }

  // average all the samples out
  average = 0;
  for (i = 0; i < NUMSAMPLES; i++)
   d41e2:	d1f9      	bne.n	d41d8 <_Z11takeSamplesv+0x30>
  {
    average += samples[i];
  }
  average /= NUMSAMPLES;
   d41e4:	eddf 6a54 	vldr	s13, [pc, #336]	; d4338 <_Z11takeSamplesv+0x190>
   d41e8:	4b54      	ldr	r3, [pc, #336]	; (d433c <_Z11takeSamplesv+0x194>)

  // convert the value to resistance
  averageResistance = 4095 / average - 1;
  averageResistance = SERIESRESISTOR / averageResistance;

  tempC = averageResistance / THERMISTORNOMINAL; // (R/Ro)
   d41ea:	4c55      	ldr	r4, [pc, #340]	; (d4340 <_Z11takeSamplesv+0x198>)
  tempC /= BCOEFFICIENT;                         // 1/B * ln(R/Ro)
  tempC += 1.0 / (TEMPERATURENOMINAL + 273.15);  // + (1/To)
  tempC = 1.0 / tempC;                           // Invert
  tempC -= 273.15;                               // convert absolute temp to C

  tempF = tempC * 1.8 + 32;
   d41ec:	4d55      	ldr	r5, [pc, #340]	; (d4344 <_Z11takeSamplesv+0x19c>)
  average = 0;
  for (i = 0; i < NUMSAMPLES; i++)
  {
    average += samples[i];
  }
  average /= NUMSAMPLES;
   d41ee:	ee87 7aa6 	vdiv.f32	s14, s15, s13

  // convert the value to resistance
  averageResistance = 4095 / average - 1;
  averageResistance = SERIESRESISTOR / averageResistance;
   d41f2:	eddf 6a55 	vldr	s13, [pc, #340]	; d4348 <_Z11takeSamplesv+0x1a0>
  average = 0;
  for (i = 0; i < NUMSAMPLES; i++)
  {
    average += samples[i];
  }
  average /= NUMSAMPLES;
   d41f6:	ed83 7a00 	vstr	s14, [r3]

  // convert the value to resistance
  averageResistance = 4095 / average - 1;
  averageResistance = SERIESRESISTOR / averageResistance;
   d41fa:	eec6 7a87 	vdiv.f32	s15, s13, s14
   d41fe:	4b53      	ldr	r3, [pc, #332]	; (d434c <_Z11takeSamplesv+0x1a4>)
   d4200:	eeb7 8a00 	vmov.f32	s16, #112	; 0x3f800000  1.0
   d4204:	ed9f 7a52 	vldr	s14, [pc, #328]	; d4350 <_Z11takeSamplesv+0x1a8>
   d4208:	ee77 7ac8 	vsub.f32	s15, s15, s16
   d420c:	eec7 6a27 	vdiv.f32	s13, s14, s15

  tempC = averageResistance / THERMISTORNOMINAL; // (R/Ro)
   d4210:	eec6 7a87 	vdiv.f32	s15, s13, s14
  }
  average /= NUMSAMPLES;

  // convert the value to resistance
  averageResistance = 4095 / average - 1;
  averageResistance = SERIESRESISTOR / averageResistance;
   d4214:	edc3 6a00 	vstr	s13, [r3]

  tempC = averageResistance / THERMISTORNOMINAL; // (R/Ro)
   d4218:	edc4 7a00 	vstr	s15, [r4]
  tempC = log(tempC);                            // ln(R/Ro)
   d421c:	ee17 0a90 	vmov	r0, s15
   d4220:	f004 f946 	bl	d84b0 <__aeabi_f2d>
   d4224:	ec41 0b10 	vmov	d0, r0, r1
   d4228:	f003 fd44 	bl	d7cb4 <log>
  tempC /= BCOEFFICIENT;                         // 1/B * ln(R/Ro)
  tempC += 1.0 / (TEMPERATURENOMINAL + 273.15);  // + (1/To)
  tempC = 1.0 / tempC;                           // Invert
  tempC -= 273.15;                               // convert absolute temp to C
   d422c:	ec51 0b10 	vmov	r0, r1, d0
   d4230:	f004 fc42 	bl	d8ab8 <__aeabi_d2f>
   d4234:	eddf 7a47 	vldr	s15, [pc, #284]	; d4354 <_Z11takeSamplesv+0x1ac>
   d4238:	ee06 0a90 	vmov	s13, r0
   d423c:	ee86 7aa7 	vdiv.f32	s14, s13, s15
   d4240:	ee17 0a10 	vmov	r0, s14
   d4244:	f004 f934 	bl	d84b0 <__aeabi_f2d>
   d4248:	a331      	add	r3, pc, #196	; (adr r3, d4310 <_Z11takeSamplesv+0x168>)
   d424a:	e9d3 2300 	ldrd	r2, r3, [r3]
   d424e:	f003 ffd1 	bl	d81f4 <__adddf3>
   d4252:	f004 fc31 	bl	d8ab8 <__aeabi_d2f>
   d4256:	ee07 0a10 	vmov	s14, r0
   d425a:	eec8 7a07 	vdiv.f32	s15, s16, s14
   d425e:	ee17 0a90 	vmov	r0, s15
   d4262:	f004 f925 	bl	d84b0 <__aeabi_f2d>
   d4266:	a32c      	add	r3, pc, #176	; (adr r3, d4318 <_Z11takeSamplesv+0x170>)
   d4268:	e9d3 2300 	ldrd	r2, r3, [r3]
   d426c:	f003 ffc0 	bl	d81f0 <__aeabi_dsub>
   d4270:	f004 fc22 	bl	d8ab8 <__aeabi_d2f>
   d4274:	6020      	str	r0, [r4, #0]

  tempF = tempC * 1.8 + 32;
   d4276:	f004 f91b 	bl	d84b0 <__aeabi_f2d>
   d427a:	a329      	add	r3, pc, #164	; (adr r3, d4320 <_Z11takeSamplesv+0x178>)
   d427c:	e9d3 2300 	ldrd	r2, r3, [r3]
   d4280:	f004 f96a 	bl	d8558 <__aeabi_dmul>
   d4284:	2200      	movs	r2, #0
   d4286:	4b34      	ldr	r3, [pc, #208]	; (d4358 <_Z11takeSamplesv+0x1b0>)
   d4288:	f003 ffb4 	bl	d81f4 <__adddf3>
   d428c:	f004 fc14 	bl	d8ab8 <__aeabi_d2f>
   d4290:	6028      	str	r0, [r5, #0]

  // tempF = random(0,23000)/100.0;

  Serial.printf("tempC: %f tempF: %f counter: %i deviceID: %s\n", tempC, tempF, counter, System.deviceID().c_str());
   d4292:	f002 fc13 	bl	d6abc <_Z16_fetch_usbserialv>
   d4296:	682d      	ldr	r5, [r5, #0]
   d4298:	4b30      	ldr	r3, [pc, #192]	; (d435c <_Z11takeSamplesv+0x1b4>)
   d429a:	6824      	ldr	r4, [r4, #0]
   d429c:	681f      	ldr	r7, [r3, #0]
   d429e:	4606      	mov	r6, r0
    inline static SleepResult sleep(const pin_t* pins, size_t pinsSize, const InterruptMode* edgeTriggerMode, size_t edgeTriggerModeSize, long seconds = 0, SleepOptionFlags flag = SLEEP_NETWORK_OFF) { return sleepPinImpl(pins, pinsSize, edgeTriggerMode, edgeTriggerModeSize, seconds, flag); }
    inline static SleepResult sleep(const pin_t* pins, size_t pinsSize, const InterruptMode* edgeTriggerMode, size_t edgeTriggerModeSize, std::chrono::seconds s, SleepOptionFlags flag = SLEEP_NETWORK_OFF) { return sleep(pins, pinsSize, edgeTriggerMode, edgeTriggerModeSize, s.count(), flag); }
    inline static SleepResult sleep(const pin_t* pins, size_t pinsSize, const InterruptMode* edgeTriggerMode, size_t edgeTriggerModeSize, SleepOptionFlags flag, long seconds = 0) { return sleep(pins, pinsSize, edgeTriggerMode, edgeTriggerModeSize, seconds, flag); }
    inline static SleepResult sleep(const pin_t* pins, size_t pinsSize, const InterruptMode* edgeTriggerMode, size_t edgeTriggerModeSize, SleepOptionFlags flag, std::chrono::seconds s) { return sleep(pins, pinsSize, edgeTriggerMode, edgeTriggerModeSize, flag, s.count()); }

    static String deviceID(void) { return spark_deviceID(); }
   d42a0:	a806      	add	r0, sp, #24
   d42a2:	f001 ff6f 	bl	d6184 <spark_deviceID>
   d42a6:	9b06      	ldr	r3, [sp, #24]
   d42a8:	9305      	str	r3, [sp, #20]
   d42aa:	4628      	mov	r0, r5
   d42ac:	9704      	str	r7, [sp, #16]
   d42ae:	f004 f8ff 	bl	d84b0 <__aeabi_f2d>
   d42b2:	e9cd 0102 	strd	r0, r1, [sp, #8]
   d42b6:	4620      	mov	r0, r4
   d42b8:	f004 f8fa 	bl	d84b0 <__aeabi_f2d>
   d42bc:	4a28      	ldr	r2, [pc, #160]	; (d4360 <_Z11takeSamplesv+0x1b8>)

  batteryVoltage = analogRead(BATT) * 0.0011224;
   d42be:	4c29      	ldr	r4, [pc, #164]	; (d4364 <_Z11takeSamplesv+0x1bc>)
   d42c0:	e9cd 0100 	strd	r0, r1, [sp]
   d42c4:	2100      	movs	r1, #0
   d42c6:	4630      	mov	r0, r6
   d42c8:	f003 f8db 	bl	d7482 <_ZN5Print11printf_implEbPKcz>

  tempF = tempC * 1.8 + 32;

  // tempF = random(0,23000)/100.0;

  Serial.printf("tempC: %f tempF: %f counter: %i deviceID: %s\n", tempC, tempF, counter, System.deviceID().c_str());
   d42cc:	a806      	add	r0, sp, #24
   d42ce:	f003 f92f 	bl	d7530 <_ZN6StringD1Ev>

  batteryVoltage = analogRead(BATT) * 0.0011224;
   d42d2:	2021      	movs	r0, #33	; 0x21
   d42d4:	f003 fb6c 	bl	d79b0 <analogRead>
   d42d8:	f004 f8d8 	bl	d848c <__aeabi_i2d>
   d42dc:	a312      	add	r3, pc, #72	; (adr r3, d4328 <_Z11takeSamplesv+0x180>)
   d42de:	e9d3 2300 	ldrd	r2, r3, [r3]
   d42e2:	f004 f939 	bl	d8558 <__aeabi_dmul>
   d42e6:	f004 fbe7 	bl	d8ab8 <__aeabi_d2f>
   d42ea:	6020      	str	r0, [r4, #0]
  Serial.printf("voltage: %f\n", batteryVoltage);
   d42ec:	f002 fbe6 	bl	d6abc <_Z16_fetch_usbserialv>
   d42f0:	4605      	mov	r5, r0
   d42f2:	6820      	ldr	r0, [r4, #0]
   d42f4:	f004 f8dc 	bl	d84b0 <__aeabi_f2d>
   d42f8:	4a1b      	ldr	r2, [pc, #108]	; (d4368 <_Z11takeSamplesv+0x1c0>)
   d42fa:	e9cd 0100 	strd	r0, r1, [sp]
   d42fe:	2100      	movs	r1, #0
   d4300:	4628      	mov	r0, r5
   d4302:	f003 f8be 	bl	d7482 <_ZN5Print11printf_implEbPKcz>

  // delay(1000);
}
   d4306:	b00b      	add	sp, #44	; 0x2c
   d4308:	ecbd 8b02 	vpop	{d8}
   d430c:	bdf0      	pop	{r4, r5, r6, r7, pc}
   d430e:	bf00      	nop
   d4310:	dcb5db83 	.word	0xdcb5db83
   d4314:	3f6b79e1 	.word	0x3f6b79e1
   d4318:	66666666 	.word	0x66666666
   d431c:	40711266 	.word	0x40711266
   d4320:	cccccccd 	.word	0xcccccccd
   d4324:	3ffccccc 	.word	0x3ffccccc
   d4328:	d2c10294 	.word	0xd2c10294
   d432c:	3f5263af 	.word	0x3f5263af
   d4330:	2003d67c 	.word	0x2003d67c
   d4334:	00000000 	.word	0x00000000
   d4338:	42c80000 	.word	0x42c80000
   d433c:	2003e390 	.word	0x2003e390
   d4340:	2003d658 	.word	0x2003d658
   d4344:	2003d674 	.word	0x2003d674
   d4348:	457ff000 	.word	0x457ff000
   d434c:	2003d624 	.word	0x2003d624
   d4350:	461c4000 	.word	0x461c4000
   d4354:	4576e000 	.word	0x4576e000
   d4358:	40400000 	.word	0x40400000
   d435c:	2003e394 	.word	0x2003e394
   d4360:	000d8c9f 	.word	0x000d8c9f
   d4364:	2003d640 	.word	0x2003d640
   d4368:	000d8ccd 	.word	0x000d8ccd

000d436c <_ZNSt14__shared_countILN9__gnu_cxx12_Lock_policyE0EED1Ev>:
      explicit __shared_count(const __weak_count<_Lp>& __r);

      // Does not throw if __r._M_get_use_count() == 0, caller must check.
      explicit __shared_count(const __weak_count<_Lp>& __r, std::nothrow_t);

      ~__shared_count() noexcept
   d436c:	b538      	push	{r3, r4, r5, lr}
      {
	if (_M_pi != nullptr)
   d436e:	6804      	ldr	r4, [r0, #0]
      explicit __shared_count(const __weak_count<_Lp>& __r);

      // Does not throw if __r._M_get_use_count() == 0, caller must check.
      explicit __shared_count(const __weak_count<_Lp>& __r, std::nothrow_t);

      ~__shared_count() noexcept
   d4370:	4605      	mov	r5, r0
      {
	if (_M_pi != nullptr)
   d4372:	b17c      	cbz	r4, d4394 <_ZNSt14__shared_countILN9__gnu_cxx12_Lock_policyE0EED1Ev+0x28>

  template<>
    inline void
    _Sp_counted_base<_S_single>::_M_release() noexcept
    {
      if (--_M_use_count == 0)
   d4374:	6863      	ldr	r3, [r4, #4]
   d4376:	3b01      	subs	r3, #1
   d4378:	6063      	str	r3, [r4, #4]
   d437a:	b95b      	cbnz	r3, d4394 <_ZNSt14__shared_countILN9__gnu_cxx12_Lock_policyE0EED1Ev+0x28>
        {
          _M_dispose();
   d437c:	6823      	ldr	r3, [r4, #0]
   d437e:	4620      	mov	r0, r4
   d4380:	689b      	ldr	r3, [r3, #8]
   d4382:	4798      	blx	r3
          if (--_M_weak_count == 0)
   d4384:	68a3      	ldr	r3, [r4, #8]
   d4386:	3b01      	subs	r3, #1
   d4388:	60a3      	str	r3, [r4, #8]
   d438a:	b91b      	cbnz	r3, d4394 <_ZNSt14__shared_countILN9__gnu_cxx12_Lock_policyE0EED1Ev+0x28>
            _M_destroy();
   d438c:	6823      	ldr	r3, [r4, #0]
   d438e:	4620      	mov	r0, r4
   d4390:	68db      	ldr	r3, [r3, #12]
   d4392:	4798      	blx	r3

      ~__shared_count() noexcept
      {
	if (_M_pi != nullptr)
	  _M_pi->_M_release();
      }
   d4394:	4628      	mov	r0, r5
   d4396:	bd38      	pop	{r3, r4, r5, pc}

000d4398 <_ZN5Print6printfIIPKcEEEjS2_DpT_>:
   d4398:	4613      	mov	r3, r2
   d439a:	460a      	mov	r2, r1
   d439c:	2100      	movs	r1, #0
   d439e:	f003 b870 	b.w	d7482 <_ZN5Print11printf_implEbPKcz>
	...

000d43a4 <_Z8sendDatav>:

void sendData()
{
   d43a4:	b500      	push	{lr}
   d43a6:	b089      	sub	sp, #36	; 0x24
  String reply;
   d43a8:	4922      	ldr	r1, [pc, #136]	; (d4434 <_Z8sendDatav+0x90>)
   d43aa:	4668      	mov	r0, sp
   d43ac:	f003 f907 	bl	d75be <_ZN6StringC1EPK19__FlashStringHelper>
  Serial1.println(buffer);
   d43b0:	f002 faf4 	bl	d699c <_Z22__fetch_global_Serial1v>
   d43b4:	4920      	ldr	r1, [pc, #128]	; (d4438 <_Z8sendDatav+0x94>)
   d43b6:	f003 f83a 	bl	d742e <_ZN5Print7printlnEPKc>
  Serial1.flush();
   d43ba:	f002 faef 	bl	d699c <_Z22__fetch_global_Serial1v>
   d43be:	6803      	ldr	r3, [r0, #0]
   d43c0:	69db      	ldr	r3, [r3, #28]
   d43c2:	4798      	blx	r3
  delay(2300);
   d43c4:	f640 00fc 	movw	r0, #2300	; 0x8fc
   d43c8:	f002 ffb2 	bl	d7330 <delay>
  if (Serial1.available() > 0)
   d43cc:	f002 fae6 	bl	d699c <_Z22__fetch_global_Serial1v>
   d43d0:	6803      	ldr	r3, [r0, #0]
   d43d2:	691b      	ldr	r3, [r3, #16]
   d43d4:	4798      	blx	r3
   d43d6:	2800      	cmp	r0, #0
   d43d8:	dd26      	ble.n	d4428 <_Z8sendDatav+0x84>
  {
    reply = Serial1.readStringUntil('\n');
   d43da:	f002 fadf 	bl	d699c <_Z22__fetch_global_Serial1v>
   d43de:	220a      	movs	r2, #10
   d43e0:	4601      	mov	r1, r0
   d43e2:	a804      	add	r0, sp, #16
   d43e4:	f002 ffd2 	bl	d738c <_ZN6Stream15readStringUntilEc>
   d43e8:	a904      	add	r1, sp, #16
   d43ea:	4668      	mov	r0, sp
   d43ec:	f003 f917 	bl	d761e <_ZN6StringaSEOS_>
   d43f0:	a804      	add	r0, sp, #16
   d43f2:	f003 f89d 	bl	d7530 <_ZN6StringD1Ev>

    if (serialPrint == true)
   d43f6:	4b11      	ldr	r3, [pc, #68]	; (d443c <_Z8sendDatav+0x98>)
   d43f8:	781b      	ldrb	r3, [r3, #0]
   d43fa:	b153      	cbz	r3, d4412 <_Z8sendDatav+0x6e>
    {
      Serial.printf("send reply: %s\n", reply.c_str()); //+OK
   d43fc:	f002 fb5e 	bl	d6abc <_Z16_fetch_usbserialv>
   d4400:	9a00      	ldr	r2, [sp, #0]
   d4402:	490f      	ldr	r1, [pc, #60]	; (d4440 <_Z8sendDatav+0x9c>)
   d4404:	f7ff ffc8 	bl	d4398 <_ZN5Print6printfIIPKcEEEjS2_DpT_>
      Serial.flush();
   d4408:	f002 fb58 	bl	d6abc <_Z16_fetch_usbserialv>
   d440c:	6803      	ldr	r3, [r0, #0]
   d440e:	69db      	ldr	r3, [r3, #28]
   d4410:	4798      	blx	r3
    }
    if (particlePublish)
   d4412:	4b0c      	ldr	r3, [pc, #48]	; (d4444 <_Z8sendDatav+0xa0>)
   d4414:	781b      	ldrb	r3, [r3, #0]
   d4416:	b13b      	cbz	r3, d4428 <_Z8sendDatav+0x84>
    {
      Particle.publish("sendData()", reply);
   d4418:	a804      	add	r0, sp, #16
   d441a:	9a00      	ldr	r2, [sp, #0]
   d441c:	490a      	ldr	r1, [pc, #40]	; (d4448 <_Z8sendDatav+0xa4>)
   d441e:	f7ff fe57 	bl	d40d0 <_ZN10CloudClass7publishEPKcS1_.isra.7>
	: _M_ptr(__p), _M_refcount(__r._M_refcount) // never throws
	{ }

      __shared_ptr(const __shared_ptr&) noexcept = default;
      __shared_ptr& operator=(const __shared_ptr&) noexcept = default;
      ~__shared_ptr() = default;
   d4422:	a805      	add	r0, sp, #20
   d4424:	f7ff ffa2 	bl	d436c <_ZNSt14__shared_countILN9__gnu_cxx12_Lock_policyE0EED1Ev>
  // delay(1000);
}

void sendData()
{
  String reply;
   d4428:	4668      	mov	r0, sp
   d442a:	f003 f881 	bl	d7530 <_ZN6StringD1Ev>
    if (particlePublish)
    {
      Particle.publish("sendData()", reply);
    }
  }
}
   d442e:	b009      	add	sp, #36	; 0x24
   d4430:	f85d fb04 	ldr.w	pc, [sp], #4
   d4434:	000d8f7f 	.word	0x000d8f7f
   d4438:	2003e398 	.word	0x2003e398
   d443c:	2003d63c 	.word	0x2003d63c
   d4440:	000d8cda 	.word	0x000d8cda
   d4444:	2003d648 	.word	0x2003d648
   d4448:	000d8cea 	.word	0x000d8cea

000d444c <_Z12createBufferiiff>:
  setCRFOP(outputPower);
  setCPIN();
}

void createBuffer(int _sendID, int _bufferLength, float _tempF, float _batteryVoltage)
{
   d444c:	b530      	push	{r4, r5, lr}
  sprintf(buffer, "AT+SEND=%i,%i,%0.2f,%0.2f,%i\r\n", _sendID, _bufferLength, _tempF, _batteryVoltage, probeNumber);
   d444e:	4b19      	ldr	r3, [pc, #100]	; (d44b4 <_Z12createBufferiiff+0x68>)
  setCRFOP(outputPower);
  setCPIN();
}

void createBuffer(int _sendID, int _bufferLength, float _tempF, float _batteryVoltage)
{
   d4450:	b08b      	sub	sp, #44	; 0x2c
  sprintf(buffer, "AT+SEND=%i,%i,%0.2f,%0.2f,%i\r\n", _sendID, _bufferLength, _tempF, _batteryVoltage, probeNumber);
   d4452:	681b      	ldr	r3, [r3, #0]
   d4454:	9304      	str	r3, [sp, #16]
  setCRFOP(outputPower);
  setCPIN();
}

void createBuffer(int _sendID, int _bufferLength, float _tempF, float _batteryVoltage)
{
   d4456:	4604      	mov	r4, r0
  sprintf(buffer, "AT+SEND=%i,%i,%0.2f,%0.2f,%i\r\n", _sendID, _bufferLength, _tempF, _batteryVoltage, probeNumber);
   d4458:	ee10 0a90 	vmov	r0, s1
  setCRFOP(outputPower);
  setCPIN();
}

void createBuffer(int _sendID, int _bufferLength, float _tempF, float _batteryVoltage)
{
   d445c:	460d      	mov	r5, r1
   d445e:	ed8d 0a07 	vstr	s0, [sp, #28]
  sprintf(buffer, "AT+SEND=%i,%i,%0.2f,%0.2f,%i\r\n", _sendID, _bufferLength, _tempF, _batteryVoltage, probeNumber);
   d4462:	f004 f825 	bl	d84b0 <__aeabi_f2d>
   d4466:	ed9d 0a07 	vldr	s0, [sp, #28]
   d446a:	e9cd 0102 	strd	r0, r1, [sp, #8]
   d446e:	ee10 0a10 	vmov	r0, s0
   d4472:	f004 f81d 	bl	d84b0 <__aeabi_f2d>
   d4476:	462b      	mov	r3, r5
   d4478:	e9cd 0100 	strd	r0, r1, [sp]
   d447c:	4622      	mov	r2, r4
   d447e:	490e      	ldr	r1, [pc, #56]	; (d44b8 <_Z12createBufferiiff+0x6c>)
   d4480:	480e      	ldr	r0, [pc, #56]	; (d44bc <_Z12createBufferiiff+0x70>)
   d4482:	f001 ff3d 	bl	d6300 <sprintf>
  if (serialPrint)
   d4486:	4b0e      	ldr	r3, [pc, #56]	; (d44c0 <_Z12createBufferiiff+0x74>)
   d4488:	781b      	ldrb	r3, [r3, #0]
   d448a:	b12b      	cbz	r3, d4498 <_Z12createBufferiiff+0x4c>
  {
    Serial.printf("createBuffer: %s", buffer);
   d448c:	f002 fb16 	bl	d6abc <_Z16_fetch_usbserialv>
   d4490:	4a0a      	ldr	r2, [pc, #40]	; (d44bc <_Z12createBufferiiff+0x70>)
   d4492:	490c      	ldr	r1, [pc, #48]	; (d44c4 <_Z12createBufferiiff+0x78>)
   d4494:	f7ff ff80 	bl	d4398 <_ZN5Print6printfIIPKcEEEjS2_DpT_>
  }
  if (particlePublish)
   d4498:	4b0b      	ldr	r3, [pc, #44]	; (d44c8 <_Z12createBufferiiff+0x7c>)
   d449a:	781b      	ldrb	r3, [r3, #0]
   d449c:	b13b      	cbz	r3, d44ae <_Z12createBufferiiff+0x62>
  {
    Particle.publish("createBuffer()", buffer);
   d449e:	a808      	add	r0, sp, #32
   d44a0:	4a06      	ldr	r2, [pc, #24]	; (d44bc <_Z12createBufferiiff+0x70>)
   d44a2:	490a      	ldr	r1, [pc, #40]	; (d44cc <_Z12createBufferiiff+0x80>)
   d44a4:	f7ff fe14 	bl	d40d0 <_ZN10CloudClass7publishEPKcS1_.isra.7>
   d44a8:	a809      	add	r0, sp, #36	; 0x24
   d44aa:	f7ff ff5f 	bl	d436c <_ZNSt14__shared_countILN9__gnu_cxx12_Lock_policyE0EED1Ev>
  }
}
   d44ae:	b00b      	add	sp, #44	; 0x2c
   d44b0:	bd30      	pop	{r4, r5, pc}
   d44b2:	bf00      	nop
   d44b4:	2003d3ec 	.word	0x2003d3ec
   d44b8:	000d8cf5 	.word	0x000d8cf5
   d44bc:	2003e398 	.word	0x2003e398
   d44c0:	2003d63c 	.word	0x2003d63c
   d44c4:	000d8d14 	.word	0x000d8d14
   d44c8:	2003d648 	.word	0x2003d648
   d44cc:	000d8d25 	.word	0x000d8d25

000d44d0 <_Z11sendGPSDatav>:
    // Serial.printf("Satellites: %i\n",*satellites);
  }
}

void sendGPSData()
{
   d44d0:	b500      	push	{lr}
  char buffer[60];
  // sprintf(buffer, "AT+SEND=%i,%i,%0.2f,%0.2f,%i\r\n", _sendID, _bufferLength, _tempF, _batteryVoltage, probeNumber);
  sprintf(buffer, "AT+SEND=%i,60,%f,%f,%i\r\n", sendID, lat, lon, probeNumber);
   d44d2:	4b1a      	ldr	r3, [pc, #104]	; (d453c <_Z11sendGPSDatav+0x6c>)
    // Serial.printf("Satellites: %i\n",*satellites);
  }
}

void sendGPSData()
{
   d44d4:	b09b      	sub	sp, #108	; 0x6c
  char buffer[60];
  // sprintf(buffer, "AT+SEND=%i,%i,%0.2f,%0.2f,%i\r\n", _sendID, _bufferLength, _tempF, _batteryVoltage, probeNumber);
  sprintf(buffer, "AT+SEND=%i,60,%f,%f,%i\r\n", sendID, lat, lon, probeNumber);
   d44d6:	681b      	ldr	r3, [r3, #0]
   d44d8:	9304      	str	r3, [sp, #16]
   d44da:	4b19      	ldr	r3, [pc, #100]	; (d4540 <_Z11sendGPSDatav+0x70>)
   d44dc:	6818      	ldr	r0, [r3, #0]
   d44de:	f003 ffe7 	bl	d84b0 <__aeabi_f2d>
   d44e2:	e9cd 0102 	strd	r0, r1, [sp, #8]
   d44e6:	4b17      	ldr	r3, [pc, #92]	; (d4544 <_Z11sendGPSDatav+0x74>)
   d44e8:	6818      	ldr	r0, [r3, #0]
   d44ea:	f003 ffe1 	bl	d84b0 <__aeabi_f2d>
   d44ee:	e9cd 0100 	strd	r0, r1, [sp]
   d44f2:	4b15      	ldr	r3, [pc, #84]	; (d4548 <_Z11sendGPSDatav+0x78>)
   d44f4:	4915      	ldr	r1, [pc, #84]	; (d454c <_Z11sendGPSDatav+0x7c>)
   d44f6:	681a      	ldr	r2, [r3, #0]
   d44f8:	a80b      	add	r0, sp, #44	; 0x2c
   d44fa:	f001 ff01 	bl	d6300 <sprintf>
  Serial1.printf("%s", buffer);
   d44fe:	f002 fa4d 	bl	d699c <_Z22__fetch_global_Serial1v>
   d4502:	aa0b      	add	r2, sp, #44	; 0x2c
   d4504:	4912      	ldr	r1, [pc, #72]	; (d4550 <_Z11sendGPSDatav+0x80>)
   d4506:	f7ff ff47 	bl	d4398 <_ZN5Print6printfIIPKcEEEjS2_DpT_>
  Serial1.setTimeout(20000);
   d450a:	f002 fa47 	bl	d699c <_Z22__fetch_global_Serial1v>
   d450e:	f644 6120 	movw	r1, #20000	; 0x4e20
   d4512:	f002 ff38 	bl	d7386 <_ZN6Stream10setTimeoutEm>
  String reply = Serial1.readStringUntil('\n');
   d4516:	f002 fa41 	bl	d699c <_Z22__fetch_global_Serial1v>
   d451a:	220a      	movs	r2, #10
   d451c:	4601      	mov	r1, r0
   d451e:	a807      	add	r0, sp, #28
   d4520:	f002 ff34 	bl	d738c <_ZN6Stream15readStringUntilEc>
  Serial.printf("Send reply: %s\n", reply.c_str());
   d4524:	f002 faca 	bl	d6abc <_Z16_fetch_usbserialv>
   d4528:	9a07      	ldr	r2, [sp, #28]
   d452a:	490a      	ldr	r1, [pc, #40]	; (d4554 <_Z11sendGPSDatav+0x84>)
   d452c:	f7ff ff34 	bl	d4398 <_ZN5Print6printfIIPKcEEEjS2_DpT_>
  char buffer[60];
  // sprintf(buffer, "AT+SEND=%i,%i,%0.2f,%0.2f,%i\r\n", _sendID, _bufferLength, _tempF, _batteryVoltage, probeNumber);
  sprintf(buffer, "AT+SEND=%i,60,%f,%f,%i\r\n", sendID, lat, lon, probeNumber);
  Serial1.printf("%s", buffer);
  Serial1.setTimeout(20000);
  String reply = Serial1.readStringUntil('\n');
   d4530:	a807      	add	r0, sp, #28
   d4532:	f002 fffd 	bl	d7530 <_ZN6StringD1Ev>
  Serial.printf("Send reply: %s\n", reply.c_str());
}
   d4536:	b01b      	add	sp, #108	; 0x6c
   d4538:	f85d fb04 	ldr.w	pc, [sp], #4
   d453c:	2003d3ec 	.word	0x2003d3ec
   d4540:	2003d62c 	.word	0x2003d62c
   d4544:	2003e38c 	.word	0x2003e38c
   d4548:	2003d3d4 	.word	0x2003d3d4
   d454c:	000d8d34 	.word	0x000d8d34
   d4550:	000d8d22 	.word	0x000d8d22
   d4554:	000d8d4d 	.word	0x000d8d4d

000d4558 <_ZN5Print6printfIIEEEjPKcDpT_>:
   d4558:	460a      	mov	r2, r1
   d455a:	2100      	movs	r1, #0
   d455c:	f002 bf91 	b.w	d7482 <_ZN5Print11printf_implEbPKcz>

000d4560 <_Z7i2cScanv>:

void i2cScan()
{
   d4560:	b5f8      	push	{r3, r4, r5, r6, r7, lr}
  byte status;
  byte address;
  int nDevices;
  unsigned long delayTime = 2000;
  Serial.printf("Starting Scan: \n-------------- \n");
   d4562:	f002 faab 	bl	d6abc <_Z16_fetch_usbserialv>
   d4566:	491d      	ldr	r1, [pc, #116]	; (d45dc <_Z7i2cScanv+0x7c>)
    status = Wire.endTransmission();
    if (status == 0)
    {
      Serial.printf("I2C device found at address 0x%02x \n", address);
      nDevices++;
      gpsOn = true;
   d4568:	4f1d      	ldr	r7, [pc, #116]	; (d45e0 <_Z7i2cScanv+0x80>)
{
  byte status;
  byte address;
  int nDevices;
  unsigned long delayTime = 2000;
  Serial.printf("Starting Scan: \n-------------- \n");
   d456a:	f7ff fff5 	bl	d4558 <_ZN5Print6printfIIEEEjPKcDpT_>
   d456e:	2401      	movs	r4, #1
  nDevices = 0;
   d4570:	2500      	movs	r5, #0
  for (address = 1; address < 127; address++)
  {
    Wire.beginTransmission(address);
   d4572:	f003 f997 	bl	d78a4 <_Z19__fetch_global_Wirev>
   d4576:	b2e1      	uxtb	r1, r4
   d4578:	f002 f98c 	bl	d6894 <_ZN7TwoWire17beginTransmissionEh>
    status = Wire.endTransmission();
   d457c:	f003 f992 	bl	d78a4 <_Z19__fetch_global_Wirev>
   d4580:	f002 f990 	bl	d68a4 <_ZN7TwoWire15endTransmissionEv>
    if (status == 0)
   d4584:	4606      	mov	r6, r0
   d4586:	b950      	cbnz	r0, d459e <_Z7i2cScanv+0x3e>
    {
      Serial.printf("I2C device found at address 0x%02x \n", address);
   d4588:	f002 fa98 	bl	d6abc <_Z16_fetch_usbserialv>
   d458c:	4623      	mov	r3, r4
   d458e:	4a15      	ldr	r2, [pc, #84]	; (d45e4 <_Z7i2cScanv+0x84>)
   d4590:	4631      	mov	r1, r6
   d4592:	f002 ff76 	bl	d7482 <_ZN5Print11printf_implEbPKcz>
      nDevices++;
      gpsOn = true;
   d4596:	2301      	movs	r3, #1
    Wire.beginTransmission(address);
    status = Wire.endTransmission();
    if (status == 0)
    {
      Serial.printf("I2C device found at address 0x%02x \n", address);
      nDevices++;
   d4598:	3501      	adds	r5, #1
      gpsOn = true;
   d459a:	703b      	strb	r3, [r7, #0]
   d459c:	e008      	b.n	d45b0 <_Z7i2cScanv+0x50>
    }
    else if (status == 4)
   d459e:	2804      	cmp	r0, #4
   d45a0:	d106      	bne.n	d45b0 <_Z7i2cScanv+0x50>
    {
      Serial.printf("Unknown error at address 0x%02x \n", address);
   d45a2:	f002 fa8b 	bl	d6abc <_Z16_fetch_usbserialv>
   d45a6:	4623      	mov	r3, r4
   d45a8:	4a0f      	ldr	r2, [pc, #60]	; (d45e8 <_Z7i2cScanv+0x88>)
   d45aa:	2100      	movs	r1, #0
   d45ac:	f002 ff69 	bl	d7482 <_ZN5Print11printf_implEbPKcz>
   d45b0:	3401      	adds	r4, #1
  byte address;
  int nDevices;
  unsigned long delayTime = 2000;
  Serial.printf("Starting Scan: \n-------------- \n");
  nDevices = 0;
  for (address = 1; address < 127; address++)
   d45b2:	2c7f      	cmp	r4, #127	; 0x7f
   d45b4:	d1dd      	bne.n	d4572 <_Z7i2cScanv+0x12>
    else if (status == 4)
    {
      Serial.printf("Unknown error at address 0x%02x \n", address);
    }
  }
  if (nDevices == 0)
   d45b6:	b935      	cbnz	r5, d45c6 <_Z7i2cScanv+0x66>
  {
    Serial.printf("No I2C devices found\n");
   d45b8:	f002 fa80 	bl	d6abc <_Z16_fetch_usbserialv>
   d45bc:	490b      	ldr	r1, [pc, #44]	; (d45ec <_Z7i2cScanv+0x8c>)
   d45be:	f7ff ffcb 	bl	d4558 <_ZN5Print6printfIIEEEjPKcDpT_>
    gpsOn = false;
   d45c2:	4b07      	ldr	r3, [pc, #28]	; (d45e0 <_Z7i2cScanv+0x80>)
   d45c4:	701d      	strb	r5, [r3, #0]
  }
  Serial.printf("-------------- \nScan Complete!\n");
   d45c6:	f002 fa79 	bl	d6abc <_Z16_fetch_usbserialv>
   d45ca:	4909      	ldr	r1, [pc, #36]	; (d45f0 <_Z7i2cScanv+0x90>)
   d45cc:	f7ff ffc4 	bl	d4558 <_ZN5Print6printfIIEEEjPKcDpT_>
  delay(delayTime);
   d45d0:	f44f 60fa 	mov.w	r0, #2000	; 0x7d0
}
   d45d4:	e8bd 40f8 	ldmia.w	sp!, {r3, r4, r5, r6, r7, lr}
  {
    Serial.printf("No I2C devices found\n");
    gpsOn = false;
  }
  Serial.printf("-------------- \nScan Complete!\n");
  delay(delayTime);
   d45d8:	f002 beaa 	b.w	d7330 <delay>
   d45dc:	000d8dd7 	.word	0x000d8dd7
   d45e0:	2003d63d 	.word	0x2003d63d
   d45e4:	000d8df8 	.word	0x000d8df8
   d45e8:	000d8e1d 	.word	0x000d8e1d
   d45ec:	000d8e3f 	.word	0x000d8e3f
   d45f0:	000d8e55 	.word	0x000d8e55

000d45f4 <_Z6atTestv>:
    Particle.publish("createBuffer()", buffer);
  }
}

void atTest() // 1
{             // test if module responds to commands
   d45f4:	b500      	push	{lr}
   d45f6:	b089      	sub	sp, #36	; 0x24
  String reply;
   d45f8:	491b      	ldr	r1, [pc, #108]	; (d4668 <_Z6atTestv+0x74>)
   d45fa:	4668      	mov	r0, sp
   d45fc:	f002 ffdf 	bl	d75be <_ZN6StringC1EPK19__FlashStringHelper>
  Serial1.printf("AT\r\n");
   d4600:	f002 f9cc 	bl	d699c <_Z22__fetch_global_Serial1v>
   d4604:	4919      	ldr	r1, [pc, #100]	; (d466c <_Z6atTestv+0x78>)
   d4606:	f7ff ffa7 	bl	d4558 <_ZN5Print6printfIIEEEjPKcDpT_>
  delay(200);
   d460a:	20c8      	movs	r0, #200	; 0xc8
   d460c:	f002 fe90 	bl	d7330 <delay>
  if (Serial1.available() > 0)
   d4610:	f002 f9c4 	bl	d699c <_Z22__fetch_global_Serial1v>
   d4614:	6803      	ldr	r3, [r0, #0]
   d4616:	691b      	ldr	r3, [r3, #16]
   d4618:	4798      	blx	r3
   d461a:	2800      	cmp	r0, #0
   d461c:	dd1e      	ble.n	d465c <_Z6atTestv+0x68>
  {
    reply = Serial1.readStringUntil('\n');
   d461e:	f002 f9bd 	bl	d699c <_Z22__fetch_global_Serial1v>
   d4622:	220a      	movs	r2, #10
   d4624:	4601      	mov	r1, r0
   d4626:	a804      	add	r0, sp, #16
   d4628:	f002 feb0 	bl	d738c <_ZN6Stream15readStringUntilEc>
   d462c:	a904      	add	r1, sp, #16
   d462e:	4668      	mov	r0, sp
   d4630:	f002 fff5 	bl	d761e <_ZN6StringaSEOS_>
   d4634:	a804      	add	r0, sp, #16
   d4636:	f002 ff7b 	bl	d7530 <_ZN6StringD1Ev>

    if (serialPrint == true)
   d463a:	4b0d      	ldr	r3, [pc, #52]	; (d4670 <_Z6atTestv+0x7c>)
   d463c:	781b      	ldrb	r3, [r3, #0]
   d463e:	b12b      	cbz	r3, d464c <_Z6atTestv+0x58>
    {
      Serial.printf("atTest reply: %s\n", reply.c_str()); //+OK
   d4640:	f002 fa3c 	bl	d6abc <_Z16_fetch_usbserialv>
   d4644:	9a00      	ldr	r2, [sp, #0]
   d4646:	490b      	ldr	r1, [pc, #44]	; (d4674 <_Z6atTestv+0x80>)
   d4648:	f7ff fea6 	bl	d4398 <_ZN5Print6printfIIPKcEEEjS2_DpT_>
    }
    if (particlePublish == true)
      ;
    {
      Particle.publish("atTest()", reply);
   d464c:	a804      	add	r0, sp, #16
   d464e:	9a00      	ldr	r2, [sp, #0]
   d4650:	4909      	ldr	r1, [pc, #36]	; (d4678 <_Z6atTestv+0x84>)
   d4652:	f7ff fd3d 	bl	d40d0 <_ZN10CloudClass7publishEPKcS1_.isra.7>
   d4656:	a805      	add	r0, sp, #20
   d4658:	f7ff fe88 	bl	d436c <_ZNSt14__shared_countILN9__gnu_cxx12_Lock_policyE0EED1Ev>
  }
}

void atTest() // 1
{             // test if module responds to commands
  String reply;
   d465c:	4668      	mov	r0, sp
   d465e:	f002 ff67 	bl	d7530 <_ZN6StringD1Ev>
      ;
    {
      Particle.publish("atTest()", reply);
    }
  }
}
   d4662:	b009      	add	sp, #36	; 0x24
   d4664:	f85d fb04 	ldr.w	pc, [sp], #4
   d4668:	000d8f7f 	.word	0x000d8f7f
   d466c:	000d8e75 	.word	0x000d8e75
   d4670:	2003d63c 	.word	0x2003d63c
   d4674:	000d8e7a 	.word	0x000d8e7a
   d4678:	000d8e8c 	.word	0x000d8e8c

000d467c <_Z7setModei>:
    }
  }
}
//************************** TEST SLEEP MODE AND WAKE
void setMode(int modeParameter) // 3
{                               // Set the work mode between Transmit and Receive mode or Sleep mode
   d467c:	b510      	push	{r4, lr}
   d467e:	b08e      	sub	sp, #56	; 0x38
   d4680:	4604      	mov	r4, r0
  String reply;
   d4682:	4951      	ldr	r1, [pc, #324]	; (d47c8 <_Z7setModei+0x14c>)
   d4684:	a802      	add	r0, sp, #8
   d4686:	f002 ff9a 	bl	d75be <_ZN6StringC1EPK19__FlashStringHelper>
  String reply2;
   d468a:	494f      	ldr	r1, [pc, #316]	; (d47c8 <_Z7setModei+0x14c>)
   d468c:	a806      	add	r0, sp, #24
   d468e:	f002 ff96 	bl	d75be <_ZN6StringC1EPK19__FlashStringHelper>
  if (modeParameter == 1)
   d4692:	2c01      	cmp	r4, #1
   d4694:	d108      	bne.n	d46a8 <_Z7setModei+0x2c>
  {
    Serial1.printf("AT+MODE=1\r\n");
   d4696:	f002 f981 	bl	d699c <_Z22__fetch_global_Serial1v>
   d469a:	494c      	ldr	r1, [pc, #304]	; (d47cc <_Z7setModei+0x150>)
   d469c:	f7ff ff5c 	bl	d4558 <_ZN5Print6printfIIEEEjPKcDpT_>
    Serial.printf("AT+MODE=1\r\n");
   d46a0:	f002 fa0c 	bl	d6abc <_Z16_fetch_usbserialv>
   d46a4:	4949      	ldr	r1, [pc, #292]	; (d47cc <_Z7setModei+0x150>)
   d46a6:	e007      	b.n	d46b8 <_Z7setModei+0x3c>
    Serial.flush();
    Serial1.flush();
  }
  else
  {
    Serial1.printf("AT+MODE=0\r\n");
   d46a8:	f002 f978 	bl	d699c <_Z22__fetch_global_Serial1v>
   d46ac:	4948      	ldr	r1, [pc, #288]	; (d47d0 <_Z7setModei+0x154>)
   d46ae:	f7ff ff53 	bl	d4558 <_ZN5Print6printfIIEEEjPKcDpT_>
    Serial.printf("AT+MODE=0\r\n");
   d46b2:	f002 fa03 	bl	d6abc <_Z16_fetch_usbserialv>
   d46b6:	4946      	ldr	r1, [pc, #280]	; (d47d0 <_Z7setModei+0x154>)
   d46b8:	f7ff ff4e 	bl	d4558 <_ZN5Print6printfIIEEEjPKcDpT_>
    Serial.flush();
   d46bc:	f002 f9fe 	bl	d6abc <_Z16_fetch_usbserialv>
   d46c0:	6803      	ldr	r3, [r0, #0]
   d46c2:	69db      	ldr	r3, [r3, #28]
   d46c4:	4798      	blx	r3
    Serial1.flush();
   d46c6:	f002 f969 	bl	d699c <_Z22__fetch_global_Serial1v>
   d46ca:	6803      	ldr	r3, [r0, #0]
   d46cc:	69db      	ldr	r3, [r3, #28]
   d46ce:	4798      	blx	r3
  }
  delay(200);
   d46d0:	20c8      	movs	r0, #200	; 0xc8
   d46d2:	f002 fe2d 	bl	d7330 <delay>
  if (Serial1.available() > 0)
   d46d6:	f002 f961 	bl	d699c <_Z22__fetch_global_Serial1v>
   d46da:	6803      	ldr	r3, [r0, #0]
   d46dc:	691b      	ldr	r3, [r3, #16]
   d46de:	4798      	blx	r3
   d46e0:	2800      	cmp	r0, #0
   d46e2:	dd32      	ble.n	d474a <_Z7setModei+0xce>
  {
    reply = Serial1.readStringUntil('\n');
   d46e4:	f002 f95a 	bl	d699c <_Z22__fetch_global_Serial1v>
   d46e8:	220a      	movs	r2, #10
   d46ea:	4601      	mov	r1, r0
   d46ec:	a80a      	add	r0, sp, #40	; 0x28
   d46ee:	f002 fe4d 	bl	d738c <_ZN6Stream15readStringUntilEc>
   d46f2:	a90a      	add	r1, sp, #40	; 0x28
   d46f4:	a802      	add	r0, sp, #8
   d46f6:	f002 ff92 	bl	d761e <_ZN6StringaSEOS_>
   d46fa:	a80a      	add	r0, sp, #40	; 0x28
   d46fc:	f002 ff18 	bl	d7530 <_ZN6StringD1Ev>
    reply2 = Serial1.readStringUntil('\n');
   d4700:	f002 f94c 	bl	d699c <_Z22__fetch_global_Serial1v>
   d4704:	220a      	movs	r2, #10
   d4706:	4601      	mov	r1, r0
   d4708:	a80a      	add	r0, sp, #40	; 0x28
   d470a:	f002 fe3f 	bl	d738c <_ZN6Stream15readStringUntilEc>
   d470e:	a90a      	add	r1, sp, #40	; 0x28
   d4710:	a806      	add	r0, sp, #24
   d4712:	f002 ff84 	bl	d761e <_ZN6StringaSEOS_>
   d4716:	a80a      	add	r0, sp, #40	; 0x28
   d4718:	f002 ff0a 	bl	d7530 <_ZN6StringD1Ev>

    if (serialPrint)
   d471c:	4b2d      	ldr	r3, [pc, #180]	; (d47d4 <_Z7setModei+0x158>)
   d471e:	781b      	ldrb	r3, [r3, #0]
   d4720:	b143      	cbz	r3, d4734 <_Z7setModei+0xb8>
    {
      Serial.printf("atMode reply: %s reply2: %s\n", reply.c_str(), reply2.c_str());
   d4722:	f002 f9cb 	bl	d6abc <_Z16_fetch_usbserialv>
   d4726:	9b06      	ldr	r3, [sp, #24]
   d4728:	9300      	str	r3, [sp, #0]
   d472a:	4a2b      	ldr	r2, [pc, #172]	; (d47d8 <_Z7setModei+0x15c>)
   d472c:	9b02      	ldr	r3, [sp, #8]
   d472e:	2100      	movs	r1, #0
   d4730:	f002 fea7 	bl	d7482 <_ZN5Print11printf_implEbPKcz>
    }
    if (particlePublish)
   d4734:	4b29      	ldr	r3, [pc, #164]	; (d47dc <_Z7setModei+0x160>)
   d4736:	781b      	ldrb	r3, [r3, #0]
   d4738:	b13b      	cbz	r3, d474a <_Z7setModei+0xce>
    {
      Particle.publish("atMode()", reply);
   d473a:	a80a      	add	r0, sp, #40	; 0x28
   d473c:	9a02      	ldr	r2, [sp, #8]
   d473e:	4928      	ldr	r1, [pc, #160]	; (d47e0 <_Z7setModei+0x164>)
   d4740:	f7ff fcc6 	bl	d40d0 <_ZN10CloudClass7publishEPKcS1_.isra.7>
   d4744:	a80b      	add	r0, sp, #44	; 0x2c
   d4746:	f7ff fe11 	bl	d436c <_ZNSt14__shared_countILN9__gnu_cxx12_Lock_policyE0EED1Ev>
    }
  }
  if (askSetting)
   d474a:	4b26      	ldr	r3, [pc, #152]	; (d47e4 <_Z7setModei+0x168>)
   d474c:	781b      	ldrb	r3, [r3, #0]
   d474e:	2b00      	cmp	r3, #0
   d4750:	d032      	beq.n	d47b8 <_Z7setModei+0x13c>
  {
    Serial1.printf("AT+MODE?\r\n"); // correct
   d4752:	f002 f923 	bl	d699c <_Z22__fetch_global_Serial1v>
   d4756:	4924      	ldr	r1, [pc, #144]	; (d47e8 <_Z7setModei+0x16c>)
   d4758:	f7ff fefe 	bl	d4558 <_ZN5Print6printfIIEEEjPKcDpT_>
    delay(200);
   d475c:	20c8      	movs	r0, #200	; 0xc8
   d475e:	f002 fde7 	bl	d7330 <delay>
    if (Serial1.available() > 0)
   d4762:	f002 f91b 	bl	d699c <_Z22__fetch_global_Serial1v>
   d4766:	6803      	ldr	r3, [r0, #0]
   d4768:	691b      	ldr	r3, [r3, #16]
   d476a:	4798      	blx	r3
   d476c:	2800      	cmp	r0, #0
   d476e:	dd23      	ble.n	d47b8 <_Z7setModei+0x13c>
    {
      Serial.printf("Awaiting Reply\n");
   d4770:	f002 f9a4 	bl	d6abc <_Z16_fetch_usbserialv>
   d4774:	491d      	ldr	r1, [pc, #116]	; (d47ec <_Z7setModei+0x170>)
   d4776:	f7ff feef 	bl	d4558 <_ZN5Print6printfIIEEEjPKcDpT_>
      reply = Serial1.readStringUntil('\n');
   d477a:	f002 f90f 	bl	d699c <_Z22__fetch_global_Serial1v>
   d477e:	220a      	movs	r2, #10
   d4780:	4601      	mov	r1, r0
   d4782:	a80a      	add	r0, sp, #40	; 0x28
   d4784:	f002 fe02 	bl	d738c <_ZN6Stream15readStringUntilEc>
   d4788:	a90a      	add	r1, sp, #40	; 0x28
   d478a:	a802      	add	r0, sp, #8
   d478c:	f002 ff47 	bl	d761e <_ZN6StringaSEOS_>
   d4790:	a80a      	add	r0, sp, #40	; 0x28
   d4792:	f002 fecd 	bl	d7530 <_ZN6StringD1Ev>
      Serial.printf("Reply AT+MODE?: %s\n", reply.c_str());
   d4796:	f002 f991 	bl	d6abc <_Z16_fetch_usbserialv>
   d479a:	9a02      	ldr	r2, [sp, #8]
   d479c:	4914      	ldr	r1, [pc, #80]	; (d47f0 <_Z7setModei+0x174>)
   d479e:	f7ff fdfb 	bl	d4398 <_ZN5Print6printfIIPKcEEEjS2_DpT_>
      if (particlePublish)
   d47a2:	4b0e      	ldr	r3, [pc, #56]	; (d47dc <_Z7setModei+0x160>)
   d47a4:	781b      	ldrb	r3, [r3, #0]
   d47a6:	b13b      	cbz	r3, d47b8 <_Z7setModei+0x13c>
      {
        Particle.publish("AT+MODE?", reply);
   d47a8:	a80a      	add	r0, sp, #40	; 0x28
   d47aa:	9a02      	ldr	r2, [sp, #8]
   d47ac:	4911      	ldr	r1, [pc, #68]	; (d47f4 <_Z7setModei+0x178>)
   d47ae:	f7ff fc8f 	bl	d40d0 <_ZN10CloudClass7publishEPKcS1_.isra.7>
   d47b2:	a80b      	add	r0, sp, #44	; 0x2c
   d47b4:	f7ff fdda 	bl	d436c <_ZNSt14__shared_countILN9__gnu_cxx12_Lock_policyE0EED1Ev>
}
//************************** TEST SLEEP MODE AND WAKE
void setMode(int modeParameter) // 3
{                               // Set the work mode between Transmit and Receive mode or Sleep mode
  String reply;
  String reply2;
   d47b8:	a806      	add	r0, sp, #24
   d47ba:	f002 feb9 	bl	d7530 <_ZN6StringD1Ev>
  }
}
//************************** TEST SLEEP MODE AND WAKE
void setMode(int modeParameter) // 3
{                               // Set the work mode between Transmit and Receive mode or Sleep mode
  String reply;
   d47be:	a802      	add	r0, sp, #8
   d47c0:	f002 feb6 	bl	d7530 <_ZN6StringD1Ev>
      {
        Particle.publish("AT+MODE?", reply);
      }
    }
  }
}
   d47c4:	b00e      	add	sp, #56	; 0x38
   d47c6:	bd10      	pop	{r4, pc}
   d47c8:	000d8f7f 	.word	0x000d8f7f
   d47cc:	000d8db9 	.word	0x000d8db9
   d47d0:	000d8d5d 	.word	0x000d8d5d
   d47d4:	2003d63c 	.word	0x2003d63c
   d47d8:	000d8ec1 	.word	0x000d8ec1
   d47dc:	2003d648 	.word	0x2003d648
   d47e0:	000d8ede 	.word	0x000d8ede
   d47e4:	2003d678 	.word	0x2003d678
   d47e8:	000d8d93 	.word	0x000d8d93
   d47ec:	000d8ee7 	.word	0x000d8ee7
   d47f0:	000d8ef7 	.word	0x000d8ef7
   d47f4:	000d8f0b 	.word	0x000d8f0b

000d47f8 <loop>:
    probeNumber = 0;
  }
}

void loop()
{
   d47f8:	b51f      	push	{r0, r1, r2, r3, r4, lr}
  if (gpsOn)
   d47fa:	4b22      	ldr	r3, [pc, #136]	; (d4884 <loop+0x8c>)
   d47fc:	7818      	ldrb	r0, [r3, #0]
   d47fe:	b1a0      	cbz	r0, d482a <loop+0x32>
  {
    if (millis() - lastGPS > 15000)
   d4800:	4c21      	ldr	r4, [pc, #132]	; (d4888 <loop+0x90>)

#ifdef __cplusplus
extern "C" {
#endif

inline system_tick_t millis(void) { return HAL_Timer_Get_Milli_Seconds(); }
   d4802:	f001 fbf7 	bl	d5ff4 <HAL_Timer_Get_Milli_Seconds>
   d4806:	6823      	ldr	r3, [r4, #0]
   d4808:	1ac0      	subs	r0, r0, r3
   d480a:	f643 2398 	movw	r3, #15000	; 0x3a98
   d480e:	4298      	cmp	r0, r3
   d4810:	d936      	bls.n	d4880 <loop+0x88>
    {
      getGPS(&lat, &lon, &alt, &sat);
   d4812:	4b1e      	ldr	r3, [pc, #120]	; (d488c <loop+0x94>)
   d4814:	4a1e      	ldr	r2, [pc, #120]	; (d4890 <loop+0x98>)
   d4816:	491f      	ldr	r1, [pc, #124]	; (d4894 <loop+0x9c>)
   d4818:	481f      	ldr	r0, [pc, #124]	; (d4898 <loop+0xa0>)
   d481a:	f7ff fc6f 	bl	d40fc <_Z6getGPSPfS_S_Pi>
      sendGPSData();
   d481e:	f7ff fe57 	bl	d44d0 <_Z11sendGPSDatav>
   d4822:	f001 fbe7 	bl	d5ff4 <HAL_Timer_Get_Milli_Seconds>
      lastGPS = millis();
   d4826:	6020      	str	r0, [r4, #0]
   d4828:	e02a      	b.n	d4880 <loop+0x88>
    }
  }
  else
  {
    setMode(0);
   d482a:	f7ff ff27 	bl	d467c <_Z7setModei>
    delay(500);
   d482e:	f44f 70fa 	mov.w	r0, #500	; 0x1f4
   d4832:	f002 fd7d 	bl	d7330 <delay>
    takeSamples();
   d4836:	f7ff fcb7 	bl	d41a8 <_Z11takeSamplesv>
    createBuffer(sendID, bufferLength, tempF, batteryVoltage);
   d483a:	4b18      	ldr	r3, [pc, #96]	; (d489c <loop+0xa4>)
   d483c:	edd3 0a00 	vldr	s1, [r3]
   d4840:	4b17      	ldr	r3, [pc, #92]	; (d48a0 <loop+0xa8>)
   d4842:	ed93 0a00 	vldr	s0, [r3]
   d4846:	4b17      	ldr	r3, [pc, #92]	; (d48a4 <loop+0xac>)
   d4848:	6819      	ldr	r1, [r3, #0]
   d484a:	4b17      	ldr	r3, [pc, #92]	; (d48a8 <loop+0xb0>)
   d484c:	6818      	ldr	r0, [r3, #0]
   d484e:	f7ff fdfd 	bl	d444c <_Z12createBufferiiff>
    sendData();
   d4852:	f7ff fda7 	bl	d43a4 <_Z8sendDatav>
    delay(1000);
   d4856:	f44f 707a 	mov.w	r0, #1000	; 0x3e8
   d485a:	f002 fd69 	bl	d7330 <delay>
    setMode(1);
   d485e:	2001      	movs	r0, #1
   d4860:	f7ff ff0c 	bl	d467c <_Z7setModei>
    delay(500);
   d4864:	f44f 70fa 	mov.w	r0, #500	; 0x1f4
   d4868:	f002 fd62 	bl	d7330 <delay>
    System.sleep(config);
   d486c:	a801      	add	r0, sp, #4
   d486e:	490f      	ldr	r1, [pc, #60]	; (d48ac <loop+0xb4>)
   d4870:	f002 ff3e 	bl	d76f0 <_ZN11SystemClass5sleepERK24SystemSleepConfiguration>
        return toSleepResult();
    }

private:
    void freeWakeupSourceMemory() {
        if (wakeupSource_) {
   d4874:	9801      	ldr	r0, [sp, #4]
   d4876:	b108      	cbz	r0, d487c <loop+0x84>
            free(wakeupSource_);
   d4878:	f001 fd32 	bl	d62e0 <free>
    System.reset();
   d487c:	f002 ff35 	bl	d76ea <_ZN11SystemClass5resetEv>
  }
}
   d4880:	b004      	add	sp, #16
   d4882:	bd10      	pop	{r4, pc}
   d4884:	2003d63d 	.word	0x2003d63d
   d4888:	2003d64c 	.word	0x2003d64c
   d488c:	2003e3cc 	.word	0x2003e3cc
   d4890:	2003d650 	.word	0x2003d650
   d4894:	2003d62c 	.word	0x2003d62c
   d4898:	2003e38c 	.word	0x2003e38c
   d489c:	2003d640 	.word	0x2003d640
   d48a0:	2003d674 	.word	0x2003d674
   d48a4:	2003d3f0 	.word	0x2003d3f0
   d48a8:	2003d3d4 	.word	0x2003d3d4
   d48ac:	2003d65c 	.word	0x2003d65c

000d48b0 <_Z12setParameteri>:
  }
}

//************************** TEST RADIO PARAMETERS
void setParameter(int radioParameter) // 5
{                                     //  Set the Radio Frequency parameters
   d48b0:	b500      	push	{lr}
   d48b2:	b089      	sub	sp, #36	; 0x24
  String reply;
   d48b4:	4938      	ldr	r1, [pc, #224]	; (d4998 <_Z12setParameteri+0xe8>)
   d48b6:	4668      	mov	r0, sp
   d48b8:	f002 fe81 	bl	d75be <_ZN6StringC1EPK19__FlashStringHelper>
  // Serial1.printf("AT+PARAMETER=12,7,1,4\r\n"); // default working with v1 home base
  Serial1.printf("AT+PARAMETER=12,7,1,7\r\n"); // working with v1 home base
   d48bc:	f002 f86e 	bl	d699c <_Z22__fetch_global_Serial1v>
   d48c0:	4936      	ldr	r1, [pc, #216]	; (d499c <_Z12setParameteri+0xec>)
   d48c2:	f7ff fe49 	bl	d4558 <_ZN5Print6printfIIEEEjPKcDpT_>
  // }
  // else if (radioParameter == 1)
  // {
  //     Serial1.printf("AT+PARAMETER=12,4,1,7\r\n"); // more than 3km //not working with v1 home base
  // }
  delay(200);
   d48c6:	20c8      	movs	r0, #200	; 0xc8
   d48c8:	f002 fd32 	bl	d7330 <delay>
  if (Serial1.available() > 0)
   d48cc:	f002 f866 	bl	d699c <_Z22__fetch_global_Serial1v>
   d48d0:	6803      	ldr	r3, [r0, #0]
   d48d2:	691b      	ldr	r3, [r3, #16]
   d48d4:	4798      	blx	r3
   d48d6:	2800      	cmp	r0, #0
   d48d8:	dd21      	ble.n	d491e <_Z12setParameteri+0x6e>
  {
    reply = Serial1.readStringUntil('\n');
   d48da:	f002 f85f 	bl	d699c <_Z22__fetch_global_Serial1v>
   d48de:	220a      	movs	r2, #10
   d48e0:	4601      	mov	r1, r0
   d48e2:	a804      	add	r0, sp, #16
   d48e4:	f002 fd52 	bl	d738c <_ZN6Stream15readStringUntilEc>
   d48e8:	a904      	add	r1, sp, #16
   d48ea:	4668      	mov	r0, sp
   d48ec:	f002 fe97 	bl	d761e <_ZN6StringaSEOS_>
   d48f0:	a804      	add	r0, sp, #16
   d48f2:	f002 fe1d 	bl	d7530 <_ZN6StringD1Ev>

    if (serialPrint)
   d48f6:	4b2a      	ldr	r3, [pc, #168]	; (d49a0 <_Z12setParameteri+0xf0>)
   d48f8:	781b      	ldrb	r3, [r3, #0]
   d48fa:	b12b      	cbz	r3, d4908 <_Z12setParameteri+0x58>
    {
      Serial.printf(" reply: %s\n", reply.c_str()); //+OK
   d48fc:	f002 f8de 	bl	d6abc <_Z16_fetch_usbserialv>
   d4900:	9a00      	ldr	r2, [sp, #0]
   d4902:	4928      	ldr	r1, [pc, #160]	; (d49a4 <_Z12setParameteri+0xf4>)
   d4904:	f7ff fd48 	bl	d4398 <_ZN5Print6printfIIPKcEEEjS2_DpT_>
    }
    if (particlePublish)
   d4908:	4b27      	ldr	r3, [pc, #156]	; (d49a8 <_Z12setParameteri+0xf8>)
   d490a:	781b      	ldrb	r3, [r3, #0]
   d490c:	b13b      	cbz	r3, d491e <_Z12setParameteri+0x6e>
    {
      Particle.publish("setRadio", reply);
   d490e:	a804      	add	r0, sp, #16
   d4910:	9a00      	ldr	r2, [sp, #0]
   d4912:	4926      	ldr	r1, [pc, #152]	; (d49ac <_Z12setParameteri+0xfc>)
   d4914:	f7ff fbdc 	bl	d40d0 <_ZN10CloudClass7publishEPKcS1_.isra.7>
   d4918:	a805      	add	r0, sp, #20
   d491a:	f7ff fd27 	bl	d436c <_ZNSt14__shared_countILN9__gnu_cxx12_Lock_policyE0EED1Ev>
    }
  }
  if (askSetting)
   d491e:	4b24      	ldr	r3, [pc, #144]	; (d49b0 <_Z12setParameteri+0x100>)
   d4920:	781b      	ldrb	r3, [r3, #0]
   d4922:	2b00      	cmp	r3, #0
   d4924:	d032      	beq.n	d498c <_Z12setParameteri+0xdc>
  {
    Serial1.printf("AT+PARAMETER?\r\n");
   d4926:	f002 f839 	bl	d699c <_Z22__fetch_global_Serial1v>
   d492a:	4922      	ldr	r1, [pc, #136]	; (d49b4 <_Z12setParameteri+0x104>)
   d492c:	f7ff fe14 	bl	d4558 <_ZN5Print6printfIIEEEjPKcDpT_>
    delay(200);
   d4930:	20c8      	movs	r0, #200	; 0xc8
   d4932:	f002 fcfd 	bl	d7330 <delay>
    if (Serial1.available() > 0)
   d4936:	f002 f831 	bl	d699c <_Z22__fetch_global_Serial1v>
   d493a:	6803      	ldr	r3, [r0, #0]
   d493c:	691b      	ldr	r3, [r3, #16]
   d493e:	4798      	blx	r3
   d4940:	2800      	cmp	r0, #0
   d4942:	dd23      	ble.n	d498c <_Z12setParameteri+0xdc>
    {
      Serial.printf("Awaiting Reply\n");
   d4944:	f002 f8ba 	bl	d6abc <_Z16_fetch_usbserialv>
   d4948:	491b      	ldr	r1, [pc, #108]	; (d49b8 <_Z12setParameteri+0x108>)
   d494a:	f7ff fe05 	bl	d4558 <_ZN5Print6printfIIEEEjPKcDpT_>
      reply = Serial1.readStringUntil('\n');
   d494e:	f002 f825 	bl	d699c <_Z22__fetch_global_Serial1v>
   d4952:	220a      	movs	r2, #10
   d4954:	4601      	mov	r1, r0
   d4956:	a804      	add	r0, sp, #16
   d4958:	f002 fd18 	bl	d738c <_ZN6Stream15readStringUntilEc>
   d495c:	a904      	add	r1, sp, #16
   d495e:	4668      	mov	r0, sp
   d4960:	f002 fe5d 	bl	d761e <_ZN6StringaSEOS_>
   d4964:	a804      	add	r0, sp, #16
   d4966:	f002 fde3 	bl	d7530 <_ZN6StringD1Ev>
      Serial.printf("Reply AT+PARAMETER?: %s\n", reply.c_str()); //+PARAMETER=" "
   d496a:	f002 f8a7 	bl	d6abc <_Z16_fetch_usbserialv>
   d496e:	9a00      	ldr	r2, [sp, #0]
   d4970:	4912      	ldr	r1, [pc, #72]	; (d49bc <_Z12setParameteri+0x10c>)
   d4972:	f7ff fd11 	bl	d4398 <_ZN5Print6printfIIPKcEEEjS2_DpT_>
      if (particlePublish)
   d4976:	4b0c      	ldr	r3, [pc, #48]	; (d49a8 <_Z12setParameteri+0xf8>)
   d4978:	781b      	ldrb	r3, [r3, #0]
   d497a:	b13b      	cbz	r3, d498c <_Z12setParameteri+0xdc>
      {
        Particle.publish("setParameter?", reply);
   d497c:	a804      	add	r0, sp, #16
   d497e:	9a00      	ldr	r2, [sp, #0]
   d4980:	490f      	ldr	r1, [pc, #60]	; (d49c0 <_Z12setParameteri+0x110>)
   d4982:	f7ff fba5 	bl	d40d0 <_ZN10CloudClass7publishEPKcS1_.isra.7>
   d4986:	a805      	add	r0, sp, #20
   d4988:	f7ff fcf0 	bl	d436c <_ZNSt14__shared_countILN9__gnu_cxx12_Lock_policyE0EED1Ev>
}

//************************** TEST RADIO PARAMETERS
void setParameter(int radioParameter) // 5
{                                     //  Set the Radio Frequency parameters
  String reply;
   d498c:	4668      	mov	r0, sp
   d498e:	f002 fdcf 	bl	d7530 <_ZN6StringD1Ev>
      {
        Particle.publish("setParameter?", reply);
      }
    }
  }
}
   d4992:	b009      	add	sp, #36	; 0x24
   d4994:	f85d fb04 	ldr.w	pc, [sp], #4
   d4998:	000d8f7f 	.word	0x000d8f7f
   d499c:	000d8f14 	.word	0x000d8f14
   d49a0:	2003d63c 	.word	0x2003d63c
   d49a4:	000d8d51 	.word	0x000d8d51
   d49a8:	2003d648 	.word	0x2003d648
   d49ac:	000d8f2c 	.word	0x000d8f2c
   d49b0:	2003d678 	.word	0x2003d678
   d49b4:	000d8f35 	.word	0x000d8f35
   d49b8:	000d8ee7 	.word	0x000d8ee7
   d49bc:	000d8f45 	.word	0x000d8f45
   d49c0:	000d8f5e 	.word	0x000d8f5e

000d49c4 <_Z7setBandi>:

//************************* Check band before sending to england
void setBand(int bandParameter) // 6
{                               //  Set RF Band
   d49c4:	b510      	push	{r4, lr}
   d49c6:	b088      	sub	sp, #32
   d49c8:	4604      	mov	r4, r0
  String reply;
   d49ca:	493b      	ldr	r1, [pc, #236]	; (d4ab8 <_Z7setBandi+0xf4>)
   d49cc:	4668      	mov	r0, sp
   d49ce:	f002 fdf6 	bl	d75be <_ZN6StringC1EPK19__FlashStringHelper>
  if (bandParameter == 0)
   d49d2:	b924      	cbnz	r4, d49de <_Z7setBandi+0x1a>
  {
    Serial1.printf("AT+BAND=915000000\r\n"); // united states
   d49d4:	f001 ffe2 	bl	d699c <_Z22__fetch_global_Serial1v>
   d49d8:	4938      	ldr	r1, [pc, #224]	; (d4abc <_Z7setBandi+0xf8>)
   d49da:	f7ff fdbd 	bl	d4558 <_ZN5Print6printfIIEEEjPKcDpT_>
  }
  else if (bandParameter == 1)
    ;
  {
    Serial1.printf("AT+BAND=868500000\r\n"); // europe
   d49de:	f001 ffdd 	bl	d699c <_Z22__fetch_global_Serial1v>
   d49e2:	4937      	ldr	r1, [pc, #220]	; (d4ac0 <_Z7setBandi+0xfc>)
   d49e4:	f7ff fdb8 	bl	d4558 <_ZN5Print6printfIIEEEjPKcDpT_>
  }

  delay(200);
   d49e8:	20c8      	movs	r0, #200	; 0xc8
   d49ea:	f002 fca1 	bl	d7330 <delay>
  if (Serial1.available() > 0)
   d49ee:	f001 ffd5 	bl	d699c <_Z22__fetch_global_Serial1v>
   d49f2:	6803      	ldr	r3, [r0, #0]
   d49f4:	691b      	ldr	r3, [r3, #16]
   d49f6:	4798      	blx	r3
   d49f8:	2800      	cmp	r0, #0
   d49fa:	dd21      	ble.n	d4a40 <_Z7setBandi+0x7c>
  {
    reply = Serial1.readStringUntil('\n');
   d49fc:	f001 ffce 	bl	d699c <_Z22__fetch_global_Serial1v>
   d4a00:	220a      	movs	r2, #10
   d4a02:	4601      	mov	r1, r0
   d4a04:	a804      	add	r0, sp, #16
   d4a06:	f002 fcc1 	bl	d738c <_ZN6Stream15readStringUntilEc>
   d4a0a:	a904      	add	r1, sp, #16
   d4a0c:	4668      	mov	r0, sp
   d4a0e:	f002 fe06 	bl	d761e <_ZN6StringaSEOS_>
   d4a12:	a804      	add	r0, sp, #16
   d4a14:	f002 fd8c 	bl	d7530 <_ZN6StringD1Ev>

    if (serialPrint)
   d4a18:	4b2a      	ldr	r3, [pc, #168]	; (d4ac4 <_Z7setBandi+0x100>)
   d4a1a:	781b      	ldrb	r3, [r3, #0]
   d4a1c:	b12b      	cbz	r3, d4a2a <_Z7setBandi+0x66>
    {
      Serial.printf(" reply: %s\n", reply.c_str()); //+BAND=" "
   d4a1e:	f002 f84d 	bl	d6abc <_Z16_fetch_usbserialv>
   d4a22:	9a00      	ldr	r2, [sp, #0]
   d4a24:	4928      	ldr	r1, [pc, #160]	; (d4ac8 <_Z7setBandi+0x104>)
   d4a26:	f7ff fcb7 	bl	d4398 <_ZN5Print6printfIIPKcEEEjS2_DpT_>
    }
    if (particlePublish)
   d4a2a:	4b28      	ldr	r3, [pc, #160]	; (d4acc <_Z7setBandi+0x108>)
   d4a2c:	781b      	ldrb	r3, [r3, #0]
   d4a2e:	b13b      	cbz	r3, d4a40 <_Z7setBandi+0x7c>
    {
      Particle.publish("setBand", reply);
   d4a30:	a804      	add	r0, sp, #16
   d4a32:	9a00      	ldr	r2, [sp, #0]
   d4a34:	4926      	ldr	r1, [pc, #152]	; (d4ad0 <_Z7setBandi+0x10c>)
   d4a36:	f7ff fb4b 	bl	d40d0 <_ZN10CloudClass7publishEPKcS1_.isra.7>
   d4a3a:	a805      	add	r0, sp, #20
   d4a3c:	f7ff fc96 	bl	d436c <_ZNSt14__shared_countILN9__gnu_cxx12_Lock_policyE0EED1Ev>
    }
  }
  if (askSetting)
   d4a40:	4b24      	ldr	r3, [pc, #144]	; (d4ad4 <_Z7setBandi+0x110>)
   d4a42:	781b      	ldrb	r3, [r3, #0]
   d4a44:	2b00      	cmp	r3, #0
   d4a46:	d032      	beq.n	d4aae <_Z7setBandi+0xea>
  {
    Serial1.printf("AT+BAND?\r\n"); // correct
   d4a48:	f001 ffa8 	bl	d699c <_Z22__fetch_global_Serial1v>
   d4a4c:	4922      	ldr	r1, [pc, #136]	; (d4ad8 <_Z7setBandi+0x114>)
   d4a4e:	f7ff fd83 	bl	d4558 <_ZN5Print6printfIIEEEjPKcDpT_>
    delay(200);
   d4a52:	20c8      	movs	r0, #200	; 0xc8
   d4a54:	f002 fc6c 	bl	d7330 <delay>
    if (Serial1.available() > 0)
   d4a58:	f001 ffa0 	bl	d699c <_Z22__fetch_global_Serial1v>
   d4a5c:	6803      	ldr	r3, [r0, #0]
   d4a5e:	691b      	ldr	r3, [r3, #16]
   d4a60:	4798      	blx	r3
   d4a62:	2800      	cmp	r0, #0
   d4a64:	dd23      	ble.n	d4aae <_Z7setBandi+0xea>
    {
      Serial.printf("Awaiting Reply\n");
   d4a66:	f002 f829 	bl	d6abc <_Z16_fetch_usbserialv>
   d4a6a:	491c      	ldr	r1, [pc, #112]	; (d4adc <_Z7setBandi+0x118>)
   d4a6c:	f7ff fd74 	bl	d4558 <_ZN5Print6printfIIEEEjPKcDpT_>
      reply = Serial1.readStringUntil('\n');
   d4a70:	f001 ff94 	bl	d699c <_Z22__fetch_global_Serial1v>
   d4a74:	220a      	movs	r2, #10
   d4a76:	4601      	mov	r1, r0
   d4a78:	a804      	add	r0, sp, #16
   d4a7a:	f002 fc87 	bl	d738c <_ZN6Stream15readStringUntilEc>
   d4a7e:	a904      	add	r1, sp, #16
   d4a80:	4668      	mov	r0, sp
   d4a82:	f002 fdcc 	bl	d761e <_ZN6StringaSEOS_>
   d4a86:	a804      	add	r0, sp, #16
   d4a88:	f002 fd52 	bl	d7530 <_ZN6StringD1Ev>
      Serial.printf("Reply AT+BAND?: %s\n", reply.c_str());
   d4a8c:	f002 f816 	bl	d6abc <_Z16_fetch_usbserialv>
   d4a90:	9a00      	ldr	r2, [sp, #0]
   d4a92:	4913      	ldr	r1, [pc, #76]	; (d4ae0 <_Z7setBandi+0x11c>)
   d4a94:	f7ff fc80 	bl	d4398 <_ZN5Print6printfIIPKcEEEjS2_DpT_>
      if (particlePublish)
   d4a98:	4b0c      	ldr	r3, [pc, #48]	; (d4acc <_Z7setBandi+0x108>)
   d4a9a:	781b      	ldrb	r3, [r3, #0]
   d4a9c:	b13b      	cbz	r3, d4aae <_Z7setBandi+0xea>
      {
        Particle.publish("AT+BAND?", reply);
   d4a9e:	a804      	add	r0, sp, #16
   d4aa0:	9a00      	ldr	r2, [sp, #0]
   d4aa2:	4910      	ldr	r1, [pc, #64]	; (d4ae4 <_Z7setBandi+0x120>)
   d4aa4:	f7ff fb14 	bl	d40d0 <_ZN10CloudClass7publishEPKcS1_.isra.7>
   d4aa8:	a805      	add	r0, sp, #20
   d4aaa:	f7ff fc5f 	bl	d436c <_ZNSt14__shared_countILN9__gnu_cxx12_Lock_policyE0EED1Ev>
}

//************************* Check band before sending to england
void setBand(int bandParameter) // 6
{                               //  Set RF Band
  String reply;
   d4aae:	4668      	mov	r0, sp
   d4ab0:	f002 fd3e 	bl	d7530 <_ZN6StringD1Ev>
      {
        Particle.publish("AT+BAND?", reply);
      }
    }
  }
}
   d4ab4:	b008      	add	sp, #32
   d4ab6:	bd10      	pop	{r4, pc}
   d4ab8:	000d8f7f 	.word	0x000d8f7f
   d4abc:	000d8f6c 	.word	0x000d8f6c
   d4ac0:	000d8f80 	.word	0x000d8f80
   d4ac4:	2003d63c 	.word	0x2003d63c
   d4ac8:	000d8d51 	.word	0x000d8d51
   d4acc:	2003d648 	.word	0x2003d648
   d4ad0:	000d8f94 	.word	0x000d8f94
   d4ad4:	2003d678 	.word	0x2003d678
   d4ad8:	000d8f9c 	.word	0x000d8f9c
   d4adc:	000d8ee7 	.word	0x000d8ee7
   d4ae0:	000d8fa7 	.word	0x000d8fa7
   d4ae4:	000d8fbb 	.word	0x000d8fbb

000d4ae8 <_Z7setCPINv>:
    }
  }
}

void setCPIN() // 9
{              //  set password
   d4ae8:	b500      	push	{lr}
   d4aea:	b08d      	sub	sp, #52	; 0x34
  String CPIN = "BA4104032968BA1114299079021594AA";
   d4aec:	493c      	ldr	r1, [pc, #240]	; (d4be0 <_Z7setCPINv+0xf8>)
   d4aee:	4668      	mov	r0, sp
   d4af0:	f002 fd65 	bl	d75be <_ZN6StringC1EPK19__FlashStringHelper>
  String reply;
   d4af4:	493b      	ldr	r1, [pc, #236]	; (d4be4 <_Z7setCPINv+0xfc>)
   d4af6:	a804      	add	r0, sp, #16
   d4af8:	f002 fd61 	bl	d75be <_ZN6StringC1EPK19__FlashStringHelper>
  Serial1.printf("AT+CPIN=%s\r\n", CPIN.c_str());
   d4afc:	f001 ff4e 	bl	d699c <_Z22__fetch_global_Serial1v>
   d4b00:	9a00      	ldr	r2, [sp, #0]
   d4b02:	4939      	ldr	r1, [pc, #228]	; (d4be8 <_Z7setCPINv+0x100>)
   d4b04:	f7ff fc48 	bl	d4398 <_ZN5Print6printfIIPKcEEEjS2_DpT_>
  delay(200);
   d4b08:	20c8      	movs	r0, #200	; 0xc8
   d4b0a:	f002 fc11 	bl	d7330 <delay>
  if (Serial1.available() > 0)
   d4b0e:	f001 ff45 	bl	d699c <_Z22__fetch_global_Serial1v>
   d4b12:	6803      	ldr	r3, [r0, #0]
   d4b14:	691b      	ldr	r3, [r3, #16]
   d4b16:	4798      	blx	r3
   d4b18:	2800      	cmp	r0, #0
   d4b1a:	dd21      	ble.n	d4b60 <_Z7setCPINv+0x78>
  {
    reply = Serial1.readStringUntil('\n');
   d4b1c:	f001 ff3e 	bl	d699c <_Z22__fetch_global_Serial1v>
   d4b20:	220a      	movs	r2, #10
   d4b22:	4601      	mov	r1, r0
   d4b24:	a808      	add	r0, sp, #32
   d4b26:	f002 fc31 	bl	d738c <_ZN6Stream15readStringUntilEc>
   d4b2a:	a908      	add	r1, sp, #32
   d4b2c:	a804      	add	r0, sp, #16
   d4b2e:	f002 fd76 	bl	d761e <_ZN6StringaSEOS_>
   d4b32:	a808      	add	r0, sp, #32
   d4b34:	f002 fcfc 	bl	d7530 <_ZN6StringD1Ev>

    if (serialPrint)
   d4b38:	4b2c      	ldr	r3, [pc, #176]	; (d4bec <_Z7setCPINv+0x104>)
   d4b3a:	781b      	ldrb	r3, [r3, #0]
   d4b3c:	b12b      	cbz	r3, d4b4a <_Z7setCPINv+0x62>
    {
      Serial.printf(" reply: %s\n", reply.c_str());
   d4b3e:	f001 ffbd 	bl	d6abc <_Z16_fetch_usbserialv>
   d4b42:	9a04      	ldr	r2, [sp, #16]
   d4b44:	492a      	ldr	r1, [pc, #168]	; (d4bf0 <_Z7setCPINv+0x108>)
   d4b46:	f7ff fc27 	bl	d4398 <_ZN5Print6printfIIPKcEEEjS2_DpT_>
    }
    if (particlePublish)
   d4b4a:	4b2a      	ldr	r3, [pc, #168]	; (d4bf4 <_Z7setCPINv+0x10c>)
   d4b4c:	781b      	ldrb	r3, [r3, #0]
   d4b4e:	b13b      	cbz	r3, d4b60 <_Z7setCPINv+0x78>
    {
      Particle.publish("setCPIN", reply);
   d4b50:	a808      	add	r0, sp, #32
   d4b52:	9a04      	ldr	r2, [sp, #16]
   d4b54:	4928      	ldr	r1, [pc, #160]	; (d4bf8 <_Z7setCPINv+0x110>)
   d4b56:	f7ff fabb 	bl	d40d0 <_ZN10CloudClass7publishEPKcS1_.isra.7>
   d4b5a:	a809      	add	r0, sp, #36	; 0x24
   d4b5c:	f7ff fc06 	bl	d436c <_ZNSt14__shared_countILN9__gnu_cxx12_Lock_policyE0EED1Ev>
    }
  }
  if (askSetting)
   d4b60:	4b26      	ldr	r3, [pc, #152]	; (d4bfc <_Z7setCPINv+0x114>)
   d4b62:	781b      	ldrb	r3, [r3, #0]
   d4b64:	2b00      	cmp	r3, #0
   d4b66:	d032      	beq.n	d4bce <_Z7setCPINv+0xe6>
  {
    Serial1.printf("AT+CPIN?\r\n");
   d4b68:	f001 ff18 	bl	d699c <_Z22__fetch_global_Serial1v>
   d4b6c:	4924      	ldr	r1, [pc, #144]	; (d4c00 <_Z7setCPINv+0x118>)
   d4b6e:	f7ff fcf3 	bl	d4558 <_ZN5Print6printfIIEEEjPKcDpT_>
    delay(200);
   d4b72:	20c8      	movs	r0, #200	; 0xc8
   d4b74:	f002 fbdc 	bl	d7330 <delay>
    if (Serial1.available() > 0)
   d4b78:	f001 ff10 	bl	d699c <_Z22__fetch_global_Serial1v>
   d4b7c:	6803      	ldr	r3, [r0, #0]
   d4b7e:	691b      	ldr	r3, [r3, #16]
   d4b80:	4798      	blx	r3
   d4b82:	2800      	cmp	r0, #0
   d4b84:	dd23      	ble.n	d4bce <_Z7setCPINv+0xe6>
    {
      Serial.printf("Awaiting Reply\n");
   d4b86:	f001 ff99 	bl	d6abc <_Z16_fetch_usbserialv>
   d4b8a:	491e      	ldr	r1, [pc, #120]	; (d4c04 <_Z7setCPINv+0x11c>)
   d4b8c:	f7ff fce4 	bl	d4558 <_ZN5Print6printfIIEEEjPKcDpT_>
      reply = Serial1.readStringUntil('\n');
   d4b90:	f001 ff04 	bl	d699c <_Z22__fetch_global_Serial1v>
   d4b94:	220a      	movs	r2, #10
   d4b96:	4601      	mov	r1, r0
   d4b98:	a808      	add	r0, sp, #32
   d4b9a:	f002 fbf7 	bl	d738c <_ZN6Stream15readStringUntilEc>
   d4b9e:	a908      	add	r1, sp, #32
   d4ba0:	a804      	add	r0, sp, #16
   d4ba2:	f002 fd3c 	bl	d761e <_ZN6StringaSEOS_>
   d4ba6:	a808      	add	r0, sp, #32
   d4ba8:	f002 fcc2 	bl	d7530 <_ZN6StringD1Ev>
      Serial.printf("Reply CPIN: %s\n", reply.c_str());
   d4bac:	f001 ff86 	bl	d6abc <_Z16_fetch_usbserialv>
   d4bb0:	9a04      	ldr	r2, [sp, #16]
   d4bb2:	4915      	ldr	r1, [pc, #84]	; (d4c08 <_Z7setCPINv+0x120>)
   d4bb4:	f7ff fbf0 	bl	d4398 <_ZN5Print6printfIIPKcEEEjS2_DpT_>
      if (particlePublish)
   d4bb8:	4b0e      	ldr	r3, [pc, #56]	; (d4bf4 <_Z7setCPINv+0x10c>)
   d4bba:	781b      	ldrb	r3, [r3, #0]
   d4bbc:	b13b      	cbz	r3, d4bce <_Z7setCPINv+0xe6>
      {
        Particle.publish("AT+CPIN?", reply);
   d4bbe:	a808      	add	r0, sp, #32
   d4bc0:	9a04      	ldr	r2, [sp, #16]
   d4bc2:	4912      	ldr	r1, [pc, #72]	; (d4c0c <_Z7setCPINv+0x124>)
   d4bc4:	f7ff fa84 	bl	d40d0 <_ZN10CloudClass7publishEPKcS1_.isra.7>
   d4bc8:	a809      	add	r0, sp, #36	; 0x24
   d4bca:	f7ff fbcf 	bl	d436c <_ZNSt14__shared_countILN9__gnu_cxx12_Lock_policyE0EED1Ev>
}

void setCPIN() // 9
{              //  set password
  String CPIN = "BA4104032968BA1114299079021594AA";
  String reply;
   d4bce:	a804      	add	r0, sp, #16
   d4bd0:	f002 fcae 	bl	d7530 <_ZN6StringD1Ev>
  }
}

void setCPIN() // 9
{              //  set password
  String CPIN = "BA4104032968BA1114299079021594AA";
   d4bd4:	4668      	mov	r0, sp
   d4bd6:	f002 fcab 	bl	d7530 <_ZN6StringD1Ev>
      {
        Particle.publish("AT+CPIN?", reply);
      }
    }
  }
}
   d4bda:	b00d      	add	sp, #52	; 0x34
   d4bdc:	f85d fb04 	ldr.w	pc, [sp], #4
   d4be0:	000d8fc4 	.word	0x000d8fc4
   d4be4:	000d8f7f 	.word	0x000d8f7f
   d4be8:	000d8fe5 	.word	0x000d8fe5
   d4bec:	2003d63c 	.word	0x2003d63c
   d4bf0:	000d8d51 	.word	0x000d8d51
   d4bf4:	2003d648 	.word	0x2003d648
   d4bf8:	000d8ff2 	.word	0x000d8ff2
   d4bfc:	2003d678 	.word	0x2003d678
   d4c00:	000d8ffa 	.word	0x000d8ffa
   d4c04:	000d8ee7 	.word	0x000d8ee7
   d4c08:	000d9005 	.word	0x000d9005
   d4c0c:	000d9015 	.word	0x000d9015

000d4c10 <_ZN5Print6printfIIiEEEjPKcDpT_>:
   d4c10:	4613      	mov	r3, r2
   d4c12:	460a      	mov	r2, r1
   d4c14:	2100      	movs	r1, #0
   d4c16:	f002 bc34 	b.w	d7482 <_ZN5Print11printf_implEbPKcz>
	...

000d4c1c <_Z6setIPRi>:
    }
  }
}

void setIPR(int _baudRate) // 4
{                          //  Set UART Baud rate
   d4c1c:	b510      	push	{r4, lr}
   d4c1e:	b088      	sub	sp, #32
  String reply;
   d4c20:	4939      	ldr	r1, [pc, #228]	; (d4d08 <_Z6setIPRi+0xec>)
    }
  }
}

void setIPR(int _baudRate) // 4
{                          //  Set UART Baud rate
   d4c22:	4604      	mov	r4, r0
  String reply;
   d4c24:	4668      	mov	r0, sp
   d4c26:	f002 fcca 	bl	d75be <_ZN6StringC1EPK19__FlashStringHelper>
  Serial1.printf("AT+IPR=%i\r\n", _baudRate);
   d4c2a:	f001 feb7 	bl	d699c <_Z22__fetch_global_Serial1v>
   d4c2e:	4622      	mov	r2, r4
   d4c30:	4936      	ldr	r1, [pc, #216]	; (d4d0c <_Z6setIPRi+0xf0>)
   d4c32:	f7ff ffed 	bl	d4c10 <_ZN5Print6printfIIiEEEjPKcDpT_>
  delay(200);
   d4c36:	20c8      	movs	r0, #200	; 0xc8
   d4c38:	f002 fb7a 	bl	d7330 <delay>
  if (Serial1.available() > 0)
   d4c3c:	f001 feae 	bl	d699c <_Z22__fetch_global_Serial1v>
   d4c40:	6803      	ldr	r3, [r0, #0]
   d4c42:	691b      	ldr	r3, [r3, #16]
   d4c44:	4798      	blx	r3
   d4c46:	2800      	cmp	r0, #0
   d4c48:	dd21      	ble.n	d4c8e <_Z6setIPRi+0x72>
  {
    reply = Serial1.readStringUntil('\n');
   d4c4a:	f001 fea7 	bl	d699c <_Z22__fetch_global_Serial1v>
   d4c4e:	220a      	movs	r2, #10
   d4c50:	4601      	mov	r1, r0
   d4c52:	a804      	add	r0, sp, #16
   d4c54:	f002 fb9a 	bl	d738c <_ZN6Stream15readStringUntilEc>
   d4c58:	a904      	add	r1, sp, #16
   d4c5a:	4668      	mov	r0, sp
   d4c5c:	f002 fcdf 	bl	d761e <_ZN6StringaSEOS_>
   d4c60:	a804      	add	r0, sp, #16
   d4c62:	f002 fc65 	bl	d7530 <_ZN6StringD1Ev>

    if (serialPrint)
   d4c66:	4b2a      	ldr	r3, [pc, #168]	; (d4d10 <_Z6setIPRi+0xf4>)
   d4c68:	781b      	ldrb	r3, [r3, #0]
   d4c6a:	b12b      	cbz	r3, d4c78 <_Z6setIPRi+0x5c>
    {
      Serial.printf(" reply: %s\n", reply.c_str()); //+OK
   d4c6c:	f001 ff26 	bl	d6abc <_Z16_fetch_usbserialv>
   d4c70:	9a00      	ldr	r2, [sp, #0]
   d4c72:	4928      	ldr	r1, [pc, #160]	; (d4d14 <_Z6setIPRi+0xf8>)
   d4c74:	f7ff fb90 	bl	d4398 <_ZN5Print6printfIIPKcEEEjS2_DpT_>
    }
    if (particlePublish)
   d4c78:	4b27      	ldr	r3, [pc, #156]	; (d4d18 <_Z6setIPRi+0xfc>)
   d4c7a:	781b      	ldrb	r3, [r3, #0]
   d4c7c:	b13b      	cbz	r3, d4c8e <_Z6setIPRi+0x72>
    {
      Particle.publish("setIPR", reply);
   d4c7e:	a804      	add	r0, sp, #16
   d4c80:	9a00      	ldr	r2, [sp, #0]
   d4c82:	4926      	ldr	r1, [pc, #152]	; (d4d1c <_Z6setIPRi+0x100>)
   d4c84:	f7ff fa24 	bl	d40d0 <_ZN10CloudClass7publishEPKcS1_.isra.7>
   d4c88:	a805      	add	r0, sp, #20
   d4c8a:	f7ff fb6f 	bl	d436c <_ZNSt14__shared_countILN9__gnu_cxx12_Lock_policyE0EED1Ev>
    }
  }
  if (askSetting)
   d4c8e:	4b24      	ldr	r3, [pc, #144]	; (d4d20 <_Z6setIPRi+0x104>)
   d4c90:	781b      	ldrb	r3, [r3, #0]
   d4c92:	2b00      	cmp	r3, #0
   d4c94:	d032      	beq.n	d4cfc <_Z6setIPRi+0xe0>
  {
    Serial1.printf("AT+IPR?\r\n"); // correct
   d4c96:	f001 fe81 	bl	d699c <_Z22__fetch_global_Serial1v>
   d4c9a:	4922      	ldr	r1, [pc, #136]	; (d4d24 <_Z6setIPRi+0x108>)
   d4c9c:	f7ff fc5c 	bl	d4558 <_ZN5Print6printfIIEEEjPKcDpT_>
    delay(200);
   d4ca0:	20c8      	movs	r0, #200	; 0xc8
   d4ca2:	f002 fb45 	bl	d7330 <delay>
    if (Serial1.available() > 0)
   d4ca6:	f001 fe79 	bl	d699c <_Z22__fetch_global_Serial1v>
   d4caa:	6803      	ldr	r3, [r0, #0]
   d4cac:	691b      	ldr	r3, [r3, #16]
   d4cae:	4798      	blx	r3
   d4cb0:	2800      	cmp	r0, #0
   d4cb2:	dd23      	ble.n	d4cfc <_Z6setIPRi+0xe0>
    {
      Serial.printf("Awaiting Reply\n");
   d4cb4:	f001 ff02 	bl	d6abc <_Z16_fetch_usbserialv>
   d4cb8:	491b      	ldr	r1, [pc, #108]	; (d4d28 <_Z6setIPRi+0x10c>)
   d4cba:	f7ff fc4d 	bl	d4558 <_ZN5Print6printfIIEEEjPKcDpT_>
      reply = Serial1.readStringUntil('\n');
   d4cbe:	f001 fe6d 	bl	d699c <_Z22__fetch_global_Serial1v>
   d4cc2:	220a      	movs	r2, #10
   d4cc4:	4601      	mov	r1, r0
   d4cc6:	a804      	add	r0, sp, #16
   d4cc8:	f002 fb60 	bl	d738c <_ZN6Stream15readStringUntilEc>
   d4ccc:	a904      	add	r1, sp, #16
   d4cce:	4668      	mov	r0, sp
   d4cd0:	f002 fca5 	bl	d761e <_ZN6StringaSEOS_>
   d4cd4:	a804      	add	r0, sp, #16
   d4cd6:	f002 fc2b 	bl	d7530 <_ZN6StringD1Ev>
      Serial.printf("Reply AT+IPR?: %s\n", reply.c_str());
   d4cda:	f001 feef 	bl	d6abc <_Z16_fetch_usbserialv>
   d4cde:	9a00      	ldr	r2, [sp, #0]
   d4ce0:	4912      	ldr	r1, [pc, #72]	; (d4d2c <_Z6setIPRi+0x110>)
   d4ce2:	f7ff fb59 	bl	d4398 <_ZN5Print6printfIIPKcEEEjS2_DpT_>
      if (particlePublish)
   d4ce6:	4b0c      	ldr	r3, [pc, #48]	; (d4d18 <_Z6setIPRi+0xfc>)
   d4ce8:	781b      	ldrb	r3, [r3, #0]
   d4cea:	b13b      	cbz	r3, d4cfc <_Z6setIPRi+0xe0>
      {
        Particle.publish("AT+IPR?", reply);
   d4cec:	a804      	add	r0, sp, #16
   d4cee:	9a00      	ldr	r2, [sp, #0]
   d4cf0:	490f      	ldr	r1, [pc, #60]	; (d4d30 <_Z6setIPRi+0x114>)
   d4cf2:	f7ff f9ed 	bl	d40d0 <_ZN10CloudClass7publishEPKcS1_.isra.7>
   d4cf6:	a805      	add	r0, sp, #20
   d4cf8:	f7ff fb38 	bl	d436c <_ZNSt14__shared_countILN9__gnu_cxx12_Lock_policyE0EED1Ev>
  }
}

void setIPR(int _baudRate) // 4
{                          //  Set UART Baud rate
  String reply;
   d4cfc:	4668      	mov	r0, sp
   d4cfe:	f002 fc17 	bl	d7530 <_ZN6StringD1Ev>
      {
        Particle.publish("AT+IPR?", reply);
      }
    }
  }
}
   d4d02:	b008      	add	sp, #32
   d4d04:	bd10      	pop	{r4, pc}
   d4d06:	bf00      	nop
   d4d08:	000d8f7f 	.word	0x000d8f7f
   d4d0c:	000d90c6 	.word	0x000d90c6
   d4d10:	2003d63c 	.word	0x2003d63c
   d4d14:	000d8d51 	.word	0x000d8d51
   d4d18:	2003d648 	.word	0x2003d648
   d4d1c:	000d90d2 	.word	0x000d90d2
   d4d20:	2003d678 	.word	0x2003d678
   d4d24:	000d90d9 	.word	0x000d90d9
   d4d28:	000d8ee7 	.word	0x000d8ee7
   d4d2c:	000d90e3 	.word	0x000d90e3
   d4d30:	000d90f6 	.word	0x000d90f6

000d4d34 <_Z10setAddressi>:
    }
  }
}

void setAddress(int address) // 7
{                            //  Set set module address
   d4d34:	b510      	push	{r4, lr}
   d4d36:	b088      	sub	sp, #32
  String reply;
   d4d38:	4939      	ldr	r1, [pc, #228]	; (d4e20 <_Z10setAddressi+0xec>)
    }
  }
}

void setAddress(int address) // 7
{                            //  Set set module address
   d4d3a:	4604      	mov	r4, r0
  String reply;
   d4d3c:	4668      	mov	r0, sp
   d4d3e:	f002 fc3e 	bl	d75be <_ZN6StringC1EPK19__FlashStringHelper>
  Serial1.printf("AT+ADDRESS=%i\r\n", address);
   d4d42:	f001 fe2b 	bl	d699c <_Z22__fetch_global_Serial1v>
   d4d46:	4622      	mov	r2, r4
   d4d48:	4936      	ldr	r1, [pc, #216]	; (d4e24 <_Z10setAddressi+0xf0>)
   d4d4a:	f7ff ff61 	bl	d4c10 <_ZN5Print6printfIIiEEEjPKcDpT_>
  delay(200);
   d4d4e:	20c8      	movs	r0, #200	; 0xc8
   d4d50:	f002 faee 	bl	d7330 <delay>
  if (Serial1.available() > 0)
   d4d54:	f001 fe22 	bl	d699c <_Z22__fetch_global_Serial1v>
   d4d58:	6803      	ldr	r3, [r0, #0]
   d4d5a:	691b      	ldr	r3, [r3, #16]
   d4d5c:	4798      	blx	r3
   d4d5e:	2800      	cmp	r0, #0
   d4d60:	dd21      	ble.n	d4da6 <_Z10setAddressi+0x72>
  {
    reply = Serial1.readStringUntil('\n');
   d4d62:	f001 fe1b 	bl	d699c <_Z22__fetch_global_Serial1v>
   d4d66:	220a      	movs	r2, #10
   d4d68:	4601      	mov	r1, r0
   d4d6a:	a804      	add	r0, sp, #16
   d4d6c:	f002 fb0e 	bl	d738c <_ZN6Stream15readStringUntilEc>
   d4d70:	a904      	add	r1, sp, #16
   d4d72:	4668      	mov	r0, sp
   d4d74:	f002 fc53 	bl	d761e <_ZN6StringaSEOS_>
   d4d78:	a804      	add	r0, sp, #16
   d4d7a:	f002 fbd9 	bl	d7530 <_ZN6StringD1Ev>

    if (serialPrint)
   d4d7e:	4b2a      	ldr	r3, [pc, #168]	; (d4e28 <_Z10setAddressi+0xf4>)
   d4d80:	781b      	ldrb	r3, [r3, #0]
   d4d82:	b12b      	cbz	r3, d4d90 <_Z10setAddressi+0x5c>
    {
      Serial.printf(" reply: %s\n", reply.c_str());
   d4d84:	f001 fe9a 	bl	d6abc <_Z16_fetch_usbserialv>
   d4d88:	9a00      	ldr	r2, [sp, #0]
   d4d8a:	4928      	ldr	r1, [pc, #160]	; (d4e2c <_Z10setAddressi+0xf8>)
   d4d8c:	f7ff fb04 	bl	d4398 <_ZN5Print6printfIIPKcEEEjS2_DpT_>
    }
    if (particlePublish)
   d4d90:	4b27      	ldr	r3, [pc, #156]	; (d4e30 <_Z10setAddressi+0xfc>)
   d4d92:	781b      	ldrb	r3, [r3, #0]
   d4d94:	b13b      	cbz	r3, d4da6 <_Z10setAddressi+0x72>
    {
      Particle.publish("setAddress", reply);
   d4d96:	a804      	add	r0, sp, #16
   d4d98:	9a00      	ldr	r2, [sp, #0]
   d4d9a:	4926      	ldr	r1, [pc, #152]	; (d4e34 <_Z10setAddressi+0x100>)
   d4d9c:	f7ff f998 	bl	d40d0 <_ZN10CloudClass7publishEPKcS1_.isra.7>
   d4da0:	a805      	add	r0, sp, #20
   d4da2:	f7ff fae3 	bl	d436c <_ZNSt14__shared_countILN9__gnu_cxx12_Lock_policyE0EED1Ev>
    }
  }
  if (askSetting)
   d4da6:	4b24      	ldr	r3, [pc, #144]	; (d4e38 <_Z10setAddressi+0x104>)
   d4da8:	781b      	ldrb	r3, [r3, #0]
   d4daa:	2b00      	cmp	r3, #0
   d4dac:	d032      	beq.n	d4e14 <_Z10setAddressi+0xe0>
  {
    Serial1.printf("AT+ADDRESS?\r\n"); // correct
   d4dae:	f001 fdf5 	bl	d699c <_Z22__fetch_global_Serial1v>
   d4db2:	4922      	ldr	r1, [pc, #136]	; (d4e3c <_Z10setAddressi+0x108>)
   d4db4:	f7ff fbd0 	bl	d4558 <_ZN5Print6printfIIEEEjPKcDpT_>
    delay(200);
   d4db8:	20c8      	movs	r0, #200	; 0xc8
   d4dba:	f002 fab9 	bl	d7330 <delay>
    if (Serial1.available() > 0)
   d4dbe:	f001 fded 	bl	d699c <_Z22__fetch_global_Serial1v>
   d4dc2:	6803      	ldr	r3, [r0, #0]
   d4dc4:	691b      	ldr	r3, [r3, #16]
   d4dc6:	4798      	blx	r3
   d4dc8:	2800      	cmp	r0, #0
   d4dca:	dd23      	ble.n	d4e14 <_Z10setAddressi+0xe0>
    {
      Serial.printf("Awaiting Reply\n");
   d4dcc:	f001 fe76 	bl	d6abc <_Z16_fetch_usbserialv>
   d4dd0:	491b      	ldr	r1, [pc, #108]	; (d4e40 <_Z10setAddressi+0x10c>)
   d4dd2:	f7ff fbc1 	bl	d4558 <_ZN5Print6printfIIEEEjPKcDpT_>
      reply = Serial1.readStringUntil('\n');
   d4dd6:	f001 fde1 	bl	d699c <_Z22__fetch_global_Serial1v>
   d4dda:	220a      	movs	r2, #10
   d4ddc:	4601      	mov	r1, r0
   d4dde:	a804      	add	r0, sp, #16
   d4de0:	f002 fad4 	bl	d738c <_ZN6Stream15readStringUntilEc>
   d4de4:	a904      	add	r1, sp, #16
   d4de6:	4668      	mov	r0, sp
   d4de8:	f002 fc19 	bl	d761e <_ZN6StringaSEOS_>
   d4dec:	a804      	add	r0, sp, #16
   d4dee:	f002 fb9f 	bl	d7530 <_ZN6StringD1Ev>
      Serial.printf("Reply get address: %s\n", reply.c_str());
   d4df2:	f001 fe63 	bl	d6abc <_Z16_fetch_usbserialv>
   d4df6:	9a00      	ldr	r2, [sp, #0]
   d4df8:	4912      	ldr	r1, [pc, #72]	; (d4e44 <_Z10setAddressi+0x110>)
   d4dfa:	f7ff facd 	bl	d4398 <_ZN5Print6printfIIPKcEEEjS2_DpT_>
      if (particlePublish)
   d4dfe:	4b0c      	ldr	r3, [pc, #48]	; (d4e30 <_Z10setAddressi+0xfc>)
   d4e00:	781b      	ldrb	r3, [r3, #0]
   d4e02:	b13b      	cbz	r3, d4e14 <_Z10setAddressi+0xe0>
      {
        Particle.publish("AT+ADDRESS?", reply);
   d4e04:	a804      	add	r0, sp, #16
   d4e06:	9a00      	ldr	r2, [sp, #0]
   d4e08:	490f      	ldr	r1, [pc, #60]	; (d4e48 <_Z10setAddressi+0x114>)
   d4e0a:	f7ff f961 	bl	d40d0 <_ZN10CloudClass7publishEPKcS1_.isra.7>
   d4e0e:	a805      	add	r0, sp, #20
   d4e10:	f7ff faac 	bl	d436c <_ZNSt14__shared_countILN9__gnu_cxx12_Lock_policyE0EED1Ev>
  }
}

void setAddress(int address) // 7
{                            //  Set set module address
  String reply;
   d4e14:	4668      	mov	r0, sp
   d4e16:	f002 fb8b 	bl	d7530 <_ZN6StringD1Ev>
      {
        Particle.publish("AT+ADDRESS?", reply);
      }
    }
  }
}
   d4e1a:	b008      	add	sp, #32
   d4e1c:	bd10      	pop	{r4, pc}
   d4e1e:	bf00      	nop
   d4e20:	000d8f7f 	.word	0x000d8f7f
   d4e24:	000d90fe 	.word	0x000d90fe
   d4e28:	2003d63c 	.word	0x2003d63c
   d4e2c:	000d8d51 	.word	0x000d8d51
   d4e30:	2003d648 	.word	0x2003d648
   d4e34:	000d910e 	.word	0x000d910e
   d4e38:	2003d678 	.word	0x2003d678
   d4e3c:	000d9119 	.word	0x000d9119
   d4e40:	000d8ee7 	.word	0x000d8ee7
   d4e44:	000d9127 	.word	0x000d9127
   d4e48:	000d913e 	.word	0x000d913e

000d4e4c <_Z12setNetworkIDi>:

void setNetworkID(int networkID) // 8
{                                //  Set set module network ID
   d4e4c:	b510      	push	{r4, lr}
   d4e4e:	b088      	sub	sp, #32
  String reply;
   d4e50:	4939      	ldr	r1, [pc, #228]	; (d4f38 <_Z12setNetworkIDi+0xec>)
    }
  }
}

void setNetworkID(int networkID) // 8
{                                //  Set set module network ID
   d4e52:	4604      	mov	r4, r0
  String reply;
   d4e54:	4668      	mov	r0, sp
   d4e56:	f002 fbb2 	bl	d75be <_ZN6StringC1EPK19__FlashStringHelper>
  Serial1.printf("AT+NETWORKID=%i\r\n", networkID);
   d4e5a:	f001 fd9f 	bl	d699c <_Z22__fetch_global_Serial1v>
   d4e5e:	4622      	mov	r2, r4
   d4e60:	4936      	ldr	r1, [pc, #216]	; (d4f3c <_Z12setNetworkIDi+0xf0>)
   d4e62:	f7ff fed5 	bl	d4c10 <_ZN5Print6printfIIiEEEjPKcDpT_>
  delay(200);
   d4e66:	20c8      	movs	r0, #200	; 0xc8
   d4e68:	f002 fa62 	bl	d7330 <delay>
  if (Serial1.available() > 0)
   d4e6c:	f001 fd96 	bl	d699c <_Z22__fetch_global_Serial1v>
   d4e70:	6803      	ldr	r3, [r0, #0]
   d4e72:	691b      	ldr	r3, [r3, #16]
   d4e74:	4798      	blx	r3
   d4e76:	2800      	cmp	r0, #0
   d4e78:	dd21      	ble.n	d4ebe <_Z12setNetworkIDi+0x72>
  {
    reply = Serial1.readStringUntil('\n');
   d4e7a:	f001 fd8f 	bl	d699c <_Z22__fetch_global_Serial1v>
   d4e7e:	220a      	movs	r2, #10
   d4e80:	4601      	mov	r1, r0
   d4e82:	a804      	add	r0, sp, #16
   d4e84:	f002 fa82 	bl	d738c <_ZN6Stream15readStringUntilEc>
   d4e88:	a904      	add	r1, sp, #16
   d4e8a:	4668      	mov	r0, sp
   d4e8c:	f002 fbc7 	bl	d761e <_ZN6StringaSEOS_>
   d4e90:	a804      	add	r0, sp, #16
   d4e92:	f002 fb4d 	bl	d7530 <_ZN6StringD1Ev>

    if (serialPrint)
   d4e96:	4b2a      	ldr	r3, [pc, #168]	; (d4f40 <_Z12setNetworkIDi+0xf4>)
   d4e98:	781b      	ldrb	r3, [r3, #0]
   d4e9a:	b12b      	cbz	r3, d4ea8 <_Z12setNetworkIDi+0x5c>
    {
      Serial.printf(" reply: %s\n", reply.c_str()); //+BAND=" "
   d4e9c:	f001 fe0e 	bl	d6abc <_Z16_fetch_usbserialv>
   d4ea0:	9a00      	ldr	r2, [sp, #0]
   d4ea2:	4928      	ldr	r1, [pc, #160]	; (d4f44 <_Z12setNetworkIDi+0xf8>)
   d4ea4:	f7ff fa78 	bl	d4398 <_ZN5Print6printfIIPKcEEEjS2_DpT_>
    }
    if (particlePublish)
   d4ea8:	4b27      	ldr	r3, [pc, #156]	; (d4f48 <_Z12setNetworkIDi+0xfc>)
   d4eaa:	781b      	ldrb	r3, [r3, #0]
   d4eac:	b13b      	cbz	r3, d4ebe <_Z12setNetworkIDi+0x72>
    {
      Particle.publish("setAddress", reply);
   d4eae:	a804      	add	r0, sp, #16
   d4eb0:	9a00      	ldr	r2, [sp, #0]
   d4eb2:	4926      	ldr	r1, [pc, #152]	; (d4f4c <_Z12setNetworkIDi+0x100>)
   d4eb4:	f7ff f90c 	bl	d40d0 <_ZN10CloudClass7publishEPKcS1_.isra.7>
   d4eb8:	a805      	add	r0, sp, #20
   d4eba:	f7ff fa57 	bl	d436c <_ZNSt14__shared_countILN9__gnu_cxx12_Lock_policyE0EED1Ev>
    }
  }
  if (askSetting)
   d4ebe:	4b24      	ldr	r3, [pc, #144]	; (d4f50 <_Z12setNetworkIDi+0x104>)
   d4ec0:	781b      	ldrb	r3, [r3, #0]
   d4ec2:	2b00      	cmp	r3, #0
   d4ec4:	d032      	beq.n	d4f2c <_Z12setNetworkIDi+0xe0>
  {
    Serial1.printf("AT+NETWORKID?\r\n");
   d4ec6:	f001 fd69 	bl	d699c <_Z22__fetch_global_Serial1v>
   d4eca:	4922      	ldr	r1, [pc, #136]	; (d4f54 <_Z12setNetworkIDi+0x108>)
   d4ecc:	f7ff fb44 	bl	d4558 <_ZN5Print6printfIIEEEjPKcDpT_>
    delay(200);
   d4ed0:	20c8      	movs	r0, #200	; 0xc8
   d4ed2:	f002 fa2d 	bl	d7330 <delay>
    if (Serial1.available() > 0)
   d4ed6:	f001 fd61 	bl	d699c <_Z22__fetch_global_Serial1v>
   d4eda:	6803      	ldr	r3, [r0, #0]
   d4edc:	691b      	ldr	r3, [r3, #16]
   d4ede:	4798      	blx	r3
   d4ee0:	2800      	cmp	r0, #0
   d4ee2:	dd23      	ble.n	d4f2c <_Z12setNetworkIDi+0xe0>
    {
      Serial.printf("Awaiting Reply\n");
   d4ee4:	f001 fdea 	bl	d6abc <_Z16_fetch_usbserialv>
   d4ee8:	491b      	ldr	r1, [pc, #108]	; (d4f58 <_Z12setNetworkIDi+0x10c>)
   d4eea:	f7ff fb35 	bl	d4558 <_ZN5Print6printfIIEEEjPKcDpT_>
      reply = Serial1.readStringUntil('\n');
   d4eee:	f001 fd55 	bl	d699c <_Z22__fetch_global_Serial1v>
   d4ef2:	220a      	movs	r2, #10
   d4ef4:	4601      	mov	r1, r0
   d4ef6:	a804      	add	r0, sp, #16
   d4ef8:	f002 fa48 	bl	d738c <_ZN6Stream15readStringUntilEc>
   d4efc:	a904      	add	r1, sp, #16
   d4efe:	4668      	mov	r0, sp
   d4f00:	f002 fb8d 	bl	d761e <_ZN6StringaSEOS_>
   d4f04:	a804      	add	r0, sp, #16
   d4f06:	f002 fb13 	bl	d7530 <_ZN6StringD1Ev>
      Serial.printf("Reply AT+NETWORKID? %s\n", reply.c_str());
   d4f0a:	f001 fdd7 	bl	d6abc <_Z16_fetch_usbserialv>
   d4f0e:	9a00      	ldr	r2, [sp, #0]
   d4f10:	4912      	ldr	r1, [pc, #72]	; (d4f5c <_Z12setNetworkIDi+0x110>)
   d4f12:	f7ff fa41 	bl	d4398 <_ZN5Print6printfIIPKcEEEjS2_DpT_>
      if (particlePublish)
   d4f16:	4b0c      	ldr	r3, [pc, #48]	; (d4f48 <_Z12setNetworkIDi+0xfc>)
   d4f18:	781b      	ldrb	r3, [r3, #0]
   d4f1a:	b13b      	cbz	r3, d4f2c <_Z12setNetworkIDi+0xe0>
      {
        Particle.publish("AT+NETWORKID?", reply);
   d4f1c:	a804      	add	r0, sp, #16
   d4f1e:	9a00      	ldr	r2, [sp, #0]
   d4f20:	490f      	ldr	r1, [pc, #60]	; (d4f60 <_Z12setNetworkIDi+0x114>)
   d4f22:	f7ff f8d5 	bl	d40d0 <_ZN10CloudClass7publishEPKcS1_.isra.7>
   d4f26:	a805      	add	r0, sp, #20
   d4f28:	f7ff fa20 	bl	d436c <_ZNSt14__shared_countILN9__gnu_cxx12_Lock_policyE0EED1Ev>
  }
}

void setNetworkID(int networkID) // 8
{                                //  Set set module network ID
  String reply;
   d4f2c:	4668      	mov	r0, sp
   d4f2e:	f002 faff 	bl	d7530 <_ZN6StringD1Ev>
      {
        Particle.publish("AT+NETWORKID?", reply);
      }
    }
  }
}
   d4f32:	b008      	add	sp, #32
   d4f34:	bd10      	pop	{r4, pc}
   d4f36:	bf00      	nop
   d4f38:	000d8f7f 	.word	0x000d8f7f
   d4f3c:	000d914a 	.word	0x000d914a
   d4f40:	2003d63c 	.word	0x2003d63c
   d4f44:	000d8d51 	.word	0x000d8d51
   d4f48:	2003d648 	.word	0x2003d648
   d4f4c:	000d910e 	.word	0x000d910e
   d4f50:	2003d678 	.word	0x2003d678
   d4f54:	000d915c 	.word	0x000d915c
   d4f58:	000d8ee7 	.word	0x000d8ee7
   d4f5c:	000d916c 	.word	0x000d916c
   d4f60:	000d9184 	.word	0x000d9184

000d4f64 <_Z8setCRFOPi>:
    }
  }
}

void setCRFOP(int outputPower) // 10
{                              //  set RF output power
   d4f64:	b510      	push	{r4, lr}
   d4f66:	b088      	sub	sp, #32
  String reply;
   d4f68:	4939      	ldr	r1, [pc, #228]	; (d5050 <_Z8setCRFOPi+0xec>)
    }
  }
}

void setCRFOP(int outputPower) // 10
{                              //  set RF output power
   d4f6a:	4604      	mov	r4, r0
  String reply;
   d4f6c:	4668      	mov	r0, sp
   d4f6e:	f002 fb26 	bl	d75be <_ZN6StringC1EPK19__FlashStringHelper>
  Serial1.printf("AT+CRFOP=%i\r\n", outputPower);
   d4f72:	f001 fd13 	bl	d699c <_Z22__fetch_global_Serial1v>
   d4f76:	4622      	mov	r2, r4
   d4f78:	4936      	ldr	r1, [pc, #216]	; (d5054 <_Z8setCRFOPi+0xf0>)
   d4f7a:	f7ff fe49 	bl	d4c10 <_ZN5Print6printfIIiEEEjPKcDpT_>
  delay(200);
   d4f7e:	20c8      	movs	r0, #200	; 0xc8
   d4f80:	f002 f9d6 	bl	d7330 <delay>
  if (Serial1.available() > 0)
   d4f84:	f001 fd0a 	bl	d699c <_Z22__fetch_global_Serial1v>
   d4f88:	6803      	ldr	r3, [r0, #0]
   d4f8a:	691b      	ldr	r3, [r3, #16]
   d4f8c:	4798      	blx	r3
   d4f8e:	2800      	cmp	r0, #0
   d4f90:	dd21      	ble.n	d4fd6 <_Z8setCRFOPi+0x72>
  {
    reply = Serial1.readStringUntil('\n');
   d4f92:	f001 fd03 	bl	d699c <_Z22__fetch_global_Serial1v>
   d4f96:	220a      	movs	r2, #10
   d4f98:	4601      	mov	r1, r0
   d4f9a:	a804      	add	r0, sp, #16
   d4f9c:	f002 f9f6 	bl	d738c <_ZN6Stream15readStringUntilEc>
   d4fa0:	a904      	add	r1, sp, #16
   d4fa2:	4668      	mov	r0, sp
   d4fa4:	f002 fb3b 	bl	d761e <_ZN6StringaSEOS_>
   d4fa8:	a804      	add	r0, sp, #16
   d4faa:	f002 fac1 	bl	d7530 <_ZN6StringD1Ev>

    if (serialPrint)
   d4fae:	4b2a      	ldr	r3, [pc, #168]	; (d5058 <_Z8setCRFOPi+0xf4>)
   d4fb0:	781b      	ldrb	r3, [r3, #0]
   d4fb2:	b12b      	cbz	r3, d4fc0 <_Z8setCRFOPi+0x5c>
    {
      Serial.printf(" reply: %s\n", reply.c_str());
   d4fb4:	f001 fd82 	bl	d6abc <_Z16_fetch_usbserialv>
   d4fb8:	9a00      	ldr	r2, [sp, #0]
   d4fba:	4928      	ldr	r1, [pc, #160]	; (d505c <_Z8setCRFOPi+0xf8>)
   d4fbc:	f7ff f9ec 	bl	d4398 <_ZN5Print6printfIIPKcEEEjS2_DpT_>
    }
    if (particlePublish)
   d4fc0:	4b27      	ldr	r3, [pc, #156]	; (d5060 <_Z8setCRFOPi+0xfc>)
   d4fc2:	781b      	ldrb	r3, [r3, #0]
   d4fc4:	b13b      	cbz	r3, d4fd6 <_Z8setCRFOPi+0x72>
    {
      Particle.publish("AT+CRFOP", reply);
   d4fc6:	a804      	add	r0, sp, #16
   d4fc8:	9a00      	ldr	r2, [sp, #0]
   d4fca:	4926      	ldr	r1, [pc, #152]	; (d5064 <_Z8setCRFOPi+0x100>)
   d4fcc:	f7ff f880 	bl	d40d0 <_ZN10CloudClass7publishEPKcS1_.isra.7>
   d4fd0:	a805      	add	r0, sp, #20
   d4fd2:	f7ff f9cb 	bl	d436c <_ZNSt14__shared_countILN9__gnu_cxx12_Lock_policyE0EED1Ev>
    }
  }
  if (askSetting)
   d4fd6:	4b24      	ldr	r3, [pc, #144]	; (d5068 <_Z8setCRFOPi+0x104>)
   d4fd8:	781b      	ldrb	r3, [r3, #0]
   d4fda:	2b00      	cmp	r3, #0
   d4fdc:	d032      	beq.n	d5044 <_Z8setCRFOPi+0xe0>
  {
    Serial1.printf("AT+CRFOP?\r\n");
   d4fde:	f001 fcdd 	bl	d699c <_Z22__fetch_global_Serial1v>
   d4fe2:	4922      	ldr	r1, [pc, #136]	; (d506c <_Z8setCRFOPi+0x108>)
   d4fe4:	f7ff fab8 	bl	d4558 <_ZN5Print6printfIIEEEjPKcDpT_>
    delay(200);
   d4fe8:	20c8      	movs	r0, #200	; 0xc8
   d4fea:	f002 f9a1 	bl	d7330 <delay>
    if (Serial1.available() > 0)
   d4fee:	f001 fcd5 	bl	d699c <_Z22__fetch_global_Serial1v>
   d4ff2:	6803      	ldr	r3, [r0, #0]
   d4ff4:	691b      	ldr	r3, [r3, #16]
   d4ff6:	4798      	blx	r3
   d4ff8:	2800      	cmp	r0, #0
   d4ffa:	dd23      	ble.n	d5044 <_Z8setCRFOPi+0xe0>
    {
      Serial.printf("Awaiting Reply\n");
   d4ffc:	f001 fd5e 	bl	d6abc <_Z16_fetch_usbserialv>
   d5000:	491b      	ldr	r1, [pc, #108]	; (d5070 <_Z8setCRFOPi+0x10c>)
   d5002:	f7ff faa9 	bl	d4558 <_ZN5Print6printfIIEEEjPKcDpT_>
      reply = Serial1.readStringUntil('\n');
   d5006:	f001 fcc9 	bl	d699c <_Z22__fetch_global_Serial1v>
   d500a:	220a      	movs	r2, #10
   d500c:	4601      	mov	r1, r0
   d500e:	a804      	add	r0, sp, #16
   d5010:	f002 f9bc 	bl	d738c <_ZN6Stream15readStringUntilEc>
   d5014:	a904      	add	r1, sp, #16
   d5016:	4668      	mov	r0, sp
   d5018:	f002 fb01 	bl	d761e <_ZN6StringaSEOS_>
   d501c:	a804      	add	r0, sp, #16
   d501e:	f002 fa87 	bl	d7530 <_ZN6StringD1Ev>
      Serial.printf("Reply AT+CRFOP?: %s\n", reply.c_str());
   d5022:	f001 fd4b 	bl	d6abc <_Z16_fetch_usbserialv>
   d5026:	9a00      	ldr	r2, [sp, #0]
   d5028:	4912      	ldr	r1, [pc, #72]	; (d5074 <_Z8setCRFOPi+0x110>)
   d502a:	f7ff f9b5 	bl	d4398 <_ZN5Print6printfIIPKcEEEjS2_DpT_>
      if (particlePublish)
   d502e:	4b0c      	ldr	r3, [pc, #48]	; (d5060 <_Z8setCRFOPi+0xfc>)
   d5030:	781b      	ldrb	r3, [r3, #0]
   d5032:	b13b      	cbz	r3, d5044 <_Z8setCRFOPi+0xe0>
      {
        Particle.publish("AT+CRFOP?", reply);
   d5034:	a804      	add	r0, sp, #16
   d5036:	9a00      	ldr	r2, [sp, #0]
   d5038:	490f      	ldr	r1, [pc, #60]	; (d5078 <_Z8setCRFOPi+0x114>)
   d503a:	f7ff f849 	bl	d40d0 <_ZN10CloudClass7publishEPKcS1_.isra.7>
   d503e:	a805      	add	r0, sp, #20
   d5040:	f7ff f994 	bl	d436c <_ZNSt14__shared_countILN9__gnu_cxx12_Lock_policyE0EED1Ev>
  }
}

void setCRFOP(int outputPower) // 10
{                              //  set RF output power
  String reply;
   d5044:	4668      	mov	r0, sp
   d5046:	f002 fa73 	bl	d7530 <_ZN6StringD1Ev>
      {
        Particle.publish("AT+CRFOP?", reply);
      }
    }
  }
}
   d504a:	b008      	add	sp, #32
   d504c:	bd10      	pop	{r4, pc}
   d504e:	bf00      	nop
   d5050:	000d8f7f 	.word	0x000d8f7f
   d5054:	000d9192 	.word	0x000d9192
   d5058:	2003d63c 	.word	0x2003d63c
   d505c:	000d8d51 	.word	0x000d8d51
   d5060:	2003d648 	.word	0x2003d648
   d5064:	000d91a0 	.word	0x000d91a0
   d5068:	2003d678 	.word	0x2003d678
   d506c:	000d91a9 	.word	0x000d91a9
   d5070:	000d8ee7 	.word	0x000d8ee7
   d5074:	000d91b5 	.word	0x000d91b5
   d5078:	000d91ca 	.word	0x000d91ca

000d507c <_Z10radioSetupv>:
    }
  }
}

void radioSetup()
{
   d507c:	b508      	push	{r3, lr}
  setMode(0); // turn on transmit and receive mode
   d507e:	2000      	movs	r0, #0
   d5080:	f7ff fafc 	bl	d467c <_Z7setModei>
  atTest();
   d5084:	f7ff fab6 	bl	d45f4 <_Z6atTestv>
  setAddress(address); // between 0-65535
   d5088:	4b0d      	ldr	r3, [pc, #52]	; (d50c0 <_Z10radioSetupv+0x44>)
   d508a:	6818      	ldr	r0, [r3, #0]
   d508c:	f7ff fe52 	bl	d4d34 <_Z10setAddressi>
  setNetworkID(networkID);
   d5090:	4b0c      	ldr	r3, [pc, #48]	; (d50c4 <_Z10radioSetupv+0x48>)
   d5092:	6818      	ldr	r0, [r3, #0]
   d5094:	f7ff feda 	bl	d4e4c <_Z12setNetworkIDi>
  setBand(bandParameter);
   d5098:	4b0b      	ldr	r3, [pc, #44]	; (d50c8 <_Z10radioSetupv+0x4c>)
   d509a:	6818      	ldr	r0, [r3, #0]
   d509c:	f7ff fc92 	bl	d49c4 <_Z7setBandi>
  setParameter(radioParameter);
   d50a0:	4b0a      	ldr	r3, [pc, #40]	; (d50cc <_Z10radioSetupv+0x50>)
   d50a2:	6818      	ldr	r0, [r3, #0]
   d50a4:	f7ff fc04 	bl	d48b0 <_Z12setParameteri>
  setIPR(baudRate);
   d50a8:	4b09      	ldr	r3, [pc, #36]	; (d50d0 <_Z10radioSetupv+0x54>)
   d50aa:	6818      	ldr	r0, [r3, #0]
   d50ac:	f7ff fdb6 	bl	d4c1c <_Z6setIPRi>
  setCRFOP(outputPower);
   d50b0:	4b08      	ldr	r3, [pc, #32]	; (d50d4 <_Z10radioSetupv+0x58>)
   d50b2:	6818      	ldr	r0, [r3, #0]
   d50b4:	f7ff ff56 	bl	d4f64 <_Z8setCRFOPi>
  setCPIN();
}
   d50b8:	e8bd 4008 	ldmia.w	sp!, {r3, lr}
  setNetworkID(networkID);
  setBand(bandParameter);
  setParameter(radioParameter);
  setIPR(baudRate);
  setCRFOP(outputPower);
  setCPIN();
   d50bc:	f7ff bd14 	b.w	d4ae8 <_Z7setCPINv>
   d50c0:	2003d3d8 	.word	0x2003d3d8
   d50c4:	2003d3e8 	.word	0x2003d3e8
   d50c8:	2003d654 	.word	0x2003d654
   d50cc:	2003d644 	.word	0x2003d644
   d50d0:	2003d3dc 	.word	0x2003d3dc
   d50d4:	2003d3e4 	.word	0x2003d3e4

000d50d8 <setup>:
int lowPowerTime = 30; // number of minutes

SYSTEM_MODE(SEMI_AUTOMATIC);

void setup()
{
   d50d8:	e92d 41f0 	stmdb	sp!, {r4, r5, r6, r7, r8, lr}
  RGB.control(TRUE);
   d50dc:	2001      	movs	r0, #1
  RGB.brightness(10);
  switch (probeNumber)
   d50de:	4f54      	ldr	r7, [pc, #336]	; (d5230 <setup+0x158>)

SYSTEM_MODE(SEMI_AUTOMATIC);

void setup()
{
  RGB.control(TRUE);
   d50e0:	f002 f8e6 	bl	d72b0 <_ZN8RGBClass7controlEb>
  RGB.brightness(10);
   d50e4:	2101      	movs	r1, #1
   d50e6:	200a      	movs	r0, #10
   d50e8:	f002 f905 	bl	d72f6 <_ZN8RGBClass10brightnessEhb>
  switch (probeNumber)
   d50ec:	683b      	ldr	r3, [r7, #0]
   d50ee:	2b07      	cmp	r3, #7
   d50f0:	d825      	bhi.n	d513e <setup+0x66>
   d50f2:	e8df f003 	tbb	[pc, r3]
   d50f6:	0804      	.short	0x0804
   d50f8:	1915120e 	.word	0x1915120e
   d50fc:	211d      	.short	0x211d
  {
  case 0:
    RGB.color(255, 255, 255); // 
   d50fe:	22ff      	movs	r2, #255	; 0xff
   d5100:	4611      	mov	r1, r2
   d5102:	4610      	mov	r0, r2
   d5104:	e002      	b.n	d510c <setup+0x34>
    break;
  case 1:
    RGB.color(0, 0, 255); // blue!
   d5106:	22ff      	movs	r2, #255	; 0xff
   d5108:	2100      	movs	r1, #0
   d510a:	4608      	mov	r0, r1
   d510c:	f002 f8e0 	bl	d72d0 <_ZN8RGBClass5colorEiii>
    break;
   d5110:	e018      	b.n	d5144 <setup+0x6c>
  case 2:
    RGB.color(25, 255, 88); // green!
   d5112:	2258      	movs	r2, #88	; 0x58
   d5114:	21ff      	movs	r1, #255	; 0xff
   d5116:	2019      	movs	r0, #25
   d5118:	e7f8      	b.n	d510c <setup+0x34>
    break;
  case 3:
    RGB.color(255, 69, 0); // orange!
   d511a:	2200      	movs	r2, #0
   d511c:	2145      	movs	r1, #69	; 0x45
   d511e:	e005      	b.n	d512c <setup+0x54>
    break;
  case 4:
    RGB.color(160, 32, 240); // purple!
   d5120:	22f0      	movs	r2, #240	; 0xf0
   d5122:	2120      	movs	r1, #32
   d5124:	20a0      	movs	r0, #160	; 0xa0
   d5126:	e7f1      	b.n	d510c <setup+0x34>
    break;
  case 5:
    RGB.color(255, 0, 0); // red!
   d5128:	2200      	movs	r2, #0
   d512a:	4611      	mov	r1, r2
   d512c:	20ff      	movs	r0, #255	; 0xff
   d512e:	e7ed      	b.n	d510c <setup+0x34>
    break;
  case 6:
    RGB.color(115, 147, 179); // grey!
   d5130:	22b3      	movs	r2, #179	; 0xb3
   d5132:	2193      	movs	r1, #147	; 0x93
   d5134:	2073      	movs	r0, #115	; 0x73
   d5136:	e7e9      	b.n	d510c <setup+0x34>
    break;
  case 7:
    RGB.color(255, 255, 0); // yellow
   d5138:	2200      	movs	r2, #0
   d513a:	21ff      	movs	r1, #255	; 0xff
   d513c:	e7e5      	b.n	d510a <setup+0x32>
    break;
  default:
    RGB.control(FALSE);
   d513e:	2000      	movs	r0, #0
   d5140:	f002 f8b6 	bl	d72b0 <_ZN8RGBClass7controlEb>
    break;
  }
  Serial.begin(9600);
   d5144:	f001 fcba 	bl	d6abc <_Z16_fetch_usbserialv>
   d5148:	f44f 5116 	mov.w	r1, #9600	; 0x2580
   d514c:	f001 fcaa 	bl	d6aa4 <_ZN9USBSerial5beginEl>
  Serial1.begin(115200);
   d5150:	f001 fc24 	bl	d699c <_Z22__fetch_global_Serial1v>
   d5154:	f44f 31e1 	mov.w	r1, #115200	; 0x1c200
   d5158:	f001 fc1a 	bl	d6990 <_ZN11USARTSerial5beginEm>
  delay(1000);
   d515c:	f44f 707a 	mov.w	r0, #1000	; 0x3e8
   d5160:	f002 f8e6 	bl	d7330 <delay>
  pinMode(THERMISTORPIN, INPUT);
   d5164:	2100      	movs	r1, #0
   d5166:	2013      	movs	r0, #19
   d5168:	f002 fbf8 	bl	d795c <pinMode>

  serialPrint = true;      // serial print to screen
   d516c:	4b31      	ldr	r3, [pc, #196]	; (d5234 <setup+0x15c>)
        return true;
    }

    // Setters
    SystemSleepConfiguration& mode(SystemSleepMode mode) {
        if (valid_) {
   d516e:	4c32      	ldr	r4, [pc, #200]	; (d5238 <setup+0x160>)
   d5170:	2201      	movs	r2, #1
   d5172:	701a      	strb	r2, [r3, #0]
  particlePublish = false; // publish to particle cloud
   d5174:	4a31      	ldr	r2, [pc, #196]	; (d523c <setup+0x164>)
   d5176:	2300      	movs	r3, #0
   d5178:	7013      	strb	r3, [r2, #0]
  askSetting = false;      // ask lora setting values
   d517a:	4a31      	ldr	r2, [pc, #196]	; (d5240 <setup+0x168>)
   d517c:	7013      	strb	r3, [r2, #0]
  // serialPrint = true;     // serial print to screen
  // particlePublish = false; // publish to particle cloud
  // askSetting = true;      // ask lora setting values

  // FACTORY(); // set lora module to factory defaults
  atTest();
   d517e:	f7ff fa39 	bl	d45f4 <_Z6atTestv>
  radioSetup(); // start lora module
   d5182:	f7ff ff7b 	bl	d507c <_Z10radioSetupv>
   d5186:	7d23      	ldrb	r3, [r4, #20]
   d5188:	b32b      	cbz	r3, d51d6 <setup+0xfe>
            config_.mode = static_cast<hal_sleep_mode_t>(mode);
   d518a:	2302      	movs	r3, #2
   d518c:	7223      	strb	r3, [r4, #8]

  config.mode(SystemSleepMode::ULTRA_LOW_POWER)
      .duration(lowPowerTime * 60000); // minutes to milliseconds
   d518e:	4b2d      	ldr	r3, [pc, #180]	; (d5244 <setup+0x16c>)
   d5190:	681b      	ldr	r3, [r3, #0]
   d5192:	f64e 2860 	movw	r8, #60000	; 0xea60
   d5196:	fb08 f803 	mul.w	r8, r8, r3
    hal_wakeup_source_base_t* wakeupSource() const {
        return config_->wakeup_sources;
    }

    hal_wakeup_source_base_t* wakeupSourceFeatured(hal_wakeup_source_type_t type) const {
        return wakeupSourceFeatured(type, config_->wakeup_sources);
   d519a:	6823      	ldr	r3, [r4, #0]
   d519c:	68db      	ldr	r3, [r3, #12]
    }

    hal_wakeup_source_base_t* wakeupSourceFeatured(hal_wakeup_source_type_t type, hal_wakeup_source_base_t* start) const {
        if (!start) {
   d519e:	b123      	cbz	r3, d51aa <setup+0xd2>
            return nullptr;
        }
        while (start) {
            if (start->type == type) {
   d51a0:	889a      	ldrh	r2, [r3, #4]
   d51a2:	2a04      	cmp	r2, #4
   d51a4:	d03d      	beq.n	d5222 <setup+0x14a>
                return start;
            }
            start = start->next;
   d51a6:	689b      	ldr	r3, [r3, #8]
   d51a8:	e7f9      	b.n	d519e <setup+0xc6>
            if (wakeup) {
                reinterpret_cast<hal_wakeup_source_rtc_t*>(wakeup)->ms = ms;
                return *this;
            }
            // Otherwise, configure RTC as wakeup source.
            auto wakeupSource = new(std::nothrow) hal_wakeup_source_rtc_t();
   d51aa:	4927      	ldr	r1, [pc, #156]	; (d5248 <setup+0x170>)
   d51ac:	2010      	movs	r0, #16
   d51ae:	f002 fc27 	bl	d7a00 <_ZnwjRKSt9nothrow_t>
   d51b2:	4605      	mov	r5, r0
   d51b4:	2800      	cmp	r0, #0
   d51b6:	d037      	beq.n	d5228 <setup+0x150>
   d51b8:	2610      	movs	r6, #16
   d51ba:	4632      	mov	r2, r6
   d51bc:	2100      	movs	r1, #0
   d51be:	f003 fce4 	bl	d8b8a <memset>
            if (!wakeupSource) {
                valid_ = false;
                return *this;
            }
            wakeupSource->base.size = sizeof(hal_wakeup_source_rtc_t);
            wakeupSource->base.version = HAL_SLEEP_VERSION;
   d51c2:	2302      	movs	r3, #2
   d51c4:	806b      	strh	r3, [r5, #2]
            wakeupSource->base.type = HAL_WAKEUP_SOURCE_TYPE_RTC;
   d51c6:	2304      	movs	r3, #4
            auto wakeupSource = new(std::nothrow) hal_wakeup_source_rtc_t();
            if (!wakeupSource) {
                valid_ = false;
                return *this;
            }
            wakeupSource->base.size = sizeof(hal_wakeup_source_rtc_t);
   d51c8:	802e      	strh	r6, [r5, #0]
            wakeupSource->base.version = HAL_SLEEP_VERSION;
            wakeupSource->base.type = HAL_WAKEUP_SOURCE_TYPE_RTC;
   d51ca:	80ab      	strh	r3, [r5, #4]
            wakeupSource->base.next = config_.wakeup_sources;
   d51cc:	6923      	ldr	r3, [r4, #16]
   d51ce:	60ab      	str	r3, [r5, #8]
            wakeupSource->ms = ms;
   d51d0:	f8c5 800c 	str.w	r8, [r5, #12]
            config_.wakeup_sources = reinterpret_cast<hal_wakeup_source_base_t*>(wakeupSource);
   d51d4:	6125      	str	r5, [r4, #16]
  counter = 0;
   d51d6:	4b1d      	ldr	r3, [pc, #116]	; (d524c <setup+0x174>)
  Wire.begin();
  i2cScan();

  Serial.printf("Gps status is %i\n", gpsOn);
   d51d8:	4d1d      	ldr	r5, [pc, #116]	; (d5250 <setup+0x178>)
  atTest();
  radioSetup(); // start lora module

  config.mode(SystemSleepMode::ULTRA_LOW_POWER)
      .duration(lowPowerTime * 60000); // minutes to milliseconds
  counter = 0;
   d51da:	2400      	movs	r4, #0
   d51dc:	601c      	str	r4, [r3, #0]
  Wire.begin();
   d51de:	f002 fb61 	bl	d78a4 <_Z19__fetch_global_Wirev>
   d51e2:	f001 fb51 	bl	d6888 <_ZN7TwoWire5beginEv>
  i2cScan();
   d51e6:	f7ff f9bb 	bl	d4560 <_Z7i2cScanv>

  Serial.printf("Gps status is %i\n", gpsOn);
   d51ea:	f001 fc67 	bl	d6abc <_Z16_fetch_usbserialv>
   d51ee:	782b      	ldrb	r3, [r5, #0]
   d51f0:	4a18      	ldr	r2, [pc, #96]	; (d5254 <setup+0x17c>)
   d51f2:	4621      	mov	r1, r4
   d51f4:	f002 f945 	bl	d7482 <_ZN5Print11printf_implEbPKcz>
  if (gpsOn)
   d51f8:	782b      	ldrb	r3, [r5, #0]
   d51fa:	b1bb      	cbz	r3, d522c <setup+0x154>
  {
    GPS.begin(0x10); // The I2C address to use is 0x10
   d51fc:	2110      	movs	r1, #16
   d51fe:	4816      	ldr	r0, [pc, #88]	; (d5258 <setup+0x180>)
   d5200:	f000 f90d 	bl	d541e <_ZN12Adafruit_GPS5beginEm>
    GPS.sendCommand(PMTK_SET_NMEA_OUTPUT_RMCGGA);
   d5204:	4915      	ldr	r1, [pc, #84]	; (d525c <setup+0x184>)
   d5206:	4814      	ldr	r0, [pc, #80]	; (d5258 <setup+0x180>)
   d5208:	f000 fb48 	bl	d589c <_ZN12Adafruit_GPS11sendCommandEPKc>
    GPS.sendCommand(PMTK_SET_NMEA_UPDATE_1HZ);
   d520c:	4914      	ldr	r1, [pc, #80]	; (d5260 <setup+0x188>)
   d520e:	4812      	ldr	r0, [pc, #72]	; (d5258 <setup+0x180>)
   d5210:	f000 fb44 	bl	d589c <_ZN12Adafruit_GPS11sendCommandEPKc>
    GPS.sendCommand(PGCMD_ANTENNA);
   d5214:	4913      	ldr	r1, [pc, #76]	; (d5264 <setup+0x18c>)
   d5216:	4810      	ldr	r0, [pc, #64]	; (d5258 <setup+0x180>)
   d5218:	f000 fb40 	bl	d589c <_ZN12Adafruit_GPS11sendCommandEPKc>
    probeNumber = 0;
   d521c:	603c      	str	r4, [r7, #0]
  }
}
   d521e:	e8bd 81f0 	ldmia.w	sp!, {r4, r5, r6, r7, r8, pc}
    SystemSleepConfiguration& duration(system_tick_t ms) {
        if (valid_) {
            // Check if RTC has been configured as wakeup source.
            auto wakeup = wakeupSourceFeatured(HAL_WAKEUP_SOURCE_TYPE_RTC);
            if (wakeup) {
                reinterpret_cast<hal_wakeup_source_rtc_t*>(wakeup)->ms = ms;
   d5222:	f8c3 800c 	str.w	r8, [r3, #12]
   d5226:	e7d6      	b.n	d51d6 <setup+0xfe>
                return *this;
            }
            // Otherwise, configure RTC as wakeup source.
            auto wakeupSource = new(std::nothrow) hal_wakeup_source_rtc_t();
            if (!wakeupSource) {
                valid_ = false;
   d5228:	7520      	strb	r0, [r4, #20]
   d522a:	e7d4      	b.n	d51d6 <setup+0xfe>
   d522c:	e8bd 81f0 	ldmia.w	sp!, {r4, r5, r6, r7, r8, pc}
   d5230:	2003d3ec 	.word	0x2003d3ec
   d5234:	2003d63c 	.word	0x2003d63c
   d5238:	2003d65c 	.word	0x2003d65c
   d523c:	2003d648 	.word	0x2003d648
   d5240:	2003d678 	.word	0x2003d678
   d5244:	2003d3e0 	.word	0x2003d3e0
   d5248:	000d966c 	.word	0x000d966c
   d524c:	2003e394 	.word	0x2003e394
   d5250:	2003d63d 	.word	0x2003d63d
   d5254:	000d91d4 	.word	0x000d91d4
   d5258:	2003d80c 	.word	0x2003d80c
   d525c:	000d91e6 	.word	0x000d91e6
   d5260:	000d9218 	.word	0x000d9218
   d5264:	000d9229 	.word	0x000d9229

000d5268 <_GLOBAL__sub_I_GPS>:
  //   Serial.printf("Awaiting Reply from mode?\n");
  //   reply = Serial1.readStringUntil('\n');
  //   Serial.printf("Reply: %s\n", reply.c_str());
  //   delay(1000);
  // }
   d5268:	b5f8      	push	{r3, r4, r5, r6, r7, lr}
} // namespace particle

// particle::Flag<TagT, ValueT>
template<typename TagT, typename ValueT>
inline particle::Flag<TagT, ValueT>::Flag(ValueT val) :
        val_(val) {
   d526a:	4b1b      	ldr	r3, [pc, #108]	; (d52d8 <_GLOBAL__sub_I_GPS+0x70>)
 */

#include <math.h>

#include <Adafruit_GPS.h>
Adafruit_GPS GPS(&Wire);
   d526c:	4c1b      	ldr	r4, [pc, #108]	; (d52dc <_GLOBAL__sub_I_GPS+0x74>)
   d526e:	4e1c      	ldr	r6, [pc, #112]	; (d52e0 <_GLOBAL__sub_I_GPS+0x78>)
   d5270:	2500      	movs	r5, #0
   d5272:	701d      	strb	r5, [r3, #0]

inline void pinSetFast(pin_t _pin) __attribute__((always_inline));
inline void pinResetFast(pin_t _pin) __attribute__((always_inline));
inline int32_t pinReadFast(pin_t _pin) __attribute__((always_inline));

static Hal_Pin_Info* PIN_MAP = HAL_Pin_Map();
   d5274:	f000 ff06 	bl	d6084 <HAL_Pin_Map>
   d5278:	f002 fb14 	bl	d78a4 <_Z19__fetch_global_Wirev>
   d527c:	4601      	mov	r1, r0
   d527e:	4620      	mov	r0, r4
   d5280:	f000 f954 	bl	d552c <_ZN12Adafruit_GPSC1EP7TwoWire>
   d5284:	4620      	mov	r0, r4
};

class SystemSleepConfigurationHelper {
public:
    SystemSleepConfigurationHelper(const hal_sleep_config_t* config)
        : config_(config) {
   d5286:	4c17      	ldr	r4, [pc, #92]	; (d52e4 <_GLOBAL__sub_I_GPS+0x7c>)
   d5288:	4917      	ldr	r1, [pc, #92]	; (d52e8 <_GLOBAL__sub_I_GPS+0x80>)
   d528a:	4632      	mov	r2, r6
   d528c:	f002 fba7 	bl	d79de <__aeabi_atexit>
public:
    // Constructor
    SystemSleepConfiguration()
            : SystemSleepConfigurationHelper(&config_),
              config_(),
              valid_(true) {
   d5290:	2710      	movs	r7, #16
};

class SystemSleepConfigurationHelper {
public:
    SystemSleepConfigurationHelper(const hal_sleep_config_t* config)
        : config_(config) {
   d5292:	1d20      	adds	r0, r4, #4
public:
    // Constructor
    SystemSleepConfiguration()
            : SystemSleepConfigurationHelper(&config_),
              config_(),
              valid_(true) {
   d5294:	463a      	mov	r2, r7
   d5296:	4629      	mov	r1, r5
};

class SystemSleepConfigurationHelper {
public:
    SystemSleepConfigurationHelper(const hal_sleep_config_t* config)
        : config_(config) {
   d5298:	6020      	str	r0, [r4, #0]
public:
    // Constructor
    SystemSleepConfiguration()
            : SystemSleepConfigurationHelper(&config_),
              config_(),
              valid_(true) {
   d529a:	f003 fc76 	bl	d8b8a <memset>
   d529e:	2301      	movs	r3, #1
        config_.size = sizeof(hal_sleep_config_t);
   d52a0:	80a7      	strh	r7, [r4, #4]
        config_.version = HAL_SLEEP_VERSION;
   d52a2:	2702      	movs	r7, #2
int bandParameter = 0;  // 0 for 915 and 1 for 868
int radioParameter = 0; // 0 for within 3km 1 for over 3km
int baudRate = 115200;
int outputPower = 15; // 0-15

SystemSleepConfiguration config;
   d52a4:	4632      	mov	r2, r6
public:
    // Constructor
    SystemSleepConfiguration()
            : SystemSleepConfigurationHelper(&config_),
              config_(),
              valid_(true) {
   d52a6:	7523      	strb	r3, [r4, #20]
        config_.size = sizeof(hal_sleep_config_t);
        config_.version = HAL_SLEEP_VERSION;
   d52a8:	80e7      	strh	r7, [r4, #6]
   d52aa:	4910      	ldr	r1, [pc, #64]	; (d52ec <_GLOBAL__sub_I_GPS+0x84>)
   d52ac:	4620      	mov	r0, r4

class SystemSleepResult {
public:
    SystemSleepResult()
            : wakeupSource_(nullptr),
              error_(SYSTEM_ERROR_NONE) {
   d52ae:	4c10      	ldr	r4, [pc, #64]	; (d52f0 <_GLOBAL__sub_I_GPS+0x88>)
   d52b0:	f002 fb95 	bl	d79de <__aeabi_atexit>
    WAKEUP_REASON_PIN_OR_RTC = 3,
    WAKEUP_REASON_UNKNOWN = 4
};

struct SleepResult {
    SleepResult() {}
   d52b4:	f64f 73ff 	movw	r3, #65535	; 0xffff

class SystemClass {
public:

    SystemClass(System_Mode_TypeDef mode = DEFAULT) {
        set_system_mode(mode);
   d52b8:	4638      	mov	r0, r7

class SystemSleepResult {
public:
    SystemSleepResult()
            : wakeupSource_(nullptr),
              error_(SYSTEM_ERROR_NONE) {
   d52ba:	6025      	str	r5, [r4, #0]
   d52bc:	80a5      	strh	r5, [r4, #4]
    WAKEUP_REASON_PIN_OR_RTC = 3,
    WAKEUP_REASON_UNKNOWN = 4
};

struct SleepResult {
    SleepResult() {}
   d52be:	71a5      	strb	r5, [r4, #6]
   d52c0:	8125      	strh	r5, [r4, #8]
   d52c2:	8163      	strh	r3, [r4, #10]

class SystemClass {
public:

    SystemClass(System_Mode_TypeDef mode = DEFAULT) {
        set_system_mode(mode);
   d52c4:	f000 ffc6 	bl	d6254 <set_system_mode>
int lowPowerTime = 30; // number of minutes

SYSTEM_MODE(SEMI_AUTOMATIC);
   d52c8:	4632      	mov	r2, r6
   d52ca:	4620      	mov	r0, r4
   d52cc:	4909      	ldr	r1, [pc, #36]	; (d52f4 <_GLOBAL__sub_I_GPS+0x8c>)
  //   Serial.printf("Awaiting Reply from mode?\n");
  //   reply = Serial1.readStringUntil('\n');
  //   Serial.printf("Reply: %s\n", reply.c_str());
  //   delay(1000);
  // }
   d52ce:	e8bd 40f8 	ldmia.w	sp!, {r3, r4, r5, r6, r7, lr}
int outputPower = 15; // 0-15

SystemSleepConfiguration config;
int lowPowerTime = 30; // number of minutes

SYSTEM_MODE(SEMI_AUTOMATIC);
   d52d2:	f002 bb84 	b.w	d79de <__aeabi_atexit>
   d52d6:	bf00      	nop
   d52d8:	2003d628 	.word	0x2003d628
   d52dc:	2003d80c 	.word	0x2003d80c
   d52e0:	2003d620 	.word	0x2003d620
   d52e4:	2003d65c 	.word	0x2003d65c
   d52e8:	000d5351 	.word	0x000d5351
   d52ec:	000d40b7 	.word	0x000d40b7
   d52f0:	2003d630 	.word	0x2003d630
   d52f4:	000d40ed 	.word	0x000d40ed

000d52f8 <_ZNK8particle13__SPISettings7printToER5Print>:
  bool operator!=(const __SPISettings& other) const
  {
    return !(other == *this);
  }

  virtual size_t printTo(Print& p) const
   d52f8:	b57f      	push	{r0, r1, r2, r3, r4, r5, r6, lr}
   d52fa:	4602      	mov	r2, r0
   d52fc:	4608      	mov	r0, r1
  {
    if (default_ && clock_ == 0)
   d52fe:	7913      	ldrb	r3, [r2, #4]
   d5300:	6895      	ldr	r5, [r2, #8]
   d5302:	b133      	cbz	r3, d5312 <_ZNK8particle13__SPISettings7printToER5Print+0x1a>
   d5304:	b93d      	cbnz	r5, d5316 <_ZNK8particle13__SPISettings7printToER5Print+0x1e>
      return p.print("<SPISettings default>");
   d5306:	490c      	ldr	r1, [pc, #48]	; (d5338 <_ZNK8particle13__SPISettings7printToER5Print+0x40>)
    else
      return p.printf("<SPISettings %s%lu %s MODE%d>", default_ ? "default " : "", clock_, bitOrder_ == MSBFIRST ? "MSB" : "LSB", dataMode_);
  }
   d5308:	b004      	add	sp, #16
   d530a:	e8bd 4070 	ldmia.w	sp!, {r4, r5, r6, lr}
  }

  virtual size_t printTo(Print& p) const
  {
    if (default_ && clock_ == 0)
      return p.print("<SPISettings default>");
   d530e:	f002 b87b 	b.w	d7408 <_ZN5Print5printEPKc>
    else
      return p.printf("<SPISettings %s%lu %s MODE%d>", default_ ? "default " : "", clock_, bitOrder_ == MSBFIRST ? "MSB" : "LSB", dataMode_);
   d5312:	4b0a      	ldr	r3, [pc, #40]	; (d533c <_ZNK8particle13__SPISettings7printToER5Print+0x44>)
   d5314:	e000      	b.n	d5318 <_ZNK8particle13__SPISettings7printToER5Print+0x20>
   d5316:	4b0a      	ldr	r3, [pc, #40]	; (d5340 <_ZNK8particle13__SPISettings7printToER5Print+0x48>)
   d5318:	7b16      	ldrb	r6, [r2, #12]
   d531a:	4c0a      	ldr	r4, [pc, #40]	; (d5344 <_ZNK8particle13__SPISettings7printToER5Print+0x4c>)
   d531c:	490a      	ldr	r1, [pc, #40]	; (d5348 <_ZNK8particle13__SPISettings7printToER5Print+0x50>)
   d531e:	7b52      	ldrb	r2, [r2, #13]
   d5320:	9202      	str	r2, [sp, #8]
   d5322:	2e01      	cmp	r6, #1
   d5324:	bf08      	it	eq
   d5326:	4621      	moveq	r1, r4
   d5328:	9101      	str	r1, [sp, #4]
   d532a:	9500      	str	r5, [sp, #0]
   d532c:	4a07      	ldr	r2, [pc, #28]	; (d534c <_ZNK8particle13__SPISettings7printToER5Print+0x54>)
   d532e:	2100      	movs	r1, #0
   d5330:	f002 f8a7 	bl	d7482 <_ZN5Print11printf_implEbPKcz>
  }
   d5334:	b004      	add	sp, #16
   d5336:	bd70      	pop	{r4, r5, r6, pc}
   d5338:	000d9289 	.word	0x000d9289
   d533c:	000d8f7f 	.word	0x000d8f7f
   d5340:	000d9278 	.word	0x000d9278
   d5344:	000d9281 	.word	0x000d9281
   d5348:	000d9285 	.word	0x000d9285
   d534c:	000d929f 	.word	0x000d929f

000d5350 <_ZN12Adafruit_GPSD1Ev>:
/*!
    @brief    Destroy the object.
    @return   none
*/
/**************************************************************************/
Adafruit_GPS::~Adafruit_GPS() {
   d5350:	b538      	push	{r3, r4, r5, lr}
   d5352:	4b06      	ldr	r3, [pc, #24]	; (d536c <_ZN12Adafruit_GPSD1Ev+0x1c>)
   d5354:	6003      	str	r3, [r0, #0]
   d5356:	4605      	mov	r5, r0
#ifdef NMEA_EXTENSIONS
  for (int i = 0; i < (int)NMEA_MAX_INDEX; i++)
   d5358:	2400      	movs	r4, #0
    removeHistory((nmea_index_t)i); // to free any history mallocs
   d535a:	b2e1      	uxtb	r1, r4
   d535c:	4628      	mov	r0, r5
    @return   none
*/
/**************************************************************************/
Adafruit_GPS::~Adafruit_GPS() {
#ifdef NMEA_EXTENSIONS
  for (int i = 0; i < (int)NMEA_MAX_INDEX; i++)
   d535e:	3401      	adds	r4, #1
    removeHistory((nmea_index_t)i); // to free any history mallocs
   d5360:	f000 fd22 	bl	d5da8 <_ZN12Adafruit_GPS13removeHistoryE12nmea_index_t>
    @return   none
*/
/**************************************************************************/
Adafruit_GPS::~Adafruit_GPS() {
#ifdef NMEA_EXTENSIONS
  for (int i = 0; i < (int)NMEA_MAX_INDEX; i++)
   d5364:	2c40      	cmp	r4, #64	; 0x40
   d5366:	d1f8      	bne.n	d535a <_ZN12Adafruit_GPSD1Ev+0xa>
    removeHistory((nmea_index_t)i); // to free any history mallocs
#endif
}
   d5368:	4628      	mov	r0, r5
   d536a:	bd38      	pop	{r3, r4, r5, pc}
   d536c:	000d9268 	.word	0x000d9268

000d5370 <_ZN12Adafruit_GPSD0Ev>:
/*!
    @brief    Destroy the object.
    @return   none
*/
/**************************************************************************/
Adafruit_GPS::~Adafruit_GPS() {
   d5370:	b510      	push	{r4, lr}
   d5372:	4604      	mov	r4, r0
#ifdef NMEA_EXTENSIONS
  for (int i = 0; i < (int)NMEA_MAX_INDEX; i++)
    removeHistory((nmea_index_t)i); // to free any history mallocs
#endif
}
   d5374:	f7ff ffec 	bl	d5350 <_ZN12Adafruit_GPSD1Ev>
   d5378:	4620      	mov	r0, r4
   d537a:	f44f 6138 	mov.w	r1, #2944	; 0xb80
   d537e:	f002 fb3b 	bl	d79f8 <_ZdlPvj>
   d5382:	4620      	mov	r0, r4
   d5384:	bd10      	pop	{r4, pc}

000d5386 <_ZN12Adafruit_GPS5writeEh>:
   functionality
    @param c A single byte to send
    @return Bytes written - 1 on success, 0 on failure
*/
/**************************************************************************/
size_t Adafruit_GPS::write(uint8_t c) {
   d5386:	b570      	push	{r4, r5, r6, lr}
   d5388:	4604      	mov	r4, r0
#if (defined(__AVR__) || defined(ESP8266)) && defined(USE_SW_SERIAL)
  if (gpsSwSerial) {
    return gpsSwSerial->write(c);
  }
#endif
  if (gpsHwSerial) {
   d538a:	f8d0 09d4 	ldr.w	r0, [r0, #2516]	; 0x9d4
   functionality
    @param c A single byte to send
    @return Bytes written - 1 on success, 0 on failure
*/
/**************************************************************************/
size_t Adafruit_GPS::write(uint8_t c) {
   d538e:	460e      	mov	r6, r1
#if (defined(__AVR__) || defined(ESP8266)) && defined(USE_SW_SERIAL)
  if (gpsSwSerial) {
    return gpsSwSerial->write(c);
  }
#endif
  if (gpsHwSerial) {
   d5390:	b910      	cbnz	r0, d5398 <_ZN12Adafruit_GPS5writeEh+0x12>
    return gpsHwSerial->write(c);
  }
  if (gpsStream) {
   d5392:	f8d4 09d8 	ldr.w	r0, [r4, #2520]	; 0x9d8
   d5396:	b120      	cbz	r0, d53a2 <_ZN12Adafruit_GPS5writeEh+0x1c>
    return gpsStream->write(c);
   d5398:	6803      	ldr	r3, [r0, #0]
    gpsSPI->endTransaction();
    return 1;
  }

  return 0;
}
   d539a:	e8bd 4070 	ldmia.w	sp!, {r4, r5, r6, lr}
#endif
  if (gpsHwSerial) {
    return gpsHwSerial->write(c);
  }
  if (gpsStream) {
    return gpsStream->write(c);
   d539e:	689b      	ldr	r3, [r3, #8]
   d53a0:	4718      	bx	r3
  }
  if (gpsI2C) {
   d53a2:	f8d4 09dc 	ldr.w	r0, [r4, #2524]	; 0x9dc
   d53a6:	b918      	cbnz	r0, d53b0 <_ZN12Adafruit_GPS5writeEh+0x2a>
    }
    if (gpsI2C->endTransmission(true) == 0) {
      return 1;
    }
  }
  if (gpsSPI) {
   d53a8:	f8d4 09e0 	ldr.w	r0, [r4, #2528]	; 0x9e0
   d53ac:	b9b8      	cbnz	r0, d53de <_ZN12Adafruit_GPS5writeEh+0x58>
   d53ae:	e00c      	b.n	d53ca <_ZN12Adafruit_GPS5writeEh+0x44>
  }
  if (gpsStream) {
    return gpsStream->write(c);
  }
  if (gpsI2C) {
    gpsI2C->beginTransmission(_i2caddr);
   d53b0:	f894 1a5c 	ldrb.w	r1, [r4, #2652]	; 0xa5c
   d53b4:	f001 fa6e 	bl	d6894 <_ZN7TwoWire17beginTransmissionEh>
    if (gpsI2C->write(c) != 1) {
   d53b8:	f8d4 09dc 	ldr.w	r0, [r4, #2524]	; 0x9dc
   d53bc:	6803      	ldr	r3, [r0, #0]
   d53be:	4631      	mov	r1, r6
   d53c0:	689b      	ldr	r3, [r3, #8]
   d53c2:	4798      	blx	r3
   d53c4:	2801      	cmp	r0, #1
   d53c6:	4605      	mov	r5, r0
   d53c8:	d001      	beq.n	d53ce <_ZN12Adafruit_GPS5writeEh+0x48>
      return 0;
   d53ca:	2500      	movs	r5, #0
   d53cc:	e025      	b.n	d541a <_ZN12Adafruit_GPS5writeEh+0x94>
    }
    if (gpsI2C->endTransmission(true) == 0) {
   d53ce:	4601      	mov	r1, r0
   d53d0:	f8d4 09dc 	ldr.w	r0, [r4, #2524]	; 0x9dc
   d53d4:	f001 fa62 	bl	d689c <_ZN7TwoWire15endTransmissionEh>
   d53d8:	2800      	cmp	r0, #0
   d53da:	d1e5      	bne.n	d53a8 <_ZN12Adafruit_GPS5writeEh+0x22>
   d53dc:	e01d      	b.n	d541a <_ZN12Adafruit_GPS5writeEh+0x94>
      return 1;
    }
  }
  if (gpsSPI) {
    gpsSPI->beginTransaction(gpsSPI_settings);
   d53de:	f604 11e8 	addw	r1, r4, #2536	; 0x9e8
   d53e2:	f001 f999 	bl	d6718 <_ZN8SPIClass16beginTransactionERKN8particle13__SPISettingsE>
    if (gpsSPI_cs >= 0) {
   d53e6:	f994 09e4 	ldrsb.w	r0, [r4, #2532]	; 0x9e4
   d53ea:	2800      	cmp	r0, #0
   d53ec:	db03      	blt.n	d53f6 <_ZN12Adafruit_GPS5writeEh+0x70>
      digitalWrite(gpsSPI_cs, LOW);
   d53ee:	2100      	movs	r1, #0
   d53f0:	b280      	uxth	r0, r0
   d53f2:	f002 fac4 	bl	d797e <digitalWrite>
    }
    c = gpsSPI->transfer(c);
   d53f6:	4631      	mov	r1, r6
   d53f8:	f8d4 09e0 	ldr.w	r0, [r4, #2528]	; 0x9e0
   d53fc:	f001 f9fc 	bl	d67f8 <_ZN8SPIClass8transferEh>
    if (gpsSPI_cs >= 0) {
   d5400:	f994 09e4 	ldrsb.w	r0, [r4, #2532]	; 0x9e4
   d5404:	2800      	cmp	r0, #0
   d5406:	db03      	blt.n	d5410 <_ZN12Adafruit_GPS5writeEh+0x8a>
      digitalWrite(gpsSPI_cs, HIGH);
   d5408:	2101      	movs	r1, #1
   d540a:	b280      	uxth	r0, r0
   d540c:	f002 fab7 	bl	d797e <digitalWrite>
    }
    gpsSPI->endTransaction();
   d5410:	f8d4 09e0 	ldr.w	r0, [r4, #2528]	; 0x9e0
   d5414:	f001 f967 	bl	d66e6 <_ZN8SPIClass14endTransactionEv>
    return 1;
   d5418:	2501      	movs	r5, #1
  }

  return 0;
}
   d541a:	4628      	mov	r0, r5
   d541c:	bd70      	pop	{r4, r5, r6, pc}

000d541e <_ZN12Adafruit_GPS5beginEm>:
    @brief Start the HW or SW serial port
    @param baud_or_i2caddr Baud rate if using serial, I2C address if using I2C
    @returns True on successful hardware init, False on failure
*/
/**************************************************************************/
bool Adafruit_GPS::begin(uint32_t baud_or_i2caddr) {
   d541e:	b570      	push	{r4, r5, r6, lr}
   d5420:	4604      	mov	r4, r0
#if (defined(__AVR__) || defined(ESP8266)) && defined(USE_SW_SERIAL)
  if (gpsSwSerial) {
    gpsSwSerial->begin(baud_or_i2caddr);
  }
#endif
  if (gpsHwSerial) {
   d5422:	f8d0 09d4 	ldr.w	r0, [r0, #2516]	; 0x9d4
    @brief Start the HW or SW serial port
    @param baud_or_i2caddr Baud rate if using serial, I2C address if using I2C
    @returns True on successful hardware init, False on failure
*/
/**************************************************************************/
bool Adafruit_GPS::begin(uint32_t baud_or_i2caddr) {
   d5426:	460e      	mov	r6, r1
#if (defined(__AVR__) || defined(ESP8266)) && defined(USE_SW_SERIAL)
  if (gpsSwSerial) {
    gpsSwSerial->begin(baud_or_i2caddr);
  }
#endif
  if (gpsHwSerial) {
   d5428:	b108      	cbz	r0, d542e <_ZN12Adafruit_GPS5beginEm+0x10>
    gpsHwSerial->begin(baud_or_i2caddr);
   d542a:	f001 fab1 	bl	d6990 <_ZN11USARTSerial5beginEm>
  }
  if (gpsI2C) {
   d542e:	f8d4 59dc 	ldr.w	r5, [r4, #2524]	; 0x9dc
   d5432:	b1bd      	cbz	r5, d5464 <_ZN12Adafruit_GPS5beginEm+0x46>
    gpsI2C->begin();
   d5434:	4628      	mov	r0, r5
   d5436:	f001 fa27 	bl	d6888 <_ZN7TwoWire5beginEv>
    if (baud_or_i2caddr > 0x7F) {
   d543a:	2e7f      	cmp	r6, #127	; 0x7f
      _i2caddr = GPS_DEFAULT_I2C_ADDR;
   d543c:	bf86      	itte	hi
   d543e:	2310      	movhi	r3, #16
   d5440:	f884 3a5c 	strbhi.w	r3, [r4, #2652]	; 0xa5c
    } else {
      _i2caddr = baud_or_i2caddr;
   d5444:	f884 6a5c 	strbls.w	r6, [r4, #2652]	; 0xa5c
    }
    // A basic scanner, see if it ACK's
    gpsI2C->beginTransmission(_i2caddr);
   d5448:	f894 1a5c 	ldrb.w	r1, [r4, #2652]	; 0xa5c
   d544c:	f8d4 09dc 	ldr.w	r0, [r4, #2524]	; 0x9dc
   d5450:	f001 fa20 	bl	d6894 <_ZN7TwoWire17beginTransmissionEh>
    return (gpsI2C->endTransmission() == 0);
   d5454:	f8d4 09dc 	ldr.w	r0, [r4, #2524]	; 0x9dc
   d5458:	f001 fa24 	bl	d68a4 <_ZN7TwoWire15endTransmissionEv>
   d545c:	fab0 f080 	clz	r0, r0
   d5460:	0940      	lsrs	r0, r0, #5
   d5462:	bd70      	pop	{r4, r5, r6, pc}
  }
  if (gpsSPI) {
   d5464:	f8d4 09e0 	ldr.w	r0, [r4, #2528]	; 0x9e0
   d5468:	b1c8      	cbz	r0, d549e <_ZN12Adafruit_GPS5beginEm+0x80>
    gpsSPI->begin();
   d546a:	f001 f92b 	bl	d66c4 <_ZN8SPIClass5beginEv>
    gpsSPI_settings = SPISettings(baud_or_i2caddr, MSBFIRST, SPI_MODE0);
    if (gpsSPI_cs >= 0) {
   d546e:	f994 09e4 	ldrsb.w	r0, [r4, #2532]	; 0x9e4
    SPI_CLK_ARDUINO = 16*MHZ,
    SPI_CLK_PHOTON = 60*MHZ
};

namespace particle {
class __SPISettings : public Printable {
   d5472:	f8c4 69f0 	str.w	r6, [r4, #2544]	; 0x9f0
   d5476:	2800      	cmp	r0, #0
   d5478:	f04f 0601 	mov.w	r6, #1
   d547c:	f884 59ec 	strb.w	r5, [r4, #2540]	; 0x9ec
   d5480:	f884 69f4 	strb.w	r6, [r4, #2548]	; 0x9f4
   d5484:	f884 59f5 	strb.w	r5, [r4, #2549]	; 0x9f5
   d5488:	db09      	blt.n	d549e <_ZN12Adafruit_GPS5beginEm+0x80>
      pinMode(gpsSPI_cs, OUTPUT);
   d548a:	4631      	mov	r1, r6
   d548c:	b280      	uxth	r0, r0
   d548e:	f002 fa65 	bl	d795c <pinMode>
      digitalWrite(gpsSPI_cs, HIGH);
   d5492:	f994 09e4 	ldrsb.w	r0, [r4, #2532]	; 0x9e4
   d5496:	4631      	mov	r1, r6
   d5498:	b280      	uxth	r0, r0
   d549a:	f002 fa70 	bl	d797e <digitalWrite>
    }
  }

  delay(10);
   d549e:	200a      	movs	r0, #10
   d54a0:	f001 ff46 	bl	d7330 <delay>
  return true;
   d54a4:	2001      	movs	r0, #1
}
   d54a6:	bd70      	pop	{r4, r5, r6, pc}

000d54a8 <_ZN12Adafruit_GPS11common_initEv>:
/**************************************************************************/
void Adafruit_GPS::common_init(void) {
#if (defined(__AVR__) || defined(ESP8266)) && defined(USE_SW_SERIAL)
  gpsSwSerial = NULL; // Set both to NULL, then override correct
#endif
  gpsHwSerial = NULL; // port pointer in corresponding constructor
   d54a8:	2200      	movs	r2, #0
  gpsI2C = NULL;
  gpsSPI = NULL;
  recvdflag = false;
  paused = false;
  lineidx = 0;
  currentline = line1;
   d54aa:	f500 6128 	add.w	r1, r0, #2688	; 0xa80
#endif
  gpsHwSerial = NULL; // port pointer in corresponding constructor
  gpsStream = NULL;   // port pointer in corresponding constructor
  gpsI2C = NULL;
  gpsSPI = NULL;
  recvdflag = false;
   d54ae:	f880 2b7c 	strb.w	r2, [r0, #2940]	; 0xb7c
/**************************************************************************/
void Adafruit_GPS::common_init(void) {
#if (defined(__AVR__) || defined(ESP8266)) && defined(USE_SW_SERIAL)
  gpsSwSerial = NULL; // Set both to NULL, then override correct
#endif
  gpsHwSerial = NULL; // port pointer in corresponding constructor
   d54b2:	f8c0 29d4 	str.w	r2, [r0, #2516]	; 0x9d4
  gpsStream = NULL;   // port pointer in corresponding constructor
   d54b6:	f8c0 29d8 	str.w	r2, [r0, #2520]	; 0x9d8
  gpsI2C = NULL;
   d54ba:	f8c0 29dc 	str.w	r2, [r0, #2524]	; 0x9dc
  gpsSPI = NULL;
   d54be:	f8c0 29e0 	str.w	r2, [r0, #2528]	; 0x9e0
  recvdflag = false;
  paused = false;
   d54c2:	f880 29d0 	strb.w	r2, [r0, #2512]	; 0x9d0
  lineidx = 0;
   d54c6:	f880 2b70 	strb.w	r2, [r0, #2928]	; 0xb70
  currentline = line1;
   d54ca:	f8c0 1b74 	str.w	r1, [r0, #2932]	; 0xb74
  lastline = line2;

  hour = minute = seconds = year = month = day = fixquality = fixquality_3d =
      satellites = antenna = 0; // uint8_t
   d54ce:	f880 2083 	strb.w	r2, [r0, #131]	; 0x83
   d54d2:	f880 2082 	strb.w	r2, [r0, #130]	; 0x82
   d54d6:	f880 2081 	strb.w	r2, [r0, #129]	; 0x81
   d54da:	f880 2080 	strb.w	r2, [r0, #128]	; 0x80
   d54de:	f880 2042 	strb.w	r2, [r0, #66]	; 0x42
   d54e2:	f880 2041 	strb.w	r2, [r0, #65]	; 0x41
   d54e6:	f880 2040 	strb.w	r2, [r0, #64]	; 0x40
   d54ea:	f880 203c 	strb.w	r2, [r0, #60]	; 0x3c
   d54ee:	f880 203b 	strb.w	r2, [r0, #59]	; 0x3b
   d54f2:	f880 203a 	strb.w	r2, [r0, #58]	; 0x3a
  lat = lon = mag = 0;          // char
   d54f6:	f880 207e 	strb.w	r2, [r0, #126]	; 0x7e
   d54fa:	f880 207d 	strb.w	r2, [r0, #125]	; 0x7d
   d54fe:	f880 207c 	strb.w	r2, [r0, #124]	; 0x7c
  fix = false;                  // bool
   d5502:	f880 207f 	strb.w	r2, [r0, #127]	; 0x7f
  milliseconds = 0;             // uint16_t
   d5506:	87c2      	strh	r2, [r0, #62]	; 0x3e
  gpsSPI = NULL;
  recvdflag = false;
  paused = false;
  lineidx = 0;
  currentline = line1;
  lastline = line2;
   d5508:	f600 21f8 	addw	r1, r0, #2808	; 0xaf8
      satellites = antenna = 0; // uint8_t
  lat = lon = mag = 0;          // char
  fix = false;                  // bool
  milliseconds = 0;             // uint16_t
  latitude = longitude = geoidheight = altitude = speed = angle = magvariation =
      HDOP = VDOP = PDOP = 0.0; // nmea_float_t
   d550c:	2200      	movs	r2, #0
  gpsSPI = NULL;
  recvdflag = false;
  paused = false;
  lineidx = 0;
  currentline = line1;
  lastline = line2;
   d550e:	f8c0 1b78 	str.w	r1, [r0, #2936]	; 0xb78
      satellites = antenna = 0; // uint8_t
  lat = lon = mag = 0;          // char
  fix = false;                  // bool
  milliseconds = 0;             // uint16_t
  latitude = longitude = geoidheight = altitude = speed = angle = magvariation =
      HDOP = VDOP = PDOP = 0.0; // nmea_float_t
   d5512:	6782      	str	r2, [r0, #120]	; 0x78
   d5514:	6742      	str	r2, [r0, #116]	; 0x74
   d5516:	6702      	str	r2, [r0, #112]	; 0x70
   d5518:	66c2      	str	r2, [r0, #108]	; 0x6c
   d551a:	6682      	str	r2, [r0, #104]	; 0x68
   d551c:	6642      	str	r2, [r0, #100]	; 0x64
   d551e:	6602      	str	r2, [r0, #96]	; 0x60
   d5520:	65c2      	str	r2, [r0, #92]	; 0x5c
   d5522:	6482      	str	r2, [r0, #72]	; 0x48
   d5524:	6442      	str	r2, [r0, #68]	; 0x44
#ifdef NMEA_EXTENSIONS
  data_init();
   d5526:	f000 b9f9 	b.w	d591c <_ZN12Adafruit_GPS9data_initEv>
	...

000d552c <_ZN12Adafruit_GPSC1EP7TwoWire>:
/*!
    @brief Constructor when using I2C
    @param theWire Pointer to an I2C TwoWire object
*/
/**************************************************************************/
Adafruit_GPS::Adafruit_GPS(TwoWire *theWire) {
   d552c:	e92d 41f0 	stmdb	sp!, {r4, r5, r6, r7, r8, lr}
   d5530:	4bb5      	ldr	r3, [pc, #724]	; (d5808 <_ZN12Adafruit_GPSC1EP7TwoWire+0x2dc>)
   d5532:	6003      	str	r3, [r0, #0]
   d5534:	4604      	mov	r4, r0
  protected:
    void setWriteError(int err = 1) { write_error = err; }
    size_t printf_impl(bool newline, const char* format, ...);

  public:
    Print() : write_error(0) {}
   d5536:	2500      	movs	r5, #0
   d5538:	2614      	movs	r6, #20
   d553a:	4688      	mov	r8, r1
   d553c:	6045      	str	r5, [r0, #4]
   d553e:	6085      	str	r5, [r0, #8]
   d5540:	8185      	strh	r5, [r0, #12]
   d5542:	7385      	strb	r5, [r0, #14]
   d5544:	4632      	mov	r2, r6
   d5546:	4629      	mov	r1, r5
   d5548:	300f      	adds	r0, #15
   d554a:	f003 fb1e 	bl	d8b8a <memset>
   d554e:	4632      	mov	r2, r6
   d5550:	4629      	mov	r1, r5
   d5552:	f8a4 5023 	strh.w	r5, [r4, #35]	; 0x23
   d5556:	f884 5025 	strb.w	r5, [r4, #37]	; 0x25
   d555a:	f104 0026 	add.w	r0, r4, #38	; 0x26
   d555e:	f003 fb14 	bl	d8b8a <memset>
   d5562:	2358      	movs	r3, #88	; 0x58
   d5564:	f884 307c 	strb.w	r3, [r4, #124]	; 0x7c
   d5568:	f884 307d 	strb.w	r3, [r4, #125]	; 0x7d
   d556c:	f884 307e 	strb.w	r3, [r4, #126]	; 0x7e
   d5570:	4629      	mov	r1, r5
   d5572:	f44f 6200 	mov.w	r2, #2048	; 0x800
   d5576:	f104 0090 	add.w	r0, r4, #144	; 0x90
   d557a:	f003 fb06 	bl	d8b8a <memset>
   d557e:	f44f 737a 	mov.w	r3, #1000	; 0x3e8
   d5582:	f8a4 309c 	strh.w	r3, [r4, #156]	; 0x9c
   d5586:	f8a4 30bc 	strh.w	r3, [r4, #188]	; 0xbc
   d558a:	f8a4 30dc 	strh.w	r3, [r4, #220]	; 0xdc
   d558e:	f8a4 30fc 	strh.w	r3, [r4, #252]	; 0xfc
   d5592:	f8a4 311c 	strh.w	r3, [r4, #284]	; 0x11c
   d5596:	f8a4 313c 	strh.w	r3, [r4, #316]	; 0x13c
   d559a:	f8a4 315c 	strh.w	r3, [r4, #348]	; 0x15c
   d559e:	f8a4 317c 	strh.w	r3, [r4, #380]	; 0x17c
   d55a2:	f8a4 319c 	strh.w	r3, [r4, #412]	; 0x19c
   d55a6:	f8a4 31bc 	strh.w	r3, [r4, #444]	; 0x1bc
   d55aa:	f8a4 31dc 	strh.w	r3, [r4, #476]	; 0x1dc
   d55ae:	f8a4 31fc 	strh.w	r3, [r4, #508]	; 0x1fc
   d55b2:	f8a4 321c 	strh.w	r3, [r4, #540]	; 0x21c
   d55b6:	f8a4 323c 	strh.w	r3, [r4, #572]	; 0x23c
   d55ba:	f8a4 325c 	strh.w	r3, [r4, #604]	; 0x25c
   d55be:	f8a4 327c 	strh.w	r3, [r4, #636]	; 0x27c
   d55c2:	f8a4 329c 	strh.w	r3, [r4, #668]	; 0x29c
   d55c6:	f8a4 32bc 	strh.w	r3, [r4, #700]	; 0x2bc
   d55ca:	f8a4 32dc 	strh.w	r3, [r4, #732]	; 0x2dc
   d55ce:	f8a4 32fc 	strh.w	r3, [r4, #764]	; 0x2fc
   d55d2:	f8a4 331c 	strh.w	r3, [r4, #796]	; 0x31c
   d55d6:	f8a4 333c 	strh.w	r3, [r4, #828]	; 0x33c
   d55da:	f8a4 335c 	strh.w	r3, [r4, #860]	; 0x35c
   d55de:	f8a4 337c 	strh.w	r3, [r4, #892]	; 0x37c
   d55e2:	f8a4 339c 	strh.w	r3, [r4, #924]	; 0x39c
   d55e6:	f8a4 33bc 	strh.w	r3, [r4, #956]	; 0x3bc
   d55ea:	f8a4 33dc 	strh.w	r3, [r4, #988]	; 0x3dc
   d55ee:	f8a4 33fc 	strh.w	r3, [r4, #1020]	; 0x3fc
   d55f2:	f8a4 341c 	strh.w	r3, [r4, #1052]	; 0x41c
   d55f6:	f8a4 343c 	strh.w	r3, [r4, #1084]	; 0x43c
   d55fa:	f8a4 345c 	strh.w	r3, [r4, #1116]	; 0x45c
   d55fe:	f8a4 347c 	strh.w	r3, [r4, #1148]	; 0x47c
   d5602:	f8a4 349c 	strh.w	r3, [r4, #1180]	; 0x49c
   d5606:	f8a4 34bc 	strh.w	r3, [r4, #1212]	; 0x4bc
   d560a:	f8a4 34dc 	strh.w	r3, [r4, #1244]	; 0x4dc
   d560e:	f8a4 34fc 	strh.w	r3, [r4, #1276]	; 0x4fc
   d5612:	f8a4 351c 	strh.w	r3, [r4, #1308]	; 0x51c
   d5616:	f8a4 353c 	strh.w	r3, [r4, #1340]	; 0x53c
   d561a:	f8a4 355c 	strh.w	r3, [r4, #1372]	; 0x55c
   d561e:	f8a4 357c 	strh.w	r3, [r4, #1404]	; 0x57c
   d5622:	f8a4 359c 	strh.w	r3, [r4, #1436]	; 0x59c
   d5626:	f8a4 35bc 	strh.w	r3, [r4, #1468]	; 0x5bc
   d562a:	f8a4 35dc 	strh.w	r3, [r4, #1500]	; 0x5dc
   d562e:	f8a4 35fc 	strh.w	r3, [r4, #1532]	; 0x5fc
   d5632:	f8a4 361c 	strh.w	r3, [r4, #1564]	; 0x61c
   d5636:	f8a4 363c 	strh.w	r3, [r4, #1596]	; 0x63c
   d563a:	f8a4 365c 	strh.w	r3, [r4, #1628]	; 0x65c
   d563e:	f8a4 367c 	strh.w	r3, [r4, #1660]	; 0x67c
   d5642:	f8a4 369c 	strh.w	r3, [r4, #1692]	; 0x69c
   d5646:	f8a4 36bc 	strh.w	r3, [r4, #1724]	; 0x6bc
   d564a:	f8a4 36dc 	strh.w	r3, [r4, #1756]	; 0x6dc
   d564e:	f8a4 36fc 	strh.w	r3, [r4, #1788]	; 0x6fc
   d5652:	f8a4 371c 	strh.w	r3, [r4, #1820]	; 0x71c
   d5656:	f8a4 373c 	strh.w	r3, [r4, #1852]	; 0x73c
   d565a:	f8a4 375c 	strh.w	r3, [r4, #1884]	; 0x75c
   d565e:	f8a4 377c 	strh.w	r3, [r4, #1916]	; 0x77c
   d5662:	f8a4 379c 	strh.w	r3, [r4, #1948]	; 0x79c
   d5666:	f8a4 37bc 	strh.w	r3, [r4, #1980]	; 0x7bc
   d566a:	f8a4 37dc 	strh.w	r3, [r4, #2012]	; 0x7dc
   d566e:	f8a4 37fc 	strh.w	r3, [r4, #2044]	; 0x7fc
   d5672:	f8a4 381c 	strh.w	r3, [r4, #2076]	; 0x81c
   d5676:	f8a4 383c 	strh.w	r3, [r4, #2108]	; 0x83c
   d567a:	f8a4 385c 	strh.w	r3, [r4, #2140]	; 0x85c
   d567e:	f8a4 387c 	strh.w	r3, [r4, #2172]	; 0x87c
   d5682:	f504 6309 	add.w	r3, r4, #2192	; 0x890
   d5686:	4a61      	ldr	r2, [pc, #388]	; (d580c <_ZN12Adafruit_GPSC1EP7TwoWire+0x2e0>)
   d5688:	601a      	str	r2, [r3, #0]
   d568a:	f604 0394 	addw	r3, r4, #2196	; 0x894
   d568e:	2200      	movs	r2, #0
   d5690:	601a      	str	r2, [r3, #0]
   d5692:	4629      	mov	r1, r5
   d5694:	4632      	mov	r2, r6
   d5696:	f604 0098 	addw	r0, r4, #2200	; 0x898
   d569a:	f003 fa76 	bl	d8b8a <memset>
   d569e:	4f5c      	ldr	r7, [pc, #368]	; (d5810 <_ZN12Adafruit_GPSC1EP7TwoWire+0x2e4>)
   d56a0:	4632      	mov	r2, r6
   d56a2:	4629      	mov	r1, r5
   d56a4:	f604 00ac 	addw	r0, r4, #2220	; 0x8ac
   d56a8:	f003 fa6f 	bl	d8b8a <memset>
   d56ac:	4629      	mov	r1, r5
   d56ae:	223f      	movs	r2, #63	; 0x3f
   d56b0:	f504 600c 	add.w	r0, r4, #2240	; 0x8c0
   d56b4:	f003 fa69 	bl	d8b8a <memset>
   d56b8:	cf0f      	ldmia	r7!, {r0, r1, r2, r3}
   d56ba:	f604 160c 	addw	r6, r4, #2316	; 0x90c
   d56be:	f8c4 5900 	str.w	r5, [r4, #2304]	; 0x900
   d56c2:	f8c4 5904 	str.w	r5, [r4, #2308]	; 0x904
   d56c6:	f8c4 5908 	str.w	r5, [r4, #2312]	; 0x908
   d56ca:	c60f      	stmia	r6!, {r0, r1, r2, r3}
   d56cc:	e897 0007 	ldmia.w	r7, {r0, r1, r2}
   d56d0:	e886 0007 	stmia.w	r6, {r0, r1, r2}
   d56d4:	4629      	mov	r1, r5
   d56d6:	2254      	movs	r2, #84	; 0x54
   d56d8:	f604 1028 	addw	r0, r4, #2344	; 0x928
   d56dc:	f003 fa55 	bl	d8b8a <memset>
   d56e0:	4b4c      	ldr	r3, [pc, #304]	; (d5814 <_ZN12Adafruit_GPSC1EP7TwoWire+0x2e8>)
   d56e2:	f8c4 3928 	str.w	r3, [r4, #2344]	; 0x928
   d56e6:	4b4c      	ldr	r3, [pc, #304]	; (d5818 <_ZN12Adafruit_GPSC1EP7TwoWire+0x2ec>)
   d56e8:	f8c4 392c 	str.w	r3, [r4, #2348]	; 0x92c
   d56ec:	4b4b      	ldr	r3, [pc, #300]	; (d581c <_ZN12Adafruit_GPSC1EP7TwoWire+0x2f0>)
   d56ee:	f8c4 3930 	str.w	r3, [r4, #2352]	; 0x930
   d56f2:	4b4b      	ldr	r3, [pc, #300]	; (d5820 <_ZN12Adafruit_GPSC1EP7TwoWire+0x2f4>)
   d56f4:	f8c4 3934 	str.w	r3, [r4, #2356]	; 0x934
   d56f8:	4b4a      	ldr	r3, [pc, #296]	; (d5824 <_ZN12Adafruit_GPSC1EP7TwoWire+0x2f8>)
   d56fa:	f8c4 3938 	str.w	r3, [r4, #2360]	; 0x938
   d56fe:	4b4a      	ldr	r3, [pc, #296]	; (d5828 <_ZN12Adafruit_GPSC1EP7TwoWire+0x2fc>)
   d5700:	f8c4 393c 	str.w	r3, [r4, #2364]	; 0x93c
   d5704:	4b49      	ldr	r3, [pc, #292]	; (d582c <_ZN12Adafruit_GPSC1EP7TwoWire+0x300>)
   d5706:	f8c4 3940 	str.w	r3, [r4, #2368]	; 0x940
   d570a:	4b49      	ldr	r3, [pc, #292]	; (d5830 <_ZN12Adafruit_GPSC1EP7TwoWire+0x304>)
   d570c:	f8c4 3944 	str.w	r3, [r4, #2372]	; 0x944
   d5710:	4b48      	ldr	r3, [pc, #288]	; (d5834 <_ZN12Adafruit_GPSC1EP7TwoWire+0x308>)
   d5712:	f8c4 3948 	str.w	r3, [r4, #2376]	; 0x948
   d5716:	4b48      	ldr	r3, [pc, #288]	; (d5838 <_ZN12Adafruit_GPSC1EP7TwoWire+0x30c>)
   d5718:	f8c4 394c 	str.w	r3, [r4, #2380]	; 0x94c
   d571c:	4b47      	ldr	r3, [pc, #284]	; (d583c <_ZN12Adafruit_GPSC1EP7TwoWire+0x310>)
   d571e:	f8c4 3950 	str.w	r3, [r4, #2384]	; 0x950
   d5722:	4b47      	ldr	r3, [pc, #284]	; (d5840 <_ZN12Adafruit_GPSC1EP7TwoWire+0x314>)
   d5724:	f8c4 3954 	str.w	r3, [r4, #2388]	; 0x954
   d5728:	4b46      	ldr	r3, [pc, #280]	; (d5844 <_ZN12Adafruit_GPSC1EP7TwoWire+0x318>)
   d572a:	f8c4 3958 	str.w	r3, [r4, #2392]	; 0x958
   d572e:	4b46      	ldr	r3, [pc, #280]	; (d5848 <_ZN12Adafruit_GPSC1EP7TwoWire+0x31c>)
   d5730:	f8c4 395c 	str.w	r3, [r4, #2396]	; 0x95c
   d5734:	4b45      	ldr	r3, [pc, #276]	; (d584c <_ZN12Adafruit_GPSC1EP7TwoWire+0x320>)
   d5736:	f8c4 3960 	str.w	r3, [r4, #2400]	; 0x960
   d573a:	4b45      	ldr	r3, [pc, #276]	; (d5850 <_ZN12Adafruit_GPSC1EP7TwoWire+0x324>)
   d573c:	f8c4 3964 	str.w	r3, [r4, #2404]	; 0x964
   d5740:	4b44      	ldr	r3, [pc, #272]	; (d5854 <_ZN12Adafruit_GPSC1EP7TwoWire+0x328>)
   d5742:	f8c4 3968 	str.w	r3, [r4, #2408]	; 0x968
   d5746:	4b44      	ldr	r3, [pc, #272]	; (d5858 <_ZN12Adafruit_GPSC1EP7TwoWire+0x32c>)
   d5748:	f8c4 396c 	str.w	r3, [r4, #2412]	; 0x96c
   d574c:	4e43      	ldr	r6, [pc, #268]	; (d585c <_ZN12Adafruit_GPSC1EP7TwoWire+0x330>)
   d574e:	4b44      	ldr	r3, [pc, #272]	; (d5860 <_ZN12Adafruit_GPSC1EP7TwoWire+0x334>)
   d5750:	f8c4 3970 	str.w	r3, [r4, #2416]	; 0x970
   d5754:	4629      	mov	r1, r5
   d5756:	f8c4 6974 	str.w	r6, [r4, #2420]	; 0x974
   d575a:	223c      	movs	r2, #60	; 0x3c
   d575c:	f604 107c 	addw	r0, r4, #2428	; 0x97c
   d5760:	f003 fa13 	bl	d8b8a <memset>
   d5764:	4b3f      	ldr	r3, [pc, #252]	; (d5864 <_ZN12Adafruit_GPSC1EP7TwoWire+0x338>)
   d5766:	f8c4 397c 	str.w	r3, [r4, #2428]	; 0x97c
   d576a:	4b3f      	ldr	r3, [pc, #252]	; (d5868 <_ZN12Adafruit_GPSC1EP7TwoWire+0x33c>)
   d576c:	f8c4 3980 	str.w	r3, [r4, #2432]	; 0x980
   d5770:	4b3e      	ldr	r3, [pc, #248]	; (d586c <_ZN12Adafruit_GPSC1EP7TwoWire+0x340>)
   d5772:	f8c4 3984 	str.w	r3, [r4, #2436]	; 0x984
   d5776:	4b3e      	ldr	r3, [pc, #248]	; (d5870 <_ZN12Adafruit_GPSC1EP7TwoWire+0x344>)
   d5778:	f8c4 3988 	str.w	r3, [r4, #2440]	; 0x988
   d577c:	4b3d      	ldr	r3, [pc, #244]	; (d5874 <_ZN12Adafruit_GPSC1EP7TwoWire+0x348>)
   d577e:	f8c4 398c 	str.w	r3, [r4, #2444]	; 0x98c
   d5782:	4b3d      	ldr	r3, [pc, #244]	; (d5878 <_ZN12Adafruit_GPSC1EP7TwoWire+0x34c>)
   d5784:	f8c4 3990 	str.w	r3, [r4, #2448]	; 0x990
   d5788:	4b3c      	ldr	r3, [pc, #240]	; (d587c <_ZN12Adafruit_GPSC1EP7TwoWire+0x350>)
   d578a:	f8c4 3994 	str.w	r3, [r4, #2452]	; 0x994
   d578e:	4b3c      	ldr	r3, [pc, #240]	; (d5880 <_ZN12Adafruit_GPSC1EP7TwoWire+0x354>)
   d5790:	f8c4 3998 	str.w	r3, [r4, #2456]	; 0x998
   d5794:	4b3b      	ldr	r3, [pc, #236]	; (d5884 <_ZN12Adafruit_GPSC1EP7TwoWire+0x358>)
   d5796:	f8c4 399c 	str.w	r3, [r4, #2460]	; 0x99c
   d579a:	4b3b      	ldr	r3, [pc, #236]	; (d5888 <_ZN12Adafruit_GPSC1EP7TwoWire+0x35c>)
   d579c:	f8c4 39a0 	str.w	r3, [r4, #2464]	; 0x9a0
public:
  __SPISettings(uint32_t clock, uint8_t bitOrder, uint8_t dataMode)
    : default_{false},
      clock_{clock},
      bitOrder_{bitOrder},
      dataMode_{dataMode}
   d57a0:	4a3a      	ldr	r2, [pc, #232]	; (d588c <_ZN12Adafruit_GPSC1EP7TwoWire+0x360>)
   d57a2:	4b3b      	ldr	r3, [pc, #236]	; (d5890 <_ZN12Adafruit_GPSC1EP7TwoWire+0x364>)
   d57a4:	f8c4 39a4 	str.w	r3, [r4, #2468]	; 0x9a4
   d57a8:	f8c4 29e8 	str.w	r2, [r4, #2536]	; 0x9e8
   d57ac:	4b39      	ldr	r3, [pc, #228]	; (d5894 <_ZN12Adafruit_GPSC1EP7TwoWire+0x368>)
   d57ae:	4a3a      	ldr	r2, [pc, #232]	; (d5898 <_ZN12Adafruit_GPSC1EP7TwoWire+0x36c>)
   d57b0:	f8c4 39b8 	str.w	r3, [r4, #2488]	; 0x9b8
   d57b4:	f8c4 39bc 	str.w	r3, [r4, #2492]	; 0x9bc
   d57b8:	f8c4 39c0 	str.w	r3, [r4, #2496]	; 0x9c0
   d57bc:	f8c4 39c4 	str.w	r3, [r4, #2500]	; 0x9c4
   d57c0:	f8c4 39c8 	str.w	r3, [r4, #2504]	; 0x9c8
   d57c4:	f8c4 39cc 	str.w	r3, [r4, #2508]	; 0x9cc
   d57c8:	f8c4 29f0 	str.w	r2, [r4, #2544]	; 0x9f0
   d57cc:	23ff      	movs	r3, #255	; 0xff
   d57ce:	2201      	movs	r2, #1
  common_init();    // Set everything to common state, then...
   d57d0:	4620      	mov	r0, r4
/*!
    @brief Constructor when using I2C
    @param theWire Pointer to an I2C TwoWire object
*/
/**************************************************************************/
Adafruit_GPS::Adafruit_GPS(TwoWire *theWire) {
   d57d2:	f8c4 69a8 	str.w	r6, [r4, #2472]	; 0x9a8
   d57d6:	f884 59d1 	strb.w	r5, [r4, #2513]	; 0x9d1
   d57da:	f884 39e4 	strb.w	r3, [r4, #2532]	; 0x9e4
   d57de:	f884 59ec 	strb.w	r5, [r4, #2540]	; 0x9ec
   d57e2:	f884 29f4 	strb.w	r2, [r4, #2548]	; 0x9f4
   d57e6:	f884 59f5 	strb.w	r5, [r4, #2549]	; 0x9f5
   d57ea:	f884 3a7d 	strb.w	r3, [r4, #2685]	; 0xa7d
   d57ee:	f884 5a7e 	strb.w	r5, [r4, #2686]	; 0xa7e
   d57f2:	f884 5a7f 	strb.w	r5, [r4, #2687]	; 0xa7f
   d57f6:	f884 5b70 	strb.w	r5, [r4, #2928]	; 0xb70
  common_init();    // Set everything to common state, then...
   d57fa:	f7ff fe55 	bl	d54a8 <_ZN12Adafruit_GPS11common_initEv>
  gpsI2C = theWire; // ...override gpsI2C
   d57fe:	f8c4 89dc 	str.w	r8, [r4, #2524]	; 0x9dc
}
   d5802:	4620      	mov	r0, r4
   d5804:	e8bd 81f0 	ldmia.w	sp!, {r4, r5, r6, r7, r8, pc}
   d5808:	000d9268 	.word	0x000d9268
   d580c:	4019999a 	.word	0x4019999a
   d5810:	000d9244 	.word	0x000d9244
   d5814:	000d92bd 	.word	0x000d92bd
   d5818:	000d92c1 	.word	0x000d92c1
   d581c:	000d92c5 	.word	0x000d92c5
   d5820:	000d92c9 	.word	0x000d92c9
   d5824:	000d92cd 	.word	0x000d92cd
   d5828:	000d92d1 	.word	0x000d92d1
   d582c:	000d92d5 	.word	0x000d92d5
   d5830:	000d92d9 	.word	0x000d92d9
   d5834:	000d92dd 	.word	0x000d92dd
   d5838:	000d92e1 	.word	0x000d92e1
   d583c:	000d92e5 	.word	0x000d92e5
   d5840:	000d92e9 	.word	0x000d92e9
   d5844:	000d92ed 	.word	0x000d92ed
   d5848:	000d92f1 	.word	0x000d92f1
   d584c:	000d92f5 	.word	0x000d92f5
   d5850:	000d92f9 	.word	0x000d92f9
   d5854:	000d92fd 	.word	0x000d92fd
   d5858:	000d9301 	.word	0x000d9301
   d585c:	000d9309 	.word	0x000d9309
   d5860:	000d9305 	.word	0x000d9305
   d5864:	000d930d 	.word	0x000d930d
   d5868:	000d9311 	.word	0x000d9311
   d586c:	000d9315 	.word	0x000d9315
   d5870:	000d9319 	.word	0x000d9319
   d5874:	000d931d 	.word	0x000d931d
   d5878:	000d9321 	.word	0x000d9321
   d587c:	000d9325 	.word	0x000d9325
   d5880:	000d9329 	.word	0x000d9329
   d5884:	000d932d 	.word	0x000d932d
   d5888:	000d9331 	.word	0x000d9331
   d588c:	000d9240 	.word	0x000d9240
   d5890:	000d9335 	.word	0x000d9335
   d5894:	77359400 	.word	0x77359400
   d5898:	000f4240 	.word	0x000f4240

000d589c <_ZN12Adafruit_GPS11sendCommandEPKc>:
/*!
    @brief Send a command to the GPS device
    @param str Pointer to a string holding the command to send
*/
/**************************************************************************/
void Adafruit_GPS::sendCommand(const char *str) { println(str); }
   d589c:	f001 bdc7 	b.w	d742e <_ZN5Print7printlnEPKc>

000d58a0 <_GLOBAL__sub_I__ZN12Adafruit_GPS5beginEm>:
   d58a0:	f000 bbf0 	b.w	d6084 <HAL_Pin_Map>

000d58a4 <_GLOBAL__sub_I__ZN12Adafruit_GPS5buildEPcPKcS2_cb>:
   d58a4:	f000 bbee 	b.w	d6084 <HAL_Pin_Map>

000d58a8 <_GLOBAL__sub_I__ZN12Adafruit_GPS5parseEPc>:
   d58a8:	f000 bbec 	b.w	d6084 <HAL_Pin_Map>

000d58ac <_ZN12Adafruit_GPS13initDataValueE12nmea_index_tPcS1_S1_m17nmea_value_type_t>:
    @return none
*/
/**************************************************************************/
void Adafruit_GPS::initDataValue(nmea_index_t idx, char *label, char *fmt,
                                 char *unit, unsigned long response,
                                 nmea_value_type_t type) {
   d58ac:	b5f0      	push	{r4, r5, r6, r7, lr}
   d58ae:	b085      	sub	sp, #20
   d58b0:	4605      	mov	r5, r0
   d58b2:	460c      	mov	r4, r1
   d58b4:	9f0a      	ldr	r7, [sp, #40]	; 0x28
   d58b6:	980b      	ldr	r0, [sp, #44]	; 0x2c
   d58b8:	f89d 1030 	ldrb.w	r1, [sp, #48]	; 0x30
      val[idx].response = response;
    val[idx].type = type;
    if ((int)(val[idx].type / 10) ==
        1) { // angle with sin/cos component recording
      initDataValue((nmea_index_t)(
          idx + 1)); // initialize the next two data values as well
   d58bc:	2600      	movs	r6, #0
*/
/**************************************************************************/
void Adafruit_GPS::initDataValue(nmea_index_t idx, char *label, char *fmt,
                                 char *unit, unsigned long response,
                                 nmea_value_type_t type) {
  if (idx < NMEA_MAX_INDEX) {
   d58be:	2c3f      	cmp	r4, #63	; 0x3f
   d58c0:	d82a      	bhi.n	d5918 <_ZN12Adafruit_GPS13initDataValueE12nmea_index_tPcS1_S1_m17nmea_value_type_t+0x6c>
    if (label)
   d58c2:	b11a      	cbz	r2, d58cc <_ZN12Adafruit_GPS13initDataValueE12nmea_index_tPcS1_S1_m17nmea_value_type_t+0x20>
      val[idx].label = label;
   d58c4:	eb05 1e44 	add.w	lr, r5, r4, lsl #5
   d58c8:	f8ce 20a4 	str.w	r2, [lr, #164]	; 0xa4
   d58cc:	0162      	lsls	r2, r4, #5
    if (fmt)
   d58ce:	b11b      	cbz	r3, d58d8 <_ZN12Adafruit_GPS13initDataValueE12nmea_index_tPcS1_S1_m17nmea_value_type_t+0x2c>
      val[idx].fmt = fmt;
   d58d0:	eb05 0e02 	add.w	lr, r5, r2
   d58d4:	f8ce 30ac 	str.w	r3, [lr, #172]	; 0xac
    if (unit)
   d58d8:	b117      	cbz	r7, d58e0 <_ZN12Adafruit_GPS13initDataValueE12nmea_index_tPcS1_S1_m17nmea_value_type_t+0x34>
      val[idx].unit = unit;
   d58da:	18ab      	adds	r3, r5, r2
   d58dc:	f8c3 70a8 	str.w	r7, [r3, #168]	; 0xa8
    if (response)
   d58e0:	b110      	cbz	r0, d58e8 <_ZN12Adafruit_GPS13initDataValueE12nmea_index_tPcS1_S1_m17nmea_value_type_t+0x3c>
      val[idx].response = response;
   d58e2:	18ab      	adds	r3, r5, r2
   d58e4:	f8a3 009c 	strh.w	r0, [r3, #156]	; 0x9c
    val[idx].type = type;
   d58e8:	442a      	add	r2, r5
   d58ea:	f882 109e 	strb.w	r1, [r2, #158]	; 0x9e
    if ((int)(val[idx].type / 10) ==
   d58ee:	390a      	subs	r1, #10
   d58f0:	2909      	cmp	r1, #9
   d58f2:	d811      	bhi.n	d5918 <_ZN12Adafruit_GPS13initDataValueE12nmea_index_tPcS1_S1_m17nmea_value_type_t+0x6c>
        1) { // angle with sin/cos component recording
      initDataValue((nmea_index_t)(
          idx + 1)); // initialize the next two data values as well
   d58f4:	2300      	movs	r3, #0
   d58f6:	1c61      	adds	r1, r4, #1
   d58f8:	461a      	mov	r2, r3
   d58fa:	b2c9      	uxtb	r1, r1
   d58fc:	4628      	mov	r0, r5
   d58fe:	9602      	str	r6, [sp, #8]
   d5900:	9601      	str	r6, [sp, #4]
   d5902:	9600      	str	r6, [sp, #0]
   d5904:	f7ff ffd2 	bl	d58ac <_ZN12Adafruit_GPS13initDataValueE12nmea_index_tPcS1_S1_m17nmea_value_type_t>
      initDataValue((nmea_index_t)(idx + 2));
   d5908:	3402      	adds	r4, #2
   d590a:	2200      	movs	r2, #0
   d590c:	b2e4      	uxtb	r4, r4
   d590e:	4613      	mov	r3, r2
   d5910:	4617      	mov	r7, r2
   d5912:	4610      	mov	r0, r2
   d5914:	4611      	mov	r1, r2
   d5916:	e7d2      	b.n	d58be <_ZN12Adafruit_GPS13initDataValueE12nmea_index_tPcS1_S1_m17nmea_value_type_t+0x12>
    }
  }
}
   d5918:	b005      	add	sp, #20
   d591a:	bdf0      	pop	{r4, r5, r6, r7, pc}

000d591c <_ZN12Adafruit_GPS9data_initEv>:
    sketch to decide which data values should carry the extra memory burden
    of history.
    @return   none
*/
/**************************************************************************/
void Adafruit_GPS::data_init() {
   d591c:	e92d 4ff0 	stmdb	sp!, {r4, r5, r6, r7, r8, r9, sl, fp, lr}
#ifdef NMEA_EXTENSIONS
  // fill all the data values with nothing
  static char c[] = "NUL";
  for (int i = 0; i < (int)NMEA_MAX_INDEX; i++) {
   d5920:	2600      	movs	r6, #0
    sketch to decide which data values should carry the extra memory burden
    of history.
    @return   none
*/
/**************************************************************************/
void Adafruit_GPS::data_init() {
   d5922:	b085      	sub	sp, #20
   d5924:	4605      	mov	r5, r0
#ifdef NMEA_EXTENSIONS
  // fill all the data values with nothing
  static char c[] = "NUL";
  for (int i = 0; i < (int)NMEA_MAX_INDEX; i++) {
    initDataValue((nmea_index_t)i, c, NULL, NULL, 0, (nmea_value_type_t)0);
   d5926:	4637      	mov	r7, r6
   d5928:	2400      	movs	r4, #0
   d592a:	b2f1      	uxtb	r1, r6
   d592c:	9702      	str	r7, [sp, #8]
   d592e:	9701      	str	r7, [sp, #4]
   d5930:	9700      	str	r7, [sp, #0]
   d5932:	4623      	mov	r3, r4
   d5934:	4ab0      	ldr	r2, [pc, #704]	; (d5bf8 <_ZN12Adafruit_GPS9data_initEv+0x2dc>)
   d5936:	4628      	mov	r0, r5
/**************************************************************************/
void Adafruit_GPS::data_init() {
#ifdef NMEA_EXTENSIONS
  // fill all the data values with nothing
  static char c[] = "NUL";
  for (int i = 0; i < (int)NMEA_MAX_INDEX; i++) {
   d5938:	3601      	adds	r6, #1
    initDataValue((nmea_index_t)i, c, NULL, NULL, 0, (nmea_value_type_t)0);
   d593a:	f7ff ffb7 	bl	d58ac <_ZN12Adafruit_GPS13initDataValueE12nmea_index_tPcS1_S1_m17nmea_value_type_t>
/**************************************************************************/
void Adafruit_GPS::data_init() {
#ifdef NMEA_EXTENSIONS
  // fill all the data values with nothing
  static char c[] = "NUL";
  for (int i = 0; i < (int)NMEA_MAX_INDEX; i++) {
   d593e:	2e40      	cmp	r6, #64	; 0x40
   d5940:	d1f2      	bne.n	d5928 <_ZN12Adafruit_GPS9data_initEv+0xc>
  static char LATlabel[] = "Lat";
  static char LATfmt[] = "%9.4f";
  static char LATunit[] = "DDD.dddd";
  initDataValue(
      NMEA_LAT, LATlabel, LATfmt, LATunit, 0,
      NMEA_BOAT_ANGLE); // angle from -180 to 180, or actually -90 to 90 for lat
   d5942:	2602      	movs	r6, #2
   d5944:	4fad      	ldr	r7, [pc, #692]	; (d5bfc <_ZN12Adafruit_GPS9data_initEv+0x2e0>)
  static char BoatAngleunit[] = "Degrees";
  static char TrueAngleunit[] = "Deg True";
  static char MagAngleunit[] = "Deg Mag";

  static char HDOPlabel[] = "HDOP";
  initDataValue(NMEA_HDOP, HDOPlabel);
   d5946:	9402      	str	r4, [sp, #8]
   d5948:	4623      	mov	r3, r4
   d594a:	4621      	mov	r1, r4
   d594c:	4628      	mov	r0, r5
   d594e:	9401      	str	r4, [sp, #4]
   d5950:	9400      	str	r4, [sp, #0]
   d5952:	4aab      	ldr	r2, [pc, #684]	; (d5c00 <_ZN12Adafruit_GPS9data_initEv+0x2e4>)
  initDataValue(NMEA_SOG, SOGlabel, BoatSpeedfmt, Speedunit);

  static char COGlabel[] = "COG";
  // types with sin/cos need two extra spots in the values matrix!
  initDataValue(NMEA_COG, COGlabel, Anglefmt, TrueAngleunit, 0,
                NMEA_COMPASS_ANGLE_SIN); // type: 0-360 angle with sin/cos 11
   d5954:	f8df 9380 	ldr.w	r9, [pc, #896]	; d5cd8 <_ZN12Adafruit_GPS9data_initEv+0x3bc>
                NMEA_COMPASS_ANGLE); // type: angle 0-360 1

  static char XTElabel[] = "XTE";
  static char XTEfmt[] = "%6.2f";
  static char XTEunit[] = "NM";
  initDataValue(NMEA_XTE, XTElabel, XTEfmt, XTEunit);
   d5958:	f8df a380 	ldr.w	sl, [pc, #896]	; d5cdc <_ZN12Adafruit_GPS9data_initEv+0x3c0>
  static char DISTWPlabel[] = "WP Dist";
  initDataValue(NMEA_DISTWP, DISTWPlabel, XTEfmt, XTEunit);

  static char AWAlabel[] = "AWA";
  initDataValue(NMEA_AWA, AWAlabel, Anglefmt, BoatAngleunit, 0,
                NMEA_BOAT_ANGLE_SIN); // type: +-180 angle with sin/cos 12
   d595c:	f8df b380 	ldr.w	fp, [pc, #896]	; d5ce0 <_ZN12Adafruit_GPS9data_initEv+0x3c4>
  static char BoatAngleunit[] = "Degrees";
  static char TrueAngleunit[] = "Deg True";
  static char MagAngleunit[] = "Deg Mag";

  static char HDOPlabel[] = "HDOP";
  initDataValue(NMEA_HDOP, HDOPlabel);
   d5960:	f7ff ffa4 	bl	d58ac <_ZN12Adafruit_GPS13initDataValueE12nmea_index_tPcS1_S1_m17nmea_value_type_t>
  static char LATlabel[] = "Lat";
  static char LATfmt[] = "%9.4f";
  static char LATunit[] = "DDD.dddd";
  initDataValue(
      NMEA_LAT, LATlabel, LATfmt, LATunit, 0,
      NMEA_BOAT_ANGLE); // angle from -180 to 180, or actually -90 to 90 for lat
   d5964:	9602      	str	r6, [sp, #8]
   d5966:	9700      	str	r7, [sp, #0]
   d5968:	4628      	mov	r0, r5
   d596a:	9401      	str	r4, [sp, #4]
   d596c:	4ba5      	ldr	r3, [pc, #660]	; (d5c04 <_ZN12Adafruit_GPS9data_initEv+0x2e8>)
   d596e:	4aa6      	ldr	r2, [pc, #664]	; (d5c08 <_ZN12Adafruit_GPS9data_initEv+0x2ec>)
   d5970:	2101      	movs	r1, #1
   d5972:	f7ff ff9b 	bl	d58ac <_ZN12Adafruit_GPS13initDataValueE12nmea_index_tPcS1_S1_m17nmea_value_type_t>

  static char LONlabel[] = "Lon";
  initDataValue(NMEA_LON, LONlabel, LATfmt, LATunit, 0,
                NMEA_BOAT_ANGLE); // angle from -180 to 180
   d5976:	9602      	str	r6, [sp, #8]
   d5978:	9700      	str	r7, [sp, #0]
   d597a:	4631      	mov	r1, r6
   d597c:	4628      	mov	r0, r5
   d597e:	9401      	str	r4, [sp, #4]
   d5980:	4ba0      	ldr	r3, [pc, #640]	; (d5c04 <_ZN12Adafruit_GPS9data_initEv+0x2e8>)
   d5982:	4aa2      	ldr	r2, [pc, #648]	; (d5c0c <_ZN12Adafruit_GPS9data_initEv+0x2f0>)
   d5984:	f7ff ff92 	bl	d58ac <_ZN12Adafruit_GPS13initDataValueE12nmea_index_tPcS1_S1_m17nmea_value_type_t>

  static char LATWPlabel[] = "WP Lat";
  initDataValue(NMEA_LATWP, LATWPlabel, LATfmt, LATunit, 0, NMEA_BOAT_ANGLE);
   d5988:	9602      	str	r6, [sp, #8]
   d598a:	9700      	str	r7, [sp, #0]
   d598c:	4628      	mov	r0, r5
   d598e:	9401      	str	r4, [sp, #4]
   d5990:	4b9c      	ldr	r3, [pc, #624]	; (d5c04 <_ZN12Adafruit_GPS9data_initEv+0x2e8>)
   d5992:	4a9f      	ldr	r2, [pc, #636]	; (d5c10 <_ZN12Adafruit_GPS9data_initEv+0x2f4>)
   d5994:	2103      	movs	r1, #3
   d5996:	f7ff ff89 	bl	d58ac <_ZN12Adafruit_GPS13initDataValueE12nmea_index_tPcS1_S1_m17nmea_value_type_t>

  static char LONWPlabel[] = "WP Lon";
  initDataValue(NMEA_LONWP, LONWPlabel, LATfmt, LATunit, 0, NMEA_BOAT_ANGLE);
   d599a:	9602      	str	r6, [sp, #8]
   d599c:	9700      	str	r7, [sp, #0]
   d599e:	4628      	mov	r0, r5

  static char SOGlabel[] = "SOG";
  initDataValue(NMEA_SOG, SOGlabel, BoatSpeedfmt, Speedunit);
   d59a0:	4f9c      	ldr	r7, [pc, #624]	; (d5c14 <_ZN12Adafruit_GPS9data_initEv+0x2f8>)

  static char LATWPlabel[] = "WP Lat";
  initDataValue(NMEA_LATWP, LATWPlabel, LATfmt, LATunit, 0, NMEA_BOAT_ANGLE);

  static char LONWPlabel[] = "WP Lon";
  initDataValue(NMEA_LONWP, LONWPlabel, LATfmt, LATunit, 0, NMEA_BOAT_ANGLE);
   d59a2:	9401      	str	r4, [sp, #4]
   d59a4:	4b97      	ldr	r3, [pc, #604]	; (d5c04 <_ZN12Adafruit_GPS9data_initEv+0x2e8>)
   d59a6:	4a9c      	ldr	r2, [pc, #624]	; (d5c18 <_ZN12Adafruit_GPS9data_initEv+0x2fc>)
   d59a8:	2104      	movs	r1, #4
   d59aa:	f7ff ff7f 	bl	d58ac <_ZN12Adafruit_GPS13initDataValueE12nmea_index_tPcS1_S1_m17nmea_value_type_t>
  initDataValue(NMEA_SOG, SOGlabel, BoatSpeedfmt, Speedunit);

  static char COGlabel[] = "COG";
  // types with sin/cos need two extra spots in the values matrix!
  initDataValue(NMEA_COG, COGlabel, Anglefmt, TrueAngleunit, 0,
                NMEA_COMPASS_ANGLE_SIN); // type: 0-360 angle with sin/cos 11
   d59ae:	f04f 080b 	mov.w	r8, #11

  static char LONWPlabel[] = "WP Lon";
  initDataValue(NMEA_LONWP, LONWPlabel, LATfmt, LATunit, 0, NMEA_BOAT_ANGLE);

  static char SOGlabel[] = "SOG";
  initDataValue(NMEA_SOG, SOGlabel, BoatSpeedfmt, Speedunit);
   d59b2:	9700      	str	r7, [sp, #0]
   d59b4:	4628      	mov	r0, r5
   d59b6:	9402      	str	r4, [sp, #8]
   d59b8:	9401      	str	r4, [sp, #4]
   d59ba:	4b98      	ldr	r3, [pc, #608]	; (d5c1c <_ZN12Adafruit_GPS9data_initEv+0x300>)
   d59bc:	4a98      	ldr	r2, [pc, #608]	; (d5c20 <_ZN12Adafruit_GPS9data_initEv+0x304>)
   d59be:	2105      	movs	r1, #5
   d59c0:	f7ff ff74 	bl	d58ac <_ZN12Adafruit_GPS13initDataValueE12nmea_index_tPcS1_S1_m17nmea_value_type_t>

  static char COGlabel[] = "COG";
  // types with sin/cos need two extra spots in the values matrix!
  initDataValue(NMEA_COG, COGlabel, Anglefmt, TrueAngleunit, 0,
                NMEA_COMPASS_ANGLE_SIN); // type: 0-360 angle with sin/cos 11
   d59c4:	f8cd 8008 	str.w	r8, [sp, #8]
   d59c8:	f8cd 9000 	str.w	r9, [sp]
   d59cc:	4628      	mov	r0, r5
   d59ce:	9401      	str	r4, [sp, #4]
   d59d0:	4b94      	ldr	r3, [pc, #592]	; (d5c24 <_ZN12Adafruit_GPS9data_initEv+0x308>)
   d59d2:	4a95      	ldr	r2, [pc, #596]	; (d5c28 <_ZN12Adafruit_GPS9data_initEv+0x30c>)
   d59d4:	2106      	movs	r1, #6
   d59d6:	f7ff ff69 	bl	d58ac <_ZN12Adafruit_GPS13initDataValueE12nmea_index_tPcS1_S1_m17nmea_value_type_t>

  static char COGWPlabel[] = "WP COG";
  initDataValue(NMEA_COGWP, COGWPlabel, Anglefmt, TrueAngleunit, 0,
                NMEA_COMPASS_ANGLE); // type: angle 0-360 1
   d59da:	2301      	movs	r3, #1
   d59dc:	9302      	str	r3, [sp, #8]
   d59de:	f8cd 9000 	str.w	r9, [sp]
   d59e2:	4628      	mov	r0, r5
   d59e4:	9401      	str	r4, [sp, #4]
   d59e6:	4b8f      	ldr	r3, [pc, #572]	; (d5c24 <_ZN12Adafruit_GPS9data_initEv+0x308>)
   d59e8:	4a90      	ldr	r2, [pc, #576]	; (d5c2c <_ZN12Adafruit_GPS9data_initEv+0x310>)
   d59ea:	2109      	movs	r1, #9
   d59ec:	f7ff ff5e 	bl	d58ac <_ZN12Adafruit_GPS13initDataValueE12nmea_index_tPcS1_S1_m17nmea_value_type_t>

  static char XTElabel[] = "XTE";
  static char XTEfmt[] = "%6.2f";
  static char XTEunit[] = "NM";
  initDataValue(NMEA_XTE, XTElabel, XTEfmt, XTEunit);
   d59f0:	f8cd a000 	str.w	sl, [sp]
   d59f4:	4628      	mov	r0, r5
   d59f6:	9402      	str	r4, [sp, #8]
   d59f8:	9401      	str	r4, [sp, #4]
   d59fa:	4b8d      	ldr	r3, [pc, #564]	; (d5c30 <_ZN12Adafruit_GPS9data_initEv+0x314>)
   d59fc:	4a8d      	ldr	r2, [pc, #564]	; (d5c34 <_ZN12Adafruit_GPS9data_initEv+0x318>)
   d59fe:	210a      	movs	r1, #10
   d5a00:	f7ff ff54 	bl	d58ac <_ZN12Adafruit_GPS13initDataValueE12nmea_index_tPcS1_S1_m17nmea_value_type_t>

  static char DISTWPlabel[] = "WP Dist";
  initDataValue(NMEA_DISTWP, DISTWPlabel, XTEfmt, XTEunit);
   d5a04:	f8cd a000 	str.w	sl, [sp]
   d5a08:	4641      	mov	r1, r8

  static char AWAlabel[] = "AWA";
  initDataValue(NMEA_AWA, AWAlabel, Anglefmt, BoatAngleunit, 0,
                NMEA_BOAT_ANGLE_SIN); // type: +-180 angle with sin/cos 12
   d5a0a:	f04f 0a0c 	mov.w	sl, #12
  static char XTEfmt[] = "%6.2f";
  static char XTEunit[] = "NM";
  initDataValue(NMEA_XTE, XTElabel, XTEfmt, XTEunit);

  static char DISTWPlabel[] = "WP Dist";
  initDataValue(NMEA_DISTWP, DISTWPlabel, XTEfmt, XTEunit);
   d5a0e:	4628      	mov	r0, r5
   d5a10:	9402      	str	r4, [sp, #8]
   d5a12:	9401      	str	r4, [sp, #4]
   d5a14:	4b86      	ldr	r3, [pc, #536]	; (d5c30 <_ZN12Adafruit_GPS9data_initEv+0x314>)
   d5a16:	4a88      	ldr	r2, [pc, #544]	; (d5c38 <_ZN12Adafruit_GPS9data_initEv+0x31c>)
   d5a18:	f7ff ff48 	bl	d58ac <_ZN12Adafruit_GPS13initDataValueE12nmea_index_tPcS1_S1_m17nmea_value_type_t>

  static char AWAlabel[] = "AWA";
  initDataValue(NMEA_AWA, AWAlabel, Anglefmt, BoatAngleunit, 0,
                NMEA_BOAT_ANGLE_SIN); // type: +-180 angle with sin/cos 12
   d5a1c:	f8cd a008 	str.w	sl, [sp, #8]
   d5a20:	4651      	mov	r1, sl
   d5a22:	4628      	mov	r0, r5
   d5a24:	9401      	str	r4, [sp, #4]
   d5a26:	f8cd b000 	str.w	fp, [sp]
   d5a2a:	4b7e      	ldr	r3, [pc, #504]	; (d5c24 <_ZN12Adafruit_GPS9data_initEv+0x308>)
   d5a2c:	4a83      	ldr	r2, [pc, #524]	; (d5c3c <_ZN12Adafruit_GPS9data_initEv+0x320>)
   d5a2e:	f7ff ff3d 	bl	d58ac <_ZN12Adafruit_GPS13initDataValueE12nmea_index_tPcS1_S1_m17nmea_value_type_t>

  static char AWSlabel[] = "AWS";
  initDataValue(NMEA_AWS, AWSlabel, WindSpeedfmt, Speedunit);
   d5a32:	9700      	str	r7, [sp, #0]
   d5a34:	4628      	mov	r0, r5
   d5a36:	9402      	str	r4, [sp, #8]
   d5a38:	9401      	str	r4, [sp, #4]
   d5a3a:	4b81      	ldr	r3, [pc, #516]	; (d5c40 <_ZN12Adafruit_GPS9data_initEv+0x324>)
   d5a3c:	4a81      	ldr	r2, [pc, #516]	; (d5c44 <_ZN12Adafruit_GPS9data_initEv+0x328>)
   d5a3e:	210f      	movs	r1, #15
   d5a40:	f7ff ff34 	bl	d58ac <_ZN12Adafruit_GPS13initDataValueE12nmea_index_tPcS1_S1_m17nmea_value_type_t>

  static char TWAlabel[] = "TWA";
  initDataValue(NMEA_TWA, TWAlabel, Anglefmt, BoatAngleunit, 0,
                NMEA_BOAT_ANGLE_SIN); // type: +-180 angle with sin/cos 12
   d5a44:	f8cd a008 	str.w	sl, [sp, #8]
   d5a48:	4628      	mov	r0, r5
   d5a4a:	9401      	str	r4, [sp, #4]
   d5a4c:	f8cd b000 	str.w	fp, [sp]
   d5a50:	4b74      	ldr	r3, [pc, #464]	; (d5c24 <_ZN12Adafruit_GPS9data_initEv+0x308>)
   d5a52:	4a7d      	ldr	r2, [pc, #500]	; (d5c48 <_ZN12Adafruit_GPS9data_initEv+0x32c>)
  initDataValue(NMEA_DEPTH, DEPTHlabel, DEPTHfmt, DEPTHunit);

  static char RPM_M1label[] = "Motor 1";
  static char RPM_M1fmt[] = "%6.0f";
  static char RPM_M1unit[] = "RPM";
  initDataValue(NMEA_RPM_M1, RPM_M1label, RPM_M1fmt, RPM_M1unit);
   d5a54:	f8df a28c 	ldr.w	sl, [pc, #652]	; d5ce4 <_ZN12Adafruit_GPS9data_initEv+0x3c8>
  static char AWSlabel[] = "AWS";
  initDataValue(NMEA_AWS, AWSlabel, WindSpeedfmt, Speedunit);

  static char TWAlabel[] = "TWA";
  initDataValue(NMEA_TWA, TWAlabel, Anglefmt, BoatAngleunit, 0,
                NMEA_BOAT_ANGLE_SIN); // type: +-180 angle with sin/cos 12
   d5a58:	2110      	movs	r1, #16
   d5a5a:	f7ff ff27 	bl	d58ac <_ZN12Adafruit_GPS13initDataValueE12nmea_index_tPcS1_S1_m17nmea_value_type_t>

  static char TWDlabel[] = "TWD";
  initDataValue(NMEA_TWD, TWDlabel, Anglefmt, TrueAngleunit, 0,
                NMEA_COMPASS_ANGLE_SIN); // type: 0-360 angle with sin/cos 11
   d5a5e:	f8cd 8008 	str.w	r8, [sp, #8]
   d5a62:	f8cd 9000 	str.w	r9, [sp]
   d5a66:	4628      	mov	r0, r5
   d5a68:	9401      	str	r4, [sp, #4]
   d5a6a:	4b6e      	ldr	r3, [pc, #440]	; (d5c24 <_ZN12Adafruit_GPS9data_initEv+0x308>)
   d5a6c:	4a77      	ldr	r2, [pc, #476]	; (d5c4c <_ZN12Adafruit_GPS9data_initEv+0x330>)
   d5a6e:	2113      	movs	r1, #19
   d5a70:	f7ff ff1c 	bl	d58ac <_ZN12Adafruit_GPS13initDataValueE12nmea_index_tPcS1_S1_m17nmea_value_type_t>

  static char TWSlabel[] = "TWS";
  initDataValue(NMEA_TWS, TWSlabel, WindSpeedfmt, Speedunit);
   d5a74:	9700      	str	r7, [sp, #0]
   d5a76:	4628      	mov	r0, r5
   d5a78:	9402      	str	r4, [sp, #8]
   d5a7a:	9401      	str	r4, [sp, #4]
   d5a7c:	4b70      	ldr	r3, [pc, #448]	; (d5c40 <_ZN12Adafruit_GPS9data_initEv+0x324>)
   d5a7e:	4a74      	ldr	r2, [pc, #464]	; (d5c50 <_ZN12Adafruit_GPS9data_initEv+0x334>)
   d5a80:	2116      	movs	r1, #22
   d5a82:	f7ff ff13 	bl	d58ac <_ZN12Adafruit_GPS13initDataValueE12nmea_index_tPcS1_S1_m17nmea_value_type_t>

  static char VMGlabel[] = "VMG";
  initDataValue(NMEA_VMG, VMGlabel, BoatSpeedfmt, Speedunit);
   d5a86:	9700      	str	r7, [sp, #0]
   d5a88:	4628      	mov	r0, r5
   d5a8a:	9402      	str	r4, [sp, #8]
   d5a8c:	9401      	str	r4, [sp, #4]
   d5a8e:	4b63      	ldr	r3, [pc, #396]	; (d5c1c <_ZN12Adafruit_GPS9data_initEv+0x300>)
   d5a90:	4a70      	ldr	r2, [pc, #448]	; (d5c54 <_ZN12Adafruit_GPS9data_initEv+0x338>)
   d5a92:	2117      	movs	r1, #23
   d5a94:	f7ff ff0a 	bl	d58ac <_ZN12Adafruit_GPS13initDataValueE12nmea_index_tPcS1_S1_m17nmea_value_type_t>

  static char VMGWPlabel[] = "WP VMG";
  initDataValue(NMEA_VMGWP, VMGWPlabel, BoatSpeedfmt, Speedunit);
   d5a98:	9700      	str	r7, [sp, #0]
   d5a9a:	4628      	mov	r0, r5
   d5a9c:	9402      	str	r4, [sp, #8]
   d5a9e:	9401      	str	r4, [sp, #4]
   d5aa0:	4b5e      	ldr	r3, [pc, #376]	; (d5c1c <_ZN12Adafruit_GPS9data_initEv+0x300>)
   d5aa2:	4a6d      	ldr	r2, [pc, #436]	; (d5c58 <_ZN12Adafruit_GPS9data_initEv+0x33c>)
   d5aa4:	2118      	movs	r1, #24
   d5aa6:	f7ff ff01 	bl	d58ac <_ZN12Adafruit_GPS13initDataValueE12nmea_index_tPcS1_S1_m17nmea_value_type_t>

  static char HEELlabel[] = "Heel";
  static char HEELunit[] = "Deg Stbd";
  initDataValue(NMEA_HEEL, HEELlabel, Anglefmt, HEELunit, 0,
                NMEA_BOAT_ANGLE); // type: angle +/-180 2
   d5aaa:	4b6c      	ldr	r3, [pc, #432]	; (d5c5c <_ZN12Adafruit_GPS9data_initEv+0x340>)
   d5aac:	9602      	str	r6, [sp, #8]
   d5aae:	9300      	str	r3, [sp, #0]
   d5ab0:	4628      	mov	r0, r5
   d5ab2:	9401      	str	r4, [sp, #4]
   d5ab4:	4b5b      	ldr	r3, [pc, #364]	; (d5c24 <_ZN12Adafruit_GPS9data_initEv+0x308>)
   d5ab6:	4a6a      	ldr	r2, [pc, #424]	; (d5c60 <_ZN12Adafruit_GPS9data_initEv+0x344>)
   d5ab8:	2119      	movs	r1, #25
   d5aba:	f7ff fef7 	bl	d58ac <_ZN12Adafruit_GPS13initDataValueE12nmea_index_tPcS1_S1_m17nmea_value_type_t>

  static char PITCHlabel[] = "Pitch";
  static char PITCHunit[] = "Deg Bow Up";
  initDataValue(NMEA_PITCH, PITCHlabel, Anglefmt, PITCHunit, 0,
                NMEA_BOAT_ANGLE); // type: angle +/-180 2
   d5abe:	4b69      	ldr	r3, [pc, #420]	; (d5c64 <_ZN12Adafruit_GPS9data_initEv+0x348>)
   d5ac0:	9602      	str	r6, [sp, #8]
   d5ac2:	9300      	str	r3, [sp, #0]
   d5ac4:	4628      	mov	r0, r5
   d5ac6:	9401      	str	r4, [sp, #4]
   d5ac8:	4b56      	ldr	r3, [pc, #344]	; (d5c24 <_ZN12Adafruit_GPS9data_initEv+0x308>)
   d5aca:	4a67      	ldr	r2, [pc, #412]	; (d5c68 <_ZN12Adafruit_GPS9data_initEv+0x34c>)
  initDataValue(NMEA_VTW, VTWlabel, BoatSpeedfmt, Speedunit);

  static char LOGlabel[] = "Log";
  static char LOGfmt[] = "%6.0f";
  static char LOGunit[] = "NM";
  initDataValue(NMEA_LOG, LOGlabel, LOGfmt, LOGunit);
   d5acc:	4e67      	ldr	r6, [pc, #412]	; (d5c6c <_ZN12Adafruit_GPS9data_initEv+0x350>)
                NMEA_BOAT_ANGLE); // type: angle +/-180 2

  static char PITCHlabel[] = "Pitch";
  static char PITCHunit[] = "Deg Bow Up";
  initDataValue(NMEA_PITCH, PITCHlabel, Anglefmt, PITCHunit, 0,
                NMEA_BOAT_ANGLE); // type: angle +/-180 2
   d5ace:	211a      	movs	r1, #26
   d5ad0:	f7ff feec 	bl	d58ac <_ZN12Adafruit_GPS13initDataValueE12nmea_index_tPcS1_S1_m17nmea_value_type_t>
  static char HDGlabel[] = "HDG";
  initDataValue(NMEA_HDG, HDGlabel, Anglefmt, MagAngleunit, 0,
                NMEA_COMPASS_ANGLE_SIN); // type: 0-360 angle with sin/cos 11
   d5ad4:	4b66      	ldr	r3, [pc, #408]	; (d5c70 <_ZN12Adafruit_GPS9data_initEv+0x354>)
   d5ad6:	f8cd 8008 	str.w	r8, [sp, #8]
   d5ada:	9300      	str	r3, [sp, #0]
   d5adc:	4628      	mov	r0, r5
   d5ade:	9401      	str	r4, [sp, #4]
   d5ae0:	4b50      	ldr	r3, [pc, #320]	; (d5c24 <_ZN12Adafruit_GPS9data_initEv+0x308>)
   d5ae2:	4a64      	ldr	r2, [pc, #400]	; (d5c74 <_ZN12Adafruit_GPS9data_initEv+0x358>)
   d5ae4:	211b      	movs	r1, #27
   d5ae6:	f7ff fee1 	bl	d58ac <_ZN12Adafruit_GPS13initDataValueE12nmea_index_tPcS1_S1_m17nmea_value_type_t>

  static char HDTlabel[] = "HDG";
  initDataValue(NMEA_HDT, HDTlabel, Anglefmt, TrueAngleunit, 0,
                NMEA_COMPASS_ANGLE_SIN); // type: 0-360 angle with sin/cos 11
   d5aea:	f8cd 8008 	str.w	r8, [sp, #8]
   d5aee:	f8cd 9000 	str.w	r9, [sp]
   d5af2:	4628      	mov	r0, r5
   d5af4:	9401      	str	r4, [sp, #4]
   d5af6:	4b4b      	ldr	r3, [pc, #300]	; (d5c24 <_ZN12Adafruit_GPS9data_initEv+0x308>)
   d5af8:	4a5f      	ldr	r2, [pc, #380]	; (d5c78 <_ZN12Adafruit_GPS9data_initEv+0x35c>)

  static char TEMPERATURE_M1label[] = "Temp 1";
  static char TEMPERATURE_M1fmt[] = "%6.0f";
  static char TEMPERATURE_M1unit[] = "Deg C";
  initDataValue(NMEA_TEMPERATURE_M1, TEMPERATURE_M1label, TEMPERATURE_M1fmt,
                TEMPERATURE_M1unit);
   d5afa:	f8df 91ec 	ldr.w	r9, [pc, #492]	; d5ce8 <_ZN12Adafruit_GPS9data_initEv+0x3cc>

  static char PRESSURE_M1label[] = "Oil 1";
  static char PRESSURE_M1fmt[] = "%6.0f";
  static char PRESSURE_M1unit[] = "kPa";
  initDataValue(NMEA_PRESSURE_M1, PRESSURE_M1label, PRESSURE_M1fmt,
                PRESSURE_M1unit);
   d5afe:	f8df 81ec 	ldr.w	r8, [pc, #492]	; d5cec <_ZN12Adafruit_GPS9data_initEv+0x3d0>
  initDataValue(NMEA_HDG, HDGlabel, Anglefmt, MagAngleunit, 0,
                NMEA_COMPASS_ANGLE_SIN); // type: 0-360 angle with sin/cos 11

  static char HDTlabel[] = "HDG";
  initDataValue(NMEA_HDT, HDTlabel, Anglefmt, TrueAngleunit, 0,
                NMEA_COMPASS_ANGLE_SIN); // type: 0-360 angle with sin/cos 11
   d5b02:	211e      	movs	r1, #30
   d5b04:	f7ff fed2 	bl	d58ac <_ZN12Adafruit_GPS13initDataValueE12nmea_index_tPcS1_S1_m17nmea_value_type_t>

  static char VTWlabel[] = "VTW";
  initDataValue(NMEA_VTW, VTWlabel, BoatSpeedfmt, Speedunit);
   d5b08:	9700      	str	r7, [sp, #0]
   d5b0a:	4628      	mov	r0, r5
   d5b0c:	9402      	str	r4, [sp, #8]
   d5b0e:	9401      	str	r4, [sp, #4]
   d5b10:	4b42      	ldr	r3, [pc, #264]	; (d5c1c <_ZN12Adafruit_GPS9data_initEv+0x300>)
   d5b12:	4a5a      	ldr	r2, [pc, #360]	; (d5c7c <_ZN12Adafruit_GPS9data_initEv+0x360>)

  static char VOLTAGE_M1label[] = "Motor 1";
  static char VOLTAGE_M1fmt[] = "%6.2f";
  static char VOLTAGE_M1unit[] = "Volts";
  initDataValue(NMEA_VOLTAGE_M1, VOLTAGE_M1label, VOLTAGE_M1fmt,
                VOLTAGE_M1unit);
   d5b14:	4f5a      	ldr	r7, [pc, #360]	; (d5c80 <_ZN12Adafruit_GPS9data_initEv+0x364>)
  static char HDTlabel[] = "HDG";
  initDataValue(NMEA_HDT, HDTlabel, Anglefmt, TrueAngleunit, 0,
                NMEA_COMPASS_ANGLE_SIN); // type: 0-360 angle with sin/cos 11

  static char VTWlabel[] = "VTW";
  initDataValue(NMEA_VTW, VTWlabel, BoatSpeedfmt, Speedunit);
   d5b16:	2121      	movs	r1, #33	; 0x21
   d5b18:	f7ff fec8 	bl	d58ac <_ZN12Adafruit_GPS13initDataValueE12nmea_index_tPcS1_S1_m17nmea_value_type_t>

  static char LOGlabel[] = "Log";
  static char LOGfmt[] = "%6.0f";
  static char LOGunit[] = "NM";
  initDataValue(NMEA_LOG, LOGlabel, LOGfmt, LOGunit);
   d5b1c:	9600      	str	r6, [sp, #0]
   d5b1e:	4628      	mov	r0, r5
   d5b20:	9402      	str	r4, [sp, #8]
   d5b22:	9401      	str	r4, [sp, #4]
   d5b24:	4b57      	ldr	r3, [pc, #348]	; (d5c84 <_ZN12Adafruit_GPS9data_initEv+0x368>)
   d5b26:	4a58      	ldr	r2, [pc, #352]	; (d5c88 <_ZN12Adafruit_GPS9data_initEv+0x36c>)
   d5b28:	2122      	movs	r1, #34	; 0x22
   d5b2a:	f7ff febf 	bl	d58ac <_ZN12Adafruit_GPS13initDataValueE12nmea_index_tPcS1_S1_m17nmea_value_type_t>

  static char LOGRlabel[] = "Trip";
  static char LOGRfmt[] = "%6.2f";
  initDataValue(NMEA_LOG, LOGRlabel, LOGRfmt, LOGunit);
   d5b2e:	9600      	str	r6, [sp, #0]
   d5b30:	4628      	mov	r0, r5
   d5b32:	9402      	str	r4, [sp, #8]
   d5b34:	9401      	str	r4, [sp, #4]
   d5b36:	4b55      	ldr	r3, [pc, #340]	; (d5c8c <_ZN12Adafruit_GPS9data_initEv+0x370>)
   d5b38:	4a55      	ldr	r2, [pc, #340]	; (d5c90 <_ZN12Adafruit_GPS9data_initEv+0x374>)

  static char CURRENT_M1label[] = "Motor 1";
  static char CURRENT_M1fmt[] = "%6.1f";
  static char CURRENT_M1unit[] = "Amps";
  initDataValue(NMEA_CURRENT_M1, CURRENT_M1label, CURRENT_M1fmt,
                CURRENT_M1unit);
   d5b3a:	4e56      	ldr	r6, [pc, #344]	; (d5c94 <_ZN12Adafruit_GPS9data_initEv+0x378>)
  static char LOGunit[] = "NM";
  initDataValue(NMEA_LOG, LOGlabel, LOGfmt, LOGunit);

  static char LOGRlabel[] = "Trip";
  static char LOGRfmt[] = "%6.2f";
  initDataValue(NMEA_LOG, LOGRlabel, LOGRfmt, LOGunit);
   d5b3c:	2122      	movs	r1, #34	; 0x22
   d5b3e:	f7ff feb5 	bl	d58ac <_ZN12Adafruit_GPS13initDataValueE12nmea_index_tPcS1_S1_m17nmea_value_type_t>

  static char DEPTHlabel[] = "Depth";
  static char DEPTHfmt[] = "%6.1f";
  static char DEPTHunit[] = "m";
  initDataValue(NMEA_DEPTH, DEPTHlabel, DEPTHfmt, DEPTHunit);
   d5b42:	4b55      	ldr	r3, [pc, #340]	; (d5c98 <_ZN12Adafruit_GPS9data_initEv+0x37c>)
   d5b44:	9300      	str	r3, [sp, #0]
   d5b46:	4628      	mov	r0, r5
   d5b48:	9402      	str	r4, [sp, #8]
   d5b4a:	9401      	str	r4, [sp, #4]
   d5b4c:	4b53      	ldr	r3, [pc, #332]	; (d5c9c <_ZN12Adafruit_GPS9data_initEv+0x380>)
   d5b4e:	4a54      	ldr	r2, [pc, #336]	; (d5ca0 <_ZN12Adafruit_GPS9data_initEv+0x384>)
   d5b50:	2124      	movs	r1, #36	; 0x24
   d5b52:	f7ff feab 	bl	d58ac <_ZN12Adafruit_GPS13initDataValueE12nmea_index_tPcS1_S1_m17nmea_value_type_t>

  static char RPM_M1label[] = "Motor 1";
  static char RPM_M1fmt[] = "%6.0f";
  static char RPM_M1unit[] = "RPM";
  initDataValue(NMEA_RPM_M1, RPM_M1label, RPM_M1fmt, RPM_M1unit);
   d5b56:	4628      	mov	r0, r5
   d5b58:	9402      	str	r4, [sp, #8]
   d5b5a:	9401      	str	r4, [sp, #4]
   d5b5c:	f8cd a000 	str.w	sl, [sp]
   d5b60:	4b50      	ldr	r3, [pc, #320]	; (d5ca4 <_ZN12Adafruit_GPS9data_initEv+0x388>)
   d5b62:	4a51      	ldr	r2, [pc, #324]	; (d5ca8 <_ZN12Adafruit_GPS9data_initEv+0x38c>)
   d5b64:	2125      	movs	r1, #37	; 0x25
   d5b66:	f7ff fea1 	bl	d58ac <_ZN12Adafruit_GPS13initDataValueE12nmea_index_tPcS1_S1_m17nmea_value_type_t>

  static char TEMPERATURE_M1label[] = "Temp 1";
  static char TEMPERATURE_M1fmt[] = "%6.0f";
  static char TEMPERATURE_M1unit[] = "Deg C";
  initDataValue(NMEA_TEMPERATURE_M1, TEMPERATURE_M1label, TEMPERATURE_M1fmt,
                TEMPERATURE_M1unit);
   d5b6a:	4628      	mov	r0, r5
   d5b6c:	9402      	str	r4, [sp, #8]
   d5b6e:	9401      	str	r4, [sp, #4]
   d5b70:	f8cd 9000 	str.w	r9, [sp]
   d5b74:	4b4d      	ldr	r3, [pc, #308]	; (d5cac <_ZN12Adafruit_GPS9data_initEv+0x390>)
   d5b76:	4a4e      	ldr	r2, [pc, #312]	; (d5cb0 <_ZN12Adafruit_GPS9data_initEv+0x394>)
   d5b78:	2126      	movs	r1, #38	; 0x26
   d5b7a:	f7ff fe97 	bl	d58ac <_ZN12Adafruit_GPS13initDataValueE12nmea_index_tPcS1_S1_m17nmea_value_type_t>

  static char PRESSURE_M1label[] = "Oil 1";
  static char PRESSURE_M1fmt[] = "%6.0f";
  static char PRESSURE_M1unit[] = "kPa";
  initDataValue(NMEA_PRESSURE_M1, PRESSURE_M1label, PRESSURE_M1fmt,
                PRESSURE_M1unit);
   d5b7e:	4628      	mov	r0, r5
   d5b80:	9402      	str	r4, [sp, #8]
   d5b82:	9401      	str	r4, [sp, #4]
   d5b84:	f8cd 8000 	str.w	r8, [sp]
   d5b88:	4b4a      	ldr	r3, [pc, #296]	; (d5cb4 <_ZN12Adafruit_GPS9data_initEv+0x398>)
   d5b8a:	4a4b      	ldr	r2, [pc, #300]	; (d5cb8 <_ZN12Adafruit_GPS9data_initEv+0x39c>)
   d5b8c:	2127      	movs	r1, #39	; 0x27
   d5b8e:	f7ff fe8d 	bl	d58ac <_ZN12Adafruit_GPS13initDataValueE12nmea_index_tPcS1_S1_m17nmea_value_type_t>

  static char VOLTAGE_M1label[] = "Motor 1";
  static char VOLTAGE_M1fmt[] = "%6.2f";
  static char VOLTAGE_M1unit[] = "Volts";
  initDataValue(NMEA_VOLTAGE_M1, VOLTAGE_M1label, VOLTAGE_M1fmt,
                VOLTAGE_M1unit);
   d5b92:	4628      	mov	r0, r5
   d5b94:	9402      	str	r4, [sp, #8]
   d5b96:	9401      	str	r4, [sp, #4]
   d5b98:	9700      	str	r7, [sp, #0]
   d5b9a:	4b48      	ldr	r3, [pc, #288]	; (d5cbc <_ZN12Adafruit_GPS9data_initEv+0x3a0>)
   d5b9c:	4a48      	ldr	r2, [pc, #288]	; (d5cc0 <_ZN12Adafruit_GPS9data_initEv+0x3a4>)
   d5b9e:	2128      	movs	r1, #40	; 0x28
   d5ba0:	f7ff fe84 	bl	d58ac <_ZN12Adafruit_GPS13initDataValueE12nmea_index_tPcS1_S1_m17nmea_value_type_t>

  static char CURRENT_M1label[] = "Motor 1";
  static char CURRENT_M1fmt[] = "%6.1f";
  static char CURRENT_M1unit[] = "Amps";
  initDataValue(NMEA_CURRENT_M1, CURRENT_M1label, CURRENT_M1fmt,
                CURRENT_M1unit);
   d5ba4:	4628      	mov	r0, r5
   d5ba6:	9402      	str	r4, [sp, #8]
   d5ba8:	9401      	str	r4, [sp, #4]
   d5baa:	9600      	str	r6, [sp, #0]
   d5bac:	4b45      	ldr	r3, [pc, #276]	; (d5cc4 <_ZN12Adafruit_GPS9data_initEv+0x3a8>)
   d5bae:	4a46      	ldr	r2, [pc, #280]	; (d5cc8 <_ZN12Adafruit_GPS9data_initEv+0x3ac>)
   d5bb0:	2129      	movs	r1, #41	; 0x29
   d5bb2:	f7ff fe7b 	bl	d58ac <_ZN12Adafruit_GPS13initDataValueE12nmea_index_tPcS1_S1_m17nmea_value_type_t>

  static char RPM_M2label[] = "Motor 2";
  initDataValue(NMEA_RPM_M2, RPM_M2label, RPM_M1fmt, RPM_M1unit);
   d5bb6:	4628      	mov	r0, r5
   d5bb8:	9402      	str	r4, [sp, #8]
   d5bba:	9401      	str	r4, [sp, #4]
   d5bbc:	f8cd a000 	str.w	sl, [sp]
   d5bc0:	4b38      	ldr	r3, [pc, #224]	; (d5ca4 <_ZN12Adafruit_GPS9data_initEv+0x388>)
   d5bc2:	4a42      	ldr	r2, [pc, #264]	; (d5ccc <_ZN12Adafruit_GPS9data_initEv+0x3b0>)
   d5bc4:	212a      	movs	r1, #42	; 0x2a
   d5bc6:	f7ff fe71 	bl	d58ac <_ZN12Adafruit_GPS13initDataValueE12nmea_index_tPcS1_S1_m17nmea_value_type_t>

  static char TEMPERATURE_M2label[] = "Temp 2";
  initDataValue(NMEA_TEMPERATURE_M2, TEMPERATURE_M2label, TEMPERATURE_M1fmt,
                TEMPERATURE_M1unit);
   d5bca:	4628      	mov	r0, r5
   d5bcc:	9402      	str	r4, [sp, #8]
   d5bce:	9401      	str	r4, [sp, #4]
   d5bd0:	f8cd 9000 	str.w	r9, [sp]
   d5bd4:	4b35      	ldr	r3, [pc, #212]	; (d5cac <_ZN12Adafruit_GPS9data_initEv+0x390>)
   d5bd6:	4a3e      	ldr	r2, [pc, #248]	; (d5cd0 <_ZN12Adafruit_GPS9data_initEv+0x3b4>)
   d5bd8:	212b      	movs	r1, #43	; 0x2b
   d5bda:	f7ff fe67 	bl	d58ac <_ZN12Adafruit_GPS13initDataValueE12nmea_index_tPcS1_S1_m17nmea_value_type_t>

  static char PRESSURE_M2label[] = "Oil 2";
  initDataValue(NMEA_PRESSURE_M2, PRESSURE_M2label, PRESSURE_M1fmt,
                PRESSURE_M1unit);
   d5bde:	4628      	mov	r0, r5
   d5be0:	9402      	str	r4, [sp, #8]
   d5be2:	9401      	str	r4, [sp, #4]
   d5be4:	f8cd 8000 	str.w	r8, [sp]
   d5be8:	4b32      	ldr	r3, [pc, #200]	; (d5cb4 <_ZN12Adafruit_GPS9data_initEv+0x398>)
   d5bea:	4a3a      	ldr	r2, [pc, #232]	; (d5cd4 <_ZN12Adafruit_GPS9data_initEv+0x3b8>)
   d5bec:	212c      	movs	r1, #44	; 0x2c
   d5bee:	f7ff fe5d 	bl	d58ac <_ZN12Adafruit_GPS13initDataValueE12nmea_index_tPcS1_S1_m17nmea_value_type_t>

  static char VOLTAGE_M2label[] = "Motor 2";
  initDataValue(NMEA_VOLTAGE_M2, VOLTAGE_M2label, VOLTAGE_M1fmt,
                VOLTAGE_M1unit);
   d5bf2:	4628      	mov	r0, r5
   d5bf4:	e07c      	b.n	d5cf0 <_ZN12Adafruit_GPS9data_initEv+0x3d4>
   d5bf6:	bf00      	nop
   d5bf8:	2003d501 	.word	0x2003d501
   d5bfc:	2003d47a 	.word	0x2003d47a
   d5c00:	2003d51b 	.word	0x2003d51b
   d5c04:	2003d4f3 	.word	0x2003d4f3
   d5c08:	2003d490 	.word	0x2003d490
   d5c0c:	2003d52c 	.word	0x2003d52c
   d5c10:	2003d574 	.word	0x2003d574
   d5c14:	2003d55a 	.word	0x2003d55a
   d5c18:	2003d4a2 	.word	0x2003d4a2
   d5c1c:	2003d4d3 	.word	0x2003d4d3
   d5c20:	2003d43d 	.word	0x2003d43d
   d5c24:	2003d554 	.word	0x2003d554
   d5c28:	2003d44b 	.word	0x2003d44b
   d5c2c:	2003d3f8 	.word	0x2003d3f8
   d5c30:	2003d4b7 	.word	0x2003d4b7
   d5c34:	2003d4b3 	.word	0x2003d4b3
   d5c38:	2003d4eb 	.word	0x2003d4eb
   d5c3c:	2003d509 	.word	0x2003d509
   d5c40:	2003d515 	.word	0x2003d515
   d5c44:	2003d40a 	.word	0x2003d40a
   d5c48:	2003d505 	.word	0x2003d505
   d5c4c:	2003d542 	.word	0x2003d542
   d5c50:	2003d5ad 	.word	0x2003d5ad
   d5c54:	2003d4a9 	.word	0x2003d4a9
   d5c58:	2003d4c1 	.word	0x2003d4c1
   d5c5c:	2003d4dc 	.word	0x2003d4dc
   d5c60:	2003d41c 	.word	0x2003d41c
   d5c64:	2003d5a2 	.word	0x2003d5a2
   d5c68:	2003d435 	.word	0x2003d435
   d5c6c:	2003d4d9 	.word	0x2003d4d9
   d5c70:	2003d546 	.word	0x2003d546
   d5c74:	2003d476 	.word	0x2003d476
   d5c78:	2003d48c 	.word	0x2003d48c
   d5c7c:	2003d3f4 	.word	0x2003d3f4
   d5c80:	2003d45c 	.word	0x2003d45c
   d5c84:	2003d462 	.word	0x2003d462
   d5c88:	2003d4bd 	.word	0x2003d4bd
   d5c8c:	2003d4ad 	.word	0x2003d4ad
   d5c90:	2003d405 	.word	0x2003d405
   d5c94:	2003d4c8 	.word	0x2003d4c8
   d5c98:	2003d43b 	.word	0x2003d43b
   d5c9c:	2003d49c 	.word	0x2003d49c
   d5ca0:	2003d4e5 	.word	0x2003d4e5
   d5ca4:	2003d530 	.word	0x2003d530
   d5ca8:	2003d46e 	.word	0x2003d46e
   d5cac:	2003d59c 	.word	0x2003d59c
   d5cb0:	2003d56d 	.word	0x2003d56d
   d5cb4:	2003d520 	.word	0x2003d520
   d5cb8:	2003d456 	.word	0x2003d456
   d5cbc:	2003d40e 	.word	0x2003d40e
   d5cc0:	2003d414 	.word	0x2003d414
   d5cc4:	2003d429 	.word	0x2003d429
   d5cc8:	2003d50d 	.word	0x2003d50d
   d5ccc:	2003d4f9 	.word	0x2003d4f9
   d5cd0:	2003d44f 	.word	0x2003d44f
   d5cd4:	2003d3ff 	.word	0x2003d3ff
   d5cd8:	2003d483 	.word	0x2003d483
   d5cdc:	2003d536 	.word	0x2003d536
   d5ce0:	2003d494 	.word	0x2003d494
   d5ce4:	2003d425 	.word	0x2003d425
   d5ce8:	2003d596 	.word	0x2003d596
   d5cec:	2003d421 	.word	0x2003d421
   d5cf0:	9402      	str	r4, [sp, #8]
   d5cf2:	9401      	str	r4, [sp, #4]
   d5cf4:	9700      	str	r7, [sp, #0]
   d5cf6:	4b1c      	ldr	r3, [pc, #112]	; (d5d68 <_ZN12Adafruit_GPS9data_initEv+0x44c>)
   d5cf8:	4a1c      	ldr	r2, [pc, #112]	; (d5d6c <_ZN12Adafruit_GPS9data_initEv+0x450>)
   d5cfa:	212d      	movs	r1, #45	; 0x2d
   d5cfc:	f7ff fdd6 	bl	d58ac <_ZN12Adafruit_GPS13initDataValueE12nmea_index_tPcS1_S1_m17nmea_value_type_t>

  static char CURRENT_M2label[] = "Motor 2";
  initDataValue(NMEA_CURRENT_M2, CURRENT_M2label, CURRENT_M1fmt,
                CURRENT_M1unit);
   d5d00:	4628      	mov	r0, r5
   d5d02:	9402      	str	r4, [sp, #8]
   d5d04:	9401      	str	r4, [sp, #4]
   d5d06:	9600      	str	r6, [sp, #0]
   d5d08:	4b19      	ldr	r3, [pc, #100]	; (d5d70 <_ZN12Adafruit_GPS9data_initEv+0x454>)
   d5d0a:	4a1a      	ldr	r2, [pc, #104]	; (d5d74 <_ZN12Adafruit_GPS9data_initEv+0x458>)
   d5d0c:	212e      	movs	r1, #46	; 0x2e
   d5d0e:	f7ff fdcd 	bl	d58ac <_ZN12Adafruit_GPS13initDataValueE12nmea_index_tPcS1_S1_m17nmea_value_type_t>

  static char TEMPERATURE_AIRlabel[] = "Air";
  static char TEMPERATURE_AIRfmt[] = "%6.1f";
  static char TEMPERATURE_AIRunit[] = "Deg C";
  initDataValue(NMEA_TEMPERATURE_AIR, TEMPERATURE_AIRlabel, TEMPERATURE_AIRfmt,
                TEMPERATURE_AIRunit);
   d5d12:	4b19      	ldr	r3, [pc, #100]	; (d5d78 <_ZN12Adafruit_GPS9data_initEv+0x45c>)
   d5d14:	9300      	str	r3, [sp, #0]
   d5d16:	4628      	mov	r0, r5
   d5d18:	9402      	str	r4, [sp, #8]
   d5d1a:	9401      	str	r4, [sp, #4]
   d5d1c:	4b17      	ldr	r3, [pc, #92]	; (d5d7c <_ZN12Adafruit_GPS9data_initEv+0x460>)
   d5d1e:	4a18      	ldr	r2, [pc, #96]	; (d5d80 <_ZN12Adafruit_GPS9data_initEv+0x464>)
   d5d20:	212f      	movs	r1, #47	; 0x2f
   d5d22:	f7ff fdc3 	bl	d58ac <_ZN12Adafruit_GPS13initDataValueE12nmea_index_tPcS1_S1_m17nmea_value_type_t>

  static char TEMPERATURE_WATERlabel[] = "Water";
  static char TEMPERATURE_WATERfmt[] = "%6.1f";
  static char TEMPERATURE_WATERunit[] = "Deg C";
  initDataValue(NMEA_TEMPERATURE_WATER, TEMPERATURE_WATERlabel,
                TEMPERATURE_WATERfmt, TEMPERATURE_WATERunit);
   d5d26:	4b17      	ldr	r3, [pc, #92]	; (d5d84 <_ZN12Adafruit_GPS9data_initEv+0x468>)
   d5d28:	9300      	str	r3, [sp, #0]
   d5d2a:	4628      	mov	r0, r5
   d5d2c:	9402      	str	r4, [sp, #8]
   d5d2e:	9401      	str	r4, [sp, #4]
   d5d30:	4b15      	ldr	r3, [pc, #84]	; (d5d88 <_ZN12Adafruit_GPS9data_initEv+0x46c>)
   d5d32:	4a16      	ldr	r2, [pc, #88]	; (d5d8c <_ZN12Adafruit_GPS9data_initEv+0x470>)
   d5d34:	2130      	movs	r1, #48	; 0x30
   d5d36:	f7ff fdb9 	bl	d58ac <_ZN12Adafruit_GPS13initDataValueE12nmea_index_tPcS1_S1_m17nmea_value_type_t>

  static char HUMIDITYlabel[] = "Humidity";
  static char HUMIDITYfmt[] = "%6.0f";
  static char HUMIDITYunit[] = "% RH";
  initDataValue(NMEA_HUMIDITY, HUMIDITYlabel, HUMIDITYfmt, HUMIDITYunit);
   d5d3a:	4b15      	ldr	r3, [pc, #84]	; (d5d90 <_ZN12Adafruit_GPS9data_initEv+0x474>)
   d5d3c:	9300      	str	r3, [sp, #0]
   d5d3e:	4628      	mov	r0, r5
   d5d40:	9402      	str	r4, [sp, #8]
   d5d42:	9401      	str	r4, [sp, #4]
   d5d44:	4b13      	ldr	r3, [pc, #76]	; (d5d94 <_ZN12Adafruit_GPS9data_initEv+0x478>)
   d5d46:	4a14      	ldr	r2, [pc, #80]	; (d5d98 <_ZN12Adafruit_GPS9data_initEv+0x47c>)
   d5d48:	2131      	movs	r1, #49	; 0x31
   d5d4a:	f7ff fdaf 	bl	d58ac <_ZN12Adafruit_GPS13initDataValueE12nmea_index_tPcS1_S1_m17nmea_value_type_t>

  static char BAROMETERlabel[] = "Barometer";
  static char BAROMETERfmt[] = "%6.0f";
  static char BAROMETERunit[] = "Pa";
  initDataValue(NMEA_BAROMETER, BAROMETERlabel, BAROMETERfmt, BAROMETERunit);
   d5d4e:	4b13      	ldr	r3, [pc, #76]	; (d5d9c <_ZN12Adafruit_GPS9data_initEv+0x480>)
   d5d50:	9300      	str	r3, [sp, #0]
   d5d52:	9402      	str	r4, [sp, #8]
   d5d54:	9401      	str	r4, [sp, #4]
   d5d56:	4b12      	ldr	r3, [pc, #72]	; (d5da0 <_ZN12Adafruit_GPS9data_initEv+0x484>)
   d5d58:	4a12      	ldr	r2, [pc, #72]	; (d5da4 <_ZN12Adafruit_GPS9data_initEv+0x488>)
   d5d5a:	2132      	movs	r1, #50	; 0x32
   d5d5c:	4628      	mov	r0, r5
   d5d5e:	f7ff fda5 	bl	d58ac <_ZN12Adafruit_GPS13initDataValueE12nmea_index_tPcS1_S1_m17nmea_value_type_t>
#endif // NMEA_EXTENSIONS
}
   d5d62:	b005      	add	sp, #20
   d5d64:	e8bd 8ff0 	ldmia.w	sp!, {r4, r5, r6, r7, r8, r9, sl, fp, pc}
   d5d68:	2003d40e 	.word	0x2003d40e
   d5d6c:	2003d588 	.word	0x2003d588
   d5d70:	2003d429 	.word	0x2003d429
   d5d74:	2003d57b 	.word	0x2003d57b
   d5d78:	2003d468 	.word	0x2003d468
   d5d7c:	2003d560 	.word	0x2003d560
   d5d80:	2003d569 	.word	0x2003d569
   d5d84:	2003d526 	.word	0x2003d526
   d5d88:	2003d54e 	.word	0x2003d54e
   d5d8c:	2003d42f 	.word	0x2003d42f
   d5d90:	2003d583 	.word	0x2003d583
   d5d94:	2003d4cd 	.word	0x2003d4cd
   d5d98:	2003d539 	.word	0x2003d539
   d5d9c:	2003d566 	.word	0x2003d566
   d5da0:	2003d590 	.word	0x2003d590
   d5da4:	2003d441 	.word	0x2003d441

000d5da8 <_ZN12Adafruit_GPS13removeHistoryE12nmea_index_t>:
    @param idx The data index for the value to have history removed
    @return none
*/
/**************************************************************************/
void Adafruit_GPS::removeHistory(nmea_index_t idx) {
  if (idx < NMEA_MAX_INDEX) {
   d5da8:	293f      	cmp	r1, #63	; 0x3f
    @brief Remove history from a data value table entry, if it has been added.
    @param idx The data index for the value to have history removed
    @return none
*/
/**************************************************************************/
void Adafruit_GPS::removeHistory(nmea_index_t idx) {
   d5daa:	b510      	push	{r4, lr}
  if (idx < NMEA_MAX_INDEX) {
   d5dac:	d80e      	bhi.n	d5dcc <_ZN12Adafruit_GPS13removeHistoryE12nmea_index_t+0x24>
   d5dae:	eb00 1441 	add.w	r4, r0, r1, lsl #5
    if (val[idx].hist == NULL)
   d5db2:	f8d4 30a0 	ldr.w	r3, [r4, #160]	; 0xa0
   d5db6:	b14b      	cbz	r3, d5dcc <_ZN12Adafruit_GPS13removeHistoryE12nmea_index_t+0x24>
      return;
    free(val[idx].hist->data);
   d5db8:	6818      	ldr	r0, [r3, #0]
   d5dba:	f000 fa91 	bl	d62e0 <free>
    free(val[idx].hist);
   d5dbe:	f8d4 00a0 	ldr.w	r0, [r4, #160]	; 0xa0
   d5dc2:	f000 fa8d 	bl	d62e0 <free>
    val[idx].hist = NULL;
   d5dc6:	2300      	movs	r3, #0
   d5dc8:	f8c4 30a0 	str.w	r3, [r4, #160]	; 0xa0
   d5dcc:	bd10      	pop	{r4, pc}

000d5dce <_GLOBAL__sub_I__ZN12Adafruit_GPS12newDataValueE12nmea_index_tf>:
   d5dce:	f000 b959 	b.w	d6084 <HAL_Pin_Map>
	...

000d5dd4 <HAL_USB_USART_Init>:
#endif

DYNALIB_BEGIN(hal_usb)

#ifdef USB_CDC_ENABLE
DYNALIB_FN(0, hal_usb, HAL_USB_USART_Init, void(HAL_USB_USART_Serial, const HAL_USB_USART_Config*))
   d5dd4:	b508      	push	{r3, lr}
   d5dd6:	4b02      	ldr	r3, [pc, #8]	; (d5de0 <HAL_USB_USART_Init+0xc>)
   d5dd8:	681b      	ldr	r3, [r3, #0]
   d5dda:	681b      	ldr	r3, [r3, #0]
   d5ddc:	9301      	str	r3, [sp, #4]
   d5dde:	bd08      	pop	{r3, pc}
   d5de0:	0003024c 	.word	0x0003024c

000d5de4 <HAL_USB_USART_Begin>:
DYNALIB_FN(1, hal_usb, HAL_USB_USART_Begin, void(HAL_USB_USART_Serial, uint32_t, void *))
   d5de4:	b508      	push	{r3, lr}
   d5de6:	4b02      	ldr	r3, [pc, #8]	; (d5df0 <HAL_USB_USART_Begin+0xc>)
   d5de8:	681b      	ldr	r3, [r3, #0]
   d5dea:	685b      	ldr	r3, [r3, #4]
   d5dec:	9301      	str	r3, [sp, #4]
   d5dee:	bd08      	pop	{r3, pc}
   d5df0:	0003024c 	.word	0x0003024c

000d5df4 <HAL_USB_USART_Available_Data>:
DYNALIB_FN(2, hal_usb, HAL_USB_USART_End, void(HAL_USB_USART_Serial))
DYNALIB_FN(3, hal_usb, HAL_USB_USART_Baud_Rate, unsigned int(HAL_USB_USART_Serial))
DYNALIB_FN(4, hal_usb, HAL_USB_USART_Available_Data, int32_t(HAL_USB_USART_Serial))
   d5df4:	b508      	push	{r3, lr}
   d5df6:	4b02      	ldr	r3, [pc, #8]	; (d5e00 <HAL_USB_USART_Available_Data+0xc>)
   d5df8:	681b      	ldr	r3, [r3, #0]
   d5dfa:	691b      	ldr	r3, [r3, #16]
   d5dfc:	9301      	str	r3, [sp, #4]
   d5dfe:	bd08      	pop	{r3, pc}
   d5e00:	0003024c 	.word	0x0003024c

000d5e04 <HAL_USB_USART_Available_Data_For_Write>:
DYNALIB_FN(5, hal_usb, HAL_USB_USART_Available_Data_For_Write, int32_t(HAL_USB_USART_Serial))
   d5e04:	b508      	push	{r3, lr}
   d5e06:	4b02      	ldr	r3, [pc, #8]	; (d5e10 <HAL_USB_USART_Available_Data_For_Write+0xc>)
   d5e08:	681b      	ldr	r3, [r3, #0]
   d5e0a:	695b      	ldr	r3, [r3, #20]
   d5e0c:	9301      	str	r3, [sp, #4]
   d5e0e:	bd08      	pop	{r3, pc}
   d5e10:	0003024c 	.word	0x0003024c

000d5e14 <HAL_USB_USART_Receive_Data>:
DYNALIB_FN(6, hal_usb, HAL_USB_USART_Receive_Data, int32_t(HAL_USB_USART_Serial, uint8_t))
   d5e14:	b508      	push	{r3, lr}
   d5e16:	4b02      	ldr	r3, [pc, #8]	; (d5e20 <HAL_USB_USART_Receive_Data+0xc>)
   d5e18:	681b      	ldr	r3, [r3, #0]
   d5e1a:	699b      	ldr	r3, [r3, #24]
   d5e1c:	9301      	str	r3, [sp, #4]
   d5e1e:	bd08      	pop	{r3, pc}
   d5e20:	0003024c 	.word	0x0003024c

000d5e24 <HAL_USB_USART_Send_Data>:
DYNALIB_FN(7, hal_usb, HAL_USB_USART_Send_Data, int32_t(HAL_USB_USART_Serial, uint8_t))
   d5e24:	b508      	push	{r3, lr}
   d5e26:	4b02      	ldr	r3, [pc, #8]	; (d5e30 <HAL_USB_USART_Send_Data+0xc>)
   d5e28:	681b      	ldr	r3, [r3, #0]
   d5e2a:	69db      	ldr	r3, [r3, #28]
   d5e2c:	9301      	str	r3, [sp, #4]
   d5e2e:	bd08      	pop	{r3, pc}
   d5e30:	0003024c 	.word	0x0003024c

000d5e34 <HAL_USB_USART_Flush_Data>:
DYNALIB_FN(8, hal_usb, HAL_USB_USART_Flush_Data, void(HAL_USB_USART_Serial))
   d5e34:	b508      	push	{r3, lr}
   d5e36:	4b02      	ldr	r3, [pc, #8]	; (d5e40 <HAL_USB_USART_Flush_Data+0xc>)
   d5e38:	681b      	ldr	r3, [r3, #0]
   d5e3a:	6a1b      	ldr	r3, [r3, #32]
   d5e3c:	9301      	str	r3, [sp, #4]
   d5e3e:	bd08      	pop	{r3, pc}
   d5e40:	0003024c 	.word	0x0003024c

000d5e44 <HAL_I2C_Begin>:
#endif

DYNALIB_FN(BASE_IDX + 0, hal_i2c, HAL_I2C_Set_Speed, void(HAL_I2C_Interface, uint32_t, void*))
DYNALIB_FN(BASE_IDX + 1, hal_i2c, HAL_I2C_Enable_DMA_Mode, void(HAL_I2C_Interface, bool, void*))
DYNALIB_FN(BASE_IDX + 2, hal_i2c, HAL_I2C_Stretch_Clock, void(HAL_I2C_Interface, bool, void*))
DYNALIB_FN(BASE_IDX + 3, hal_i2c, HAL_I2C_Begin, void(HAL_I2C_Interface, I2C_Mode, uint8_t, void*))
   d5e44:	b508      	push	{r3, lr}
   d5e46:	4b02      	ldr	r3, [pc, #8]	; (d5e50 <HAL_I2C_Begin+0xc>)
   d5e48:	681b      	ldr	r3, [r3, #0]
   d5e4a:	68db      	ldr	r3, [r3, #12]
   d5e4c:	9301      	str	r3, [sp, #4]
   d5e4e:	bd08      	pop	{r3, pc}
   d5e50:	00030228 	.word	0x00030228

000d5e54 <HAL_I2C_Begin_Transmission>:
DYNALIB_FN(BASE_IDX + 4, hal_i2c, HAL_I2C_End, void(HAL_I2C_Interface, void*))
DYNALIB_FN(BASE_IDX + 5, hal_i2c, HAL_I2C_Request_Data, uint32_t(HAL_I2C_Interface, uint8_t, uint8_t, uint8_t, void*))
DYNALIB_FN(BASE_IDX + 6, hal_i2c, HAL_I2C_Begin_Transmission, void(HAL_I2C_Interface, uint8_t, const HAL_I2C_Transmission_Config*))
   d5e54:	b508      	push	{r3, lr}
   d5e56:	4b02      	ldr	r3, [pc, #8]	; (d5e60 <HAL_I2C_Begin_Transmission+0xc>)
   d5e58:	681b      	ldr	r3, [r3, #0]
   d5e5a:	699b      	ldr	r3, [r3, #24]
   d5e5c:	9301      	str	r3, [sp, #4]
   d5e5e:	bd08      	pop	{r3, pc}
   d5e60:	00030228 	.word	0x00030228

000d5e64 <HAL_I2C_End_Transmission>:
DYNALIB_FN(BASE_IDX + 7, hal_i2c, HAL_I2C_End_Transmission, uint8_t(HAL_I2C_Interface, uint8_t, void*))
   d5e64:	b508      	push	{r3, lr}
   d5e66:	4b02      	ldr	r3, [pc, #8]	; (d5e70 <HAL_I2C_End_Transmission+0xc>)
   d5e68:	681b      	ldr	r3, [r3, #0]
   d5e6a:	69db      	ldr	r3, [r3, #28]
   d5e6c:	9301      	str	r3, [sp, #4]
   d5e6e:	bd08      	pop	{r3, pc}
   d5e70:	00030228 	.word	0x00030228

000d5e74 <HAL_I2C_Write_Data>:
DYNALIB_FN(BASE_IDX + 8, hal_i2c, HAL_I2C_Write_Data, uint32_t(HAL_I2C_Interface, uint8_t, void*))
   d5e74:	b508      	push	{r3, lr}
   d5e76:	4b02      	ldr	r3, [pc, #8]	; (d5e80 <HAL_I2C_Write_Data+0xc>)
   d5e78:	681b      	ldr	r3, [r3, #0]
   d5e7a:	6a1b      	ldr	r3, [r3, #32]
   d5e7c:	9301      	str	r3, [sp, #4]
   d5e7e:	bd08      	pop	{r3, pc}
   d5e80:	00030228 	.word	0x00030228

000d5e84 <HAL_I2C_Available_Data>:
DYNALIB_FN(BASE_IDX + 9, hal_i2c, HAL_I2C_Available_Data, int32_t(HAL_I2C_Interface, void*))
   d5e84:	b508      	push	{r3, lr}
   d5e86:	4b02      	ldr	r3, [pc, #8]	; (d5e90 <HAL_I2C_Available_Data+0xc>)
   d5e88:	681b      	ldr	r3, [r3, #0]
   d5e8a:	6a5b      	ldr	r3, [r3, #36]	; 0x24
   d5e8c:	9301      	str	r3, [sp, #4]
   d5e8e:	bd08      	pop	{r3, pc}
   d5e90:	00030228 	.word	0x00030228

000d5e94 <HAL_I2C_Read_Data>:
DYNALIB_FN(BASE_IDX + 10, hal_i2c, HAL_I2C_Read_Data, int32_t(HAL_I2C_Interface, void*))
   d5e94:	b508      	push	{r3, lr}
   d5e96:	4b02      	ldr	r3, [pc, #8]	; (d5ea0 <HAL_I2C_Read_Data+0xc>)
   d5e98:	681b      	ldr	r3, [r3, #0]
   d5e9a:	6a9b      	ldr	r3, [r3, #40]	; 0x28
   d5e9c:	9301      	str	r3, [sp, #4]
   d5e9e:	bd08      	pop	{r3, pc}
   d5ea0:	00030228 	.word	0x00030228

000d5ea4 <HAL_I2C_Peek_Data>:
DYNALIB_FN(BASE_IDX + 11, hal_i2c, HAL_I2C_Peek_Data, int32_t(HAL_I2C_Interface, void*))
   d5ea4:	b508      	push	{r3, lr}
   d5ea6:	4b02      	ldr	r3, [pc, #8]	; (d5eb0 <HAL_I2C_Peek_Data+0xc>)
   d5ea8:	681b      	ldr	r3, [r3, #0]
   d5eaa:	6adb      	ldr	r3, [r3, #44]	; 0x2c
   d5eac:	9301      	str	r3, [sp, #4]
   d5eae:	bd08      	pop	{r3, pc}
   d5eb0:	00030228 	.word	0x00030228

000d5eb4 <HAL_I2C_Flush_Data>:
DYNALIB_FN(BASE_IDX + 12, hal_i2c, HAL_I2C_Flush_Data, void(HAL_I2C_Interface, void*))
   d5eb4:	b508      	push	{r3, lr}
   d5eb6:	4b02      	ldr	r3, [pc, #8]	; (d5ec0 <HAL_I2C_Flush_Data+0xc>)
   d5eb8:	681b      	ldr	r3, [r3, #0]
   d5eba:	6b1b      	ldr	r3, [r3, #48]	; 0x30
   d5ebc:	9301      	str	r3, [sp, #4]
   d5ebe:	bd08      	pop	{r3, pc}
   d5ec0:	00030228 	.word	0x00030228

000d5ec4 <HAL_I2C_Is_Enabled>:
DYNALIB_FN(BASE_IDX + 13, hal_i2c, HAL_I2C_Is_Enabled, bool(HAL_I2C_Interface, void*))
   d5ec4:	b508      	push	{r3, lr}
   d5ec6:	4b02      	ldr	r3, [pc, #8]	; (d5ed0 <HAL_I2C_Is_Enabled+0xc>)
   d5ec8:	681b      	ldr	r3, [r3, #0]
   d5eca:	6b5b      	ldr	r3, [r3, #52]	; 0x34
   d5ecc:	9301      	str	r3, [sp, #4]
   d5ece:	bd08      	pop	{r3, pc}
   d5ed0:	00030228 	.word	0x00030228

000d5ed4 <HAL_I2C_Init>:
DYNALIB_FN(BASE_IDX + 14, hal_i2c, HAL_I2C_Set_Callback_On_Receive, void(HAL_I2C_Interface, void(*)(int), void*))
DYNALIB_FN(BASE_IDX + 15, hal_i2c, HAL_I2C_Set_Callback_On_Request, void(HAL_I2C_Interface, void(*)(void), void*))
DYNALIB_FN(BASE_IDX + 16, hal_i2c, HAL_I2C_Init, int(HAL_I2C_Interface, const HAL_I2C_Config*))
   d5ed4:	b508      	push	{r3, lr}
   d5ed6:	4b02      	ldr	r3, [pc, #8]	; (d5ee0 <HAL_I2C_Init+0xc>)
   d5ed8:	681b      	ldr	r3, [r3, #0]
   d5eda:	6c1b      	ldr	r3, [r3, #64]	; 0x40
   d5edc:	9301      	str	r3, [sp, #4]
   d5ede:	bd08      	pop	{r3, pc}
   d5ee0:	00030228 	.word	0x00030228

000d5ee4 <HAL_USART_Init>:
#define BASE_IDX 6 // Base index for all subsequent functions
#else
#define BASE_IDX 0
#endif

DYNALIB_FN(BASE_IDX + 0, hal_usart, HAL_USART_Init, void(HAL_USART_Serial, Ring_Buffer*, Ring_Buffer*))
   d5ee4:	b508      	push	{r3, lr}
   d5ee6:	4b02      	ldr	r3, [pc, #8]	; (d5ef0 <HAL_USART_Init+0xc>)
   d5ee8:	681b      	ldr	r3, [r3, #0]
   d5eea:	681b      	ldr	r3, [r3, #0]
   d5eec:	9301      	str	r3, [sp, #4]
   d5eee:	bd08      	pop	{r3, pc}
   d5ef0:	0003023c 	.word	0x0003023c

000d5ef4 <HAL_USART_Write_Data>:
DYNALIB_FN(BASE_IDX + 1, hal_usart, HAL_USART_Begin, void(HAL_USART_Serial, uint32_t))
DYNALIB_FN(BASE_IDX + 2, hal_usart, HAL_USART_End, void(HAL_USART_Serial))
DYNALIB_FN(BASE_IDX + 3, hal_usart, HAL_USART_Write_Data, uint32_t(HAL_USART_Serial, uint8_t))
   d5ef4:	b508      	push	{r3, lr}
   d5ef6:	4b02      	ldr	r3, [pc, #8]	; (d5f00 <HAL_USART_Write_Data+0xc>)
   d5ef8:	681b      	ldr	r3, [r3, #0]
   d5efa:	68db      	ldr	r3, [r3, #12]
   d5efc:	9301      	str	r3, [sp, #4]
   d5efe:	bd08      	pop	{r3, pc}
   d5f00:	0003023c 	.word	0x0003023c

000d5f04 <HAL_USART_Available_Data>:
DYNALIB_FN(BASE_IDX + 4, hal_usart, HAL_USART_Available_Data, int32_t(HAL_USART_Serial))
   d5f04:	b508      	push	{r3, lr}
   d5f06:	4b02      	ldr	r3, [pc, #8]	; (d5f10 <HAL_USART_Available_Data+0xc>)
   d5f08:	681b      	ldr	r3, [r3, #0]
   d5f0a:	691b      	ldr	r3, [r3, #16]
   d5f0c:	9301      	str	r3, [sp, #4]
   d5f0e:	bd08      	pop	{r3, pc}
   d5f10:	0003023c 	.word	0x0003023c

000d5f14 <HAL_USART_Read_Data>:
DYNALIB_FN(BASE_IDX + 5, hal_usart, HAL_USART_Read_Data, int32_t(HAL_USART_Serial))
   d5f14:	b508      	push	{r3, lr}
   d5f16:	4b02      	ldr	r3, [pc, #8]	; (d5f20 <HAL_USART_Read_Data+0xc>)
   d5f18:	681b      	ldr	r3, [r3, #0]
   d5f1a:	695b      	ldr	r3, [r3, #20]
   d5f1c:	9301      	str	r3, [sp, #4]
   d5f1e:	bd08      	pop	{r3, pc}
   d5f20:	0003023c 	.word	0x0003023c

000d5f24 <HAL_USART_Peek_Data>:
DYNALIB_FN(BASE_IDX + 6, hal_usart, HAL_USART_Peek_Data, int32_t(HAL_USART_Serial))
   d5f24:	b508      	push	{r3, lr}
   d5f26:	4b02      	ldr	r3, [pc, #8]	; (d5f30 <HAL_USART_Peek_Data+0xc>)
   d5f28:	681b      	ldr	r3, [r3, #0]
   d5f2a:	699b      	ldr	r3, [r3, #24]
   d5f2c:	9301      	str	r3, [sp, #4]
   d5f2e:	bd08      	pop	{r3, pc}
   d5f30:	0003023c 	.word	0x0003023c

000d5f34 <HAL_USART_Flush_Data>:
DYNALIB_FN(BASE_IDX + 7, hal_usart, HAL_USART_Flush_Data, void(HAL_USART_Serial))
   d5f34:	b508      	push	{r3, lr}
   d5f36:	4b02      	ldr	r3, [pc, #8]	; (d5f40 <HAL_USART_Flush_Data+0xc>)
   d5f38:	681b      	ldr	r3, [r3, #0]
   d5f3a:	69db      	ldr	r3, [r3, #28]
   d5f3c:	9301      	str	r3, [sp, #4]
   d5f3e:	bd08      	pop	{r3, pc}
   d5f40:	0003023c 	.word	0x0003023c

000d5f44 <HAL_USART_Is_Enabled>:
DYNALIB_FN(BASE_IDX + 8, hal_usart, HAL_USART_Is_Enabled, bool(HAL_USART_Serial))
   d5f44:	b508      	push	{r3, lr}
   d5f46:	4b02      	ldr	r3, [pc, #8]	; (d5f50 <HAL_USART_Is_Enabled+0xc>)
   d5f48:	681b      	ldr	r3, [r3, #0]
   d5f4a:	6a1b      	ldr	r3, [r3, #32]
   d5f4c:	9301      	str	r3, [sp, #4]
   d5f4e:	bd08      	pop	{r3, pc}
   d5f50:	0003023c 	.word	0x0003023c

000d5f54 <HAL_USART_Available_Data_For_Write>:
DYNALIB_FN(BASE_IDX + 9, hal_usart, HAL_USART_Half_Duplex, void(HAL_USART_Serial, bool))
DYNALIB_FN(BASE_IDX + 10, hal_usart, HAL_USART_Available_Data_For_Write, int32_t(HAL_USART_Serial))
   d5f54:	b508      	push	{r3, lr}
   d5f56:	4b02      	ldr	r3, [pc, #8]	; (d5f60 <HAL_USART_Available_Data_For_Write+0xc>)
   d5f58:	681b      	ldr	r3, [r3, #0]
   d5f5a:	6a9b      	ldr	r3, [r3, #40]	; 0x28
   d5f5c:	9301      	str	r3, [sp, #4]
   d5f5e:	bd08      	pop	{r3, pc}
   d5f60:	0003023c 	.word	0x0003023c

000d5f64 <HAL_USART_BeginConfig>:
#define BASE_IDX2 (BASE_IDX+13)
#else
#define BASE_IDX2 (BASE_IDX+11)
#endif

DYNALIB_FN(BASE_IDX2 + 0, hal_usart, HAL_USART_BeginConfig, void(HAL_USART_Serial serial, uint32_t baud, uint32_t config, void *ptr))
   d5f64:	b508      	push	{r3, lr}
   d5f66:	4b02      	ldr	r3, [pc, #8]	; (d5f70 <HAL_USART_BeginConfig+0xc>)
   d5f68:	681b      	ldr	r3, [r3, #0]
   d5f6a:	6adb      	ldr	r3, [r3, #44]	; 0x2c
   d5f6c:	9301      	str	r3, [sp, #4]
   d5f6e:	bd08      	pop	{r3, pc}
   d5f70:	0003023c 	.word	0x0003023c

000d5f74 <inet_inet_ntop>:
DYNALIB_FN(0, hal_inet, inet_inet_addr, in_addr_t(const char*))
DYNALIB_FN(1, hal_inet, inet_inet_aton, int(const char*, struct in_addr*))
DYNALIB_FN(2, hal_inet, inet_inet_network, in_addr_t(const char*))
DYNALIB_FN(3, hal_inet, inet_inet_ntoa, char*(struct in_addr))
DYNALIB_FN(4, hal_inet, inet_inet_ntoa_r, char*(struct in_addr, char*, socklen_t))
DYNALIB_FN(5, hal_inet, inet_inet_ntop, const char*(int, const void*, char*, socklen_t))
   d5f74:	b508      	push	{r3, lr}
   d5f76:	4b02      	ldr	r3, [pc, #8]	; (d5f80 <inet_inet_ntop+0xc>)
   d5f78:	681b      	ldr	r3, [r3, #0]
   d5f7a:	695b      	ldr	r3, [r3, #20]
   d5f7c:	9301      	str	r3, [sp, #4]
   d5f7e:	bd08      	pop	{r3, pc}
   d5f80:	00030264 	.word	0x00030264

000d5f84 <os_thread_is_current>:
DYNALIB_BEGIN(hal_concurrent)

#if PLATFORM_THREADING
DYNALIB_FN(0, hal_concurrent, __gthread_equal, bool(__gthread_t, __gthread_t))
DYNALIB_FN(1, hal_concurrent, os_thread_create, os_result_t(os_thread_t*, const char*, os_thread_prio_t, os_thread_fn_t, void*, size_t))
DYNALIB_FN(2, hal_concurrent, os_thread_is_current, bool(os_thread_t))
   d5f84:	b508      	push	{r3, lr}
   d5f86:	4b02      	ldr	r3, [pc, #8]	; (d5f90 <os_thread_is_current+0xc>)
   d5f88:	681b      	ldr	r3, [r3, #0]
   d5f8a:	689b      	ldr	r3, [r3, #8]
   d5f8c:	9301      	str	r3, [sp, #4]
   d5f8e:	bd08      	pop	{r3, pc}
   d5f90:	00030248 	.word	0x00030248

000d5f94 <os_thread_join>:
DYNALIB_FN(3, hal_concurrent, os_thread_yield, os_result_t(void))
DYNALIB_FN(4, hal_concurrent, os_thread_join, os_result_t(os_thread_t))
   d5f94:	b508      	push	{r3, lr}
   d5f96:	4b02      	ldr	r3, [pc, #8]	; (d5fa0 <os_thread_join+0xc>)
   d5f98:	681b      	ldr	r3, [r3, #0]
   d5f9a:	691b      	ldr	r3, [r3, #16]
   d5f9c:	9301      	str	r3, [sp, #4]
   d5f9e:	bd08      	pop	{r3, pc}
   d5fa0:	00030248 	.word	0x00030248

000d5fa4 <os_thread_cleanup>:
DYNALIB_FN(5, hal_concurrent, os_thread_cleanup, os_result_t(os_thread_t))
   d5fa4:	b508      	push	{r3, lr}
   d5fa6:	4b02      	ldr	r3, [pc, #8]	; (d5fb0 <os_thread_cleanup+0xc>)
   d5fa8:	681b      	ldr	r3, [r3, #0]
   d5faa:	695b      	ldr	r3, [r3, #20]
   d5fac:	9301      	str	r3, [sp, #4]
   d5fae:	bd08      	pop	{r3, pc}
   d5fb0:	00030248 	.word	0x00030248

000d5fb4 <os_mutex_recursive_create>:
DYNALIB_FN(13, hal_concurrent, os_mutex_destroy, int(os_mutex_t))
DYNALIB_FN(14, hal_concurrent, os_mutex_lock, int(os_mutex_t))
DYNALIB_FN(15, hal_concurrent, os_mutex_trylock, int(os_mutex_t))
DYNALIB_FN(16, hal_concurrent, os_mutex_unlock, int(os_mutex_t))

DYNALIB_FN(17, hal_concurrent, os_mutex_recursive_create, int(os_mutex_recursive_t*))
   d5fb4:	b508      	push	{r3, lr}
   d5fb6:	4b02      	ldr	r3, [pc, #8]	; (d5fc0 <os_mutex_recursive_create+0xc>)
   d5fb8:	681b      	ldr	r3, [r3, #0]
   d5fba:	6c5b      	ldr	r3, [r3, #68]	; 0x44
   d5fbc:	9301      	str	r3, [sp, #4]
   d5fbe:	bd08      	pop	{r3, pc}
   d5fc0:	00030248 	.word	0x00030248

000d5fc4 <os_mutex_recursive_destroy>:
DYNALIB_FN(18, hal_concurrent, os_mutex_recursive_destroy, int(os_mutex_recursive_t))
   d5fc4:	b508      	push	{r3, lr}
   d5fc6:	4b02      	ldr	r3, [pc, #8]	; (d5fd0 <os_mutex_recursive_destroy+0xc>)
   d5fc8:	681b      	ldr	r3, [r3, #0]
   d5fca:	6c9b      	ldr	r3, [r3, #72]	; 0x48
   d5fcc:	9301      	str	r3, [sp, #4]
   d5fce:	bd08      	pop	{r3, pc}
   d5fd0:	00030248 	.word	0x00030248

000d5fd4 <HAL_Core_System_Reset_Ex>:
DYNALIB_FN(21, hal_core, HAL_Core_Runtime_Info, uint32_t(runtime_info_t*, void*))
DYNALIB_FN(22, hal_core, HAL_Set_System_Config, int(hal_system_config_t, const void*, unsigned))
DYNALIB_FN(23, hal_core, HAL_Core_Enter_Safe_Mode, void(void*))
DYNALIB_FN(24, hal_core, HAL_Feature_Get, bool(HAL_Feature))
DYNALIB_FN(25, hal_core, HAL_Feature_Set, int(HAL_Feature, bool))
DYNALIB_FN(26, hal_core, HAL_Core_System_Reset_Ex, void(int, uint32_t, void*))
   d5fd4:	b508      	push	{r3, lr}
   d5fd6:	4b02      	ldr	r3, [pc, #8]	; (d5fe0 <HAL_Core_System_Reset_Ex+0xc>)
   d5fd8:	681b      	ldr	r3, [r3, #0]
   d5fda:	6e9b      	ldr	r3, [r3, #104]	; 0x68
   d5fdc:	9301      	str	r3, [sp, #4]
   d5fde:	bd08      	pop	{r3, pc}
   d5fe0:	00030234 	.word	0x00030234

000d5fe4 <HAL_RNG_GetRandomNumber>:

DYNALIB_BEGIN(hal)

#if PLATFORM_ID > 3
DYNALIB_FN(0, hal, HAL_RNG_Configuration, void(void))
DYNALIB_FN(1, hal, HAL_RNG_GetRandomNumber, uint32_t(void))
   d5fe4:	b508      	push	{r3, lr}
   d5fe6:	4b02      	ldr	r3, [pc, #8]	; (d5ff0 <HAL_RNG_GetRandomNumber+0xc>)
   d5fe8:	681b      	ldr	r3, [r3, #0]
   d5fea:	685b      	ldr	r3, [r3, #4]
   d5fec:	9301      	str	r3, [sp, #4]
   d5fee:	bd08      	pop	{r3, pc}
   d5ff0:	00030218 	.word	0x00030218

000d5ff4 <HAL_Timer_Get_Milli_Seconds>:
#endif

DYNALIB_FN(BASE_IDX + 0, hal, HAL_Delay_Milliseconds, void(uint32_t))
DYNALIB_FN(BASE_IDX + 1, hal, HAL_Delay_Microseconds, void(uint32_t))
DYNALIB_FN(BASE_IDX + 2, hal, HAL_Timer_Get_Micro_Seconds, system_tick_t(void))
DYNALIB_FN(BASE_IDX + 3, hal, HAL_Timer_Get_Milli_Seconds, system_tick_t(void))
   d5ff4:	b508      	push	{r3, lr}
   d5ff6:	4b02      	ldr	r3, [pc, #8]	; (d6000 <HAL_Timer_Get_Milli_Seconds+0xc>)
   d5ff8:	681b      	ldr	r3, [r3, #0]
   d5ffa:	695b      	ldr	r3, [r3, #20]
   d5ffc:	9301      	str	r3, [sp, #4]
   d5ffe:	bd08      	pop	{r3, pc}
   d6000:	00030218 	.word	0x00030218

000d6004 <HAL_SPI_Begin>:
// New HAL functions must be added to the end of this list.
// GNINRAW

DYNALIB_BEGIN(hal_spi)

DYNALIB_FN(0, hal_spi, HAL_SPI_Begin, void(HAL_SPI_Interface, uint16_t))
   d6004:	b508      	push	{r3, lr}
   d6006:	4b02      	ldr	r3, [pc, #8]	; (d6010 <HAL_SPI_Begin+0xc>)
   d6008:	681b      	ldr	r3, [r3, #0]
   d600a:	681b      	ldr	r3, [r3, #0]
   d600c:	9301      	str	r3, [sp, #4]
   d600e:	bd08      	pop	{r3, pc}
   d6010:	00030230 	.word	0x00030230

000d6014 <HAL_SPI_Send_Receive_Data>:
DYNALIB_FN(1, hal_spi, HAL_SPI_End, void(HAL_SPI_Interface))
DYNALIB_FN(2, hal_spi, HAL_SPI_Set_Bit_Order, void(HAL_SPI_Interface, uint8_t))
DYNALIB_FN(3, hal_spi, HAL_SPI_Set_Data_Mode, void(HAL_SPI_Interface, uint8_t))
DYNALIB_FN(4, hal_spi, HAL_SPI_Set_Clock_Divider, void(HAL_SPI_Interface, uint8_t))
DYNALIB_FN(5, hal_spi, HAL_SPI_Send_Receive_Data, uint16_t(HAL_SPI_Interface, uint16_t))
   d6014:	b508      	push	{r3, lr}
   d6016:	4b02      	ldr	r3, [pc, #8]	; (d6020 <HAL_SPI_Send_Receive_Data+0xc>)
   d6018:	681b      	ldr	r3, [r3, #0]
   d601a:	695b      	ldr	r3, [r3, #20]
   d601c:	9301      	str	r3, [sp, #4]
   d601e:	bd08      	pop	{r3, pc}
   d6020:	00030230 	.word	0x00030230

000d6024 <HAL_SPI_Init>:
DYNALIB_FN(6, hal_spi, HAL_SPI_Is_Enabled_Old, bool(void))
DYNALIB_FN(7, hal_spi, HAL_SPI_Init, void(HAL_SPI_Interface))
   d6024:	b508      	push	{r3, lr}
   d6026:	4b02      	ldr	r3, [pc, #8]	; (d6030 <HAL_SPI_Init+0xc>)
   d6028:	681b      	ldr	r3, [r3, #0]
   d602a:	69db      	ldr	r3, [r3, #28]
   d602c:	9301      	str	r3, [sp, #4]
   d602e:	bd08      	pop	{r3, pc}
   d6030:	00030230 	.word	0x00030230

000d6034 <HAL_SPI_Is_Enabled>:
DYNALIB_FN(8, hal_spi, HAL_SPI_Is_Enabled, bool(HAL_SPI_Interface))
   d6034:	b508      	push	{r3, lr}
   d6036:	4b02      	ldr	r3, [pc, #8]	; (d6040 <HAL_SPI_Is_Enabled+0xc>)
   d6038:	681b      	ldr	r3, [r3, #0]
   d603a:	6a1b      	ldr	r3, [r3, #32]
   d603c:	9301      	str	r3, [sp, #4]
   d603e:	bd08      	pop	{r3, pc}
   d6040:	00030230 	.word	0x00030230

000d6044 <HAL_SPI_Info>:
DYNALIB_FN(9, hal_spi, HAL_SPI_Info, void(HAL_SPI_Interface, hal_spi_info_t*, void*))
   d6044:	b508      	push	{r3, lr}
   d6046:	4b02      	ldr	r3, [pc, #8]	; (d6050 <HAL_SPI_Info+0xc>)
   d6048:	681b      	ldr	r3, [r3, #0]
   d604a:	6a5b      	ldr	r3, [r3, #36]	; 0x24
   d604c:	9301      	str	r3, [sp, #4]
   d604e:	bd08      	pop	{r3, pc}
   d6050:	00030230 	.word	0x00030230

000d6054 <HAL_SPI_Set_Settings>:
DYNALIB_FN(10, hal_spi, HAL_SPI_DMA_Transfer, void(HAL_SPI_Interface, void*, void*, uint32_t, HAL_SPI_DMA_UserCallback))
DYNALIB_FN(11, hal_spi, HAL_SPI_Begin_Ext, void(HAL_SPI_Interface, SPI_Mode, uint16_t, void*))
DYNALIB_FN(12, hal_spi, HAL_SPI_Set_Callback_On_Select, void(HAL_SPI_Interface, HAL_SPI_Select_UserCallback, void*))
DYNALIB_FN(13, hal_spi, HAL_SPI_DMA_Transfer_Cancel, void(HAL_SPI_Interface))
DYNALIB_FN(14, hal_spi, HAL_SPI_DMA_Transfer_Status, int32_t(HAL_SPI_Interface, HAL_SPI_TransferStatus*))
DYNALIB_FN(15, hal_spi, HAL_SPI_Set_Settings, int32_t(HAL_SPI_Interface, uint8_t, uint8_t, uint8_t, uint8_t, void*))
   d6054:	b508      	push	{r3, lr}
   d6056:	4b02      	ldr	r3, [pc, #8]	; (d6060 <HAL_SPI_Set_Settings+0xc>)
   d6058:	681b      	ldr	r3, [r3, #0]
   d605a:	6bdb      	ldr	r3, [r3, #60]	; 0x3c
   d605c:	9301      	str	r3, [sp, #4]
   d605e:	bd08      	pop	{r3, pc}
   d6060:	00030230 	.word	0x00030230

000d6064 <HAL_SPI_Acquire>:
#if HAL_PLATFORM_SPI_HAL_THREAD_SAFETY
DYNALIB_FN(16, hal_spi, HAL_SPI_Acquire, int32_t(HAL_SPI_Interface, const HAL_SPI_AcquireConfig*))
   d6064:	b508      	push	{r3, lr}
   d6066:	4b02      	ldr	r3, [pc, #8]	; (d6070 <HAL_SPI_Acquire+0xc>)
   d6068:	681b      	ldr	r3, [r3, #0]
   d606a:	6c1b      	ldr	r3, [r3, #64]	; 0x40
   d606c:	9301      	str	r3, [sp, #4]
   d606e:	bd08      	pop	{r3, pc}
   d6070:	00030230 	.word	0x00030230

000d6074 <HAL_SPI_Release>:
DYNALIB_FN(17, hal_spi, HAL_SPI_Release, int32_t(HAL_SPI_Interface, void*))
   d6074:	b508      	push	{r3, lr}
   d6076:	4b02      	ldr	r3, [pc, #8]	; (d6080 <HAL_SPI_Release+0xc>)
   d6078:	681b      	ldr	r3, [r3, #0]
   d607a:	6c5b      	ldr	r3, [r3, #68]	; 0x44
   d607c:	9301      	str	r3, [sp, #4]
   d607e:	bd08      	pop	{r3, pc}
   d6080:	00030230 	.word	0x00030230

000d6084 <HAL_Pin_Map>:
// New HAL functions must be added to the end of this list.
// GNINRAW

DYNALIB_BEGIN(hal_gpio)

DYNALIB_FN(0, hal_gpio, HAL_Pin_Map, Hal_Pin_Info*(void))
   d6084:	b508      	push	{r3, lr}
   d6086:	4b02      	ldr	r3, [pc, #8]	; (d6090 <HAL_Pin_Map+0xc>)
   d6088:	681b      	ldr	r3, [r3, #0]
   d608a:	681b      	ldr	r3, [r3, #0]
   d608c:	9301      	str	r3, [sp, #4]
   d608e:	bd08      	pop	{r3, pc}
   d6090:	0003022c 	.word	0x0003022c

000d6094 <HAL_Validate_Pin_Function>:
DYNALIB_FN(1, hal_gpio, HAL_Validate_Pin_Function, PinFunction(pin_t, PinFunction))
   d6094:	b508      	push	{r3, lr}
   d6096:	4b02      	ldr	r3, [pc, #8]	; (d60a0 <HAL_Validate_Pin_Function+0xc>)
   d6098:	681b      	ldr	r3, [r3, #0]
   d609a:	685b      	ldr	r3, [r3, #4]
   d609c:	9301      	str	r3, [sp, #4]
   d609e:	bd08      	pop	{r3, pc}
   d60a0:	0003022c 	.word	0x0003022c

000d60a4 <HAL_Pin_Mode>:
DYNALIB_FN(2, hal_gpio, HAL_Pin_Mode, void(pin_t, PinMode))
   d60a4:	b508      	push	{r3, lr}
   d60a6:	4b02      	ldr	r3, [pc, #8]	; (d60b0 <HAL_Pin_Mode+0xc>)
   d60a8:	681b      	ldr	r3, [r3, #0]
   d60aa:	689b      	ldr	r3, [r3, #8]
   d60ac:	9301      	str	r3, [sp, #4]
   d60ae:	bd08      	pop	{r3, pc}
   d60b0:	0003022c 	.word	0x0003022c

000d60b4 <HAL_Get_Pin_Mode>:
DYNALIB_FN(3, hal_gpio, HAL_Get_Pin_Mode, PinMode(pin_t))
   d60b4:	b508      	push	{r3, lr}
   d60b6:	4b02      	ldr	r3, [pc, #8]	; (d60c0 <HAL_Get_Pin_Mode+0xc>)
   d60b8:	681b      	ldr	r3, [r3, #0]
   d60ba:	68db      	ldr	r3, [r3, #12]
   d60bc:	9301      	str	r3, [sp, #4]
   d60be:	bd08      	pop	{r3, pc}
   d60c0:	0003022c 	.word	0x0003022c

000d60c4 <HAL_GPIO_Write>:
DYNALIB_FN(4, hal_gpio, HAL_GPIO_Write, void(pin_t, uint8_t))
   d60c4:	b508      	push	{r3, lr}
   d60c6:	4b02      	ldr	r3, [pc, #8]	; (d60d0 <HAL_GPIO_Write+0xc>)
   d60c8:	681b      	ldr	r3, [r3, #0]
   d60ca:	691b      	ldr	r3, [r3, #16]
   d60cc:	9301      	str	r3, [sp, #4]
   d60ce:	bd08      	pop	{r3, pc}
   d60d0:	0003022c 	.word	0x0003022c

000d60d4 <HAL_ADC_Read>:
DYNALIB_FN(8, hal_gpio, HAL_Interrupts_Enable_All, void(void))
DYNALIB_FN(9, hal_gpio, HAL_Interrupts_Disable_All, void(void))

DYNALIB_FN(10, hal_gpio, HAL_DAC_Write, void(pin_t, uint16_t))
DYNALIB_FN(11, hal_gpio, HAL_ADC_Set_Sample_Time, void(uint8_t))
DYNALIB_FN(12, hal_gpio, HAL_ADC_Read, int32_t(uint16_t))
   d60d4:	b508      	push	{r3, lr}
   d60d6:	4b02      	ldr	r3, [pc, #8]	; (d60e0 <HAL_ADC_Read+0xc>)
   d60d8:	681b      	ldr	r3, [r3, #0]
   d60da:	6b1b      	ldr	r3, [r3, #48]	; 0x30
   d60dc:	9301      	str	r3, [sp, #4]
   d60de:	bd08      	pop	{r3, pc}
   d60e0:	0003022c 	.word	0x0003022c

000d60e4 <netdb_freeaddrinfo>:

DYNALIB_BEGIN(hal_netdb)

DYNALIB_FN(0, hal_netdb, netdb_gethostbyname, struct hostent*(const char*))
DYNALIB_FN(1, hal_netdb, netdb_gethostbyname_r, int(const char*, struct hostent*, char*, size_t, struct hostent**, int*))
DYNALIB_FN(2, hal_netdb, netdb_freeaddrinfo, void(struct addrinfo*))
   d60e4:	b508      	push	{r3, lr}
   d60e6:	4b02      	ldr	r3, [pc, #8]	; (d60f0 <netdb_freeaddrinfo+0xc>)
   d60e8:	681b      	ldr	r3, [r3, #0]
   d60ea:	689b      	ldr	r3, [r3, #8]
   d60ec:	9301      	str	r3, [sp, #4]
   d60ee:	bd08      	pop	{r3, pc}
   d60f0:	00030268 	.word	0x00030268

000d60f4 <netdb_getaddrinfo>:
DYNALIB_FN(3, hal_netdb, netdb_getaddrinfo, int(const char*, const char*, const struct addrinfo*, struct addrinfo**))
   d60f4:	b508      	push	{r3, lr}
   d60f6:	4b02      	ldr	r3, [pc, #8]	; (d6100 <netdb_getaddrinfo+0xc>)
   d60f8:	681b      	ldr	r3, [r3, #0]
   d60fa:	68db      	ldr	r3, [r3, #12]
   d60fc:	9301      	str	r3, [sp, #4]
   d60fe:	bd08      	pop	{r3, pc}
   d6100:	00030268 	.word	0x00030268

000d6104 <LED_SetSignalingColor>:
#endif // defined(DYNALIB_EXPORT)

DYNALIB_BEGIN(services)

DYNALIB_FN(0, services, LED_SetRGBColor, void(uint32_t))
DYNALIB_FN(1, services, LED_SetSignalingColor, void(uint32_t))
   d6104:	b508      	push	{r3, lr}
   d6106:	4b02      	ldr	r3, [pc, #8]	; (d6110 <LED_SetSignalingColor+0xc>)
   d6108:	681b      	ldr	r3, [r3, #0]
   d610a:	685b      	ldr	r3, [r3, #4]
   d610c:	9301      	str	r3, [sp, #4]
   d610e:	bd08      	pop	{r3, pc}
   d6110:	00030260 	.word	0x00030260

000d6114 <LED_Signaling_Start>:
DYNALIB_FN(2, services, LED_Signaling_Start, void(void))
   d6114:	b508      	push	{r3, lr}
   d6116:	4b02      	ldr	r3, [pc, #8]	; (d6120 <LED_Signaling_Start+0xc>)
   d6118:	681b      	ldr	r3, [r3, #0]
   d611a:	689b      	ldr	r3, [r3, #8]
   d611c:	9301      	str	r3, [sp, #4]
   d611e:	bd08      	pop	{r3, pc}
   d6120:	00030260 	.word	0x00030260

000d6124 <LED_Signaling_Stop>:
DYNALIB_FN(3, services, LED_Signaling_Stop, void(void))
   d6124:	b508      	push	{r3, lr}
   d6126:	4b02      	ldr	r3, [pc, #8]	; (d6130 <LED_Signaling_Stop+0xc>)
   d6128:	681b      	ldr	r3, [r3, #0]
   d612a:	68db      	ldr	r3, [r3, #12]
   d612c:	9301      	str	r3, [sp, #4]
   d612e:	bd08      	pop	{r3, pc}
   d6130:	00030260 	.word	0x00030260

000d6134 <LED_SetBrightness>:
DYNALIB_FN(4, services, LED_SetBrightness, void(uint8_t))
   d6134:	b508      	push	{r3, lr}
   d6136:	4b02      	ldr	r3, [pc, #8]	; (d6140 <LED_SetBrightness+0xc>)
   d6138:	681b      	ldr	r3, [r3, #0]
   d613a:	691b      	ldr	r3, [r3, #16]
   d613c:	9301      	str	r3, [sp, #4]
   d613e:	bd08      	pop	{r3, pc}
   d6140:	00030260 	.word	0x00030260

000d6144 <LED_RGB_IsOverRidden>:
DYNALIB_FN(5, services, LED_RGB_Get, void(uint8_t*))
DYNALIB_FN(6, services, LED_RGB_IsOverRidden, bool(void))
   d6144:	b508      	push	{r3, lr}
   d6146:	4b02      	ldr	r3, [pc, #8]	; (d6150 <LED_RGB_IsOverRidden+0xc>)
   d6148:	681b      	ldr	r3, [r3, #0]
   d614a:	699b      	ldr	r3, [r3, #24]
   d614c:	9301      	str	r3, [sp, #4]
   d614e:	bd08      	pop	{r3, pc}
   d6150:	00030260 	.word	0x00030260

000d6154 <LED_On>:
DYNALIB_FN(7, services, LED_On, void(Led_TypeDef))
   d6154:	b508      	push	{r3, lr}
   d6156:	4b02      	ldr	r3, [pc, #8]	; (d6160 <LED_On+0xc>)
   d6158:	681b      	ldr	r3, [r3, #0]
   d615a:	69db      	ldr	r3, [r3, #28]
   d615c:	9301      	str	r3, [sp, #4]
   d615e:	bd08      	pop	{r3, pc}
   d6160:	00030260 	.word	0x00030260

000d6164 <log_message>:
DYNALIB_FN(16, services, log_print_, void(int, int, const char*, const char*, const char*, ...)) // Deprecated
DYNALIB_FN(17, services, LED_RGB_SetChangeHandler, void(led_update_handler_fn, void*))
DYNALIB_FN(18, services, log_print_direct_, void(int, void*, const char*, ...)) // Deprecated
DYNALIB_FN(19, services, LED_GetColor, uint32_t(uint32_t, void*))

DYNALIB_FN(20, services, log_message, void(int, const char*, LogAttributes*, void*, const char*, ...))
   d6164:	b508      	push	{r3, lr}
   d6166:	4b02      	ldr	r3, [pc, #8]	; (d6170 <log_message+0xc>)
   d6168:	681b      	ldr	r3, [r3, #0]
   d616a:	6d1b      	ldr	r3, [r3, #80]	; 0x50
   d616c:	9301      	str	r3, [sp, #4]
   d616e:	bd08      	pop	{r3, pc}
   d6170:	00030260 	.word	0x00030260

000d6174 <spark_cloud_flag_connected>:
DYNALIB_FN(0, system_cloud, spark_variable, bool(const char*, const void*, Spark_Data_TypeDef, spark_variable_t*))
DYNALIB_FN(1, system_cloud, spark_function, bool(const char*, p_user_function_int_str_t, void*))
DYNALIB_FN(2, system_cloud, spark_process, void(void))
DYNALIB_FN(3, system_cloud, spark_cloud_flag_connect, void(void))
DYNALIB_FN(4, system_cloud, spark_cloud_flag_disconnect, void(void))
DYNALIB_FN(5, system_cloud, spark_cloud_flag_connected, bool(void))
   d6174:	b508      	push	{r3, lr}
   d6176:	4b02      	ldr	r3, [pc, #8]	; (d6180 <spark_cloud_flag_connected+0xc>)
   d6178:	681b      	ldr	r3, [r3, #0]
   d617a:	695b      	ldr	r3, [r3, #20]
   d617c:	9301      	str	r3, [sp, #4]
   d617e:	bd08      	pop	{r3, pc}
   d6180:	00030244 	.word	0x00030244

000d6184 <spark_deviceID>:
DYNALIB_FN(6, system_cloud, system_cloud_protocol_instance, ProtocolFacade*(void))
DYNALIB_FN(7, system_cloud, spark_deviceID, String(void))
   d6184:	b508      	push	{r3, lr}
   d6186:	4b02      	ldr	r3, [pc, #8]	; (d6190 <spark_deviceID+0xc>)
   d6188:	681b      	ldr	r3, [r3, #0]
   d618a:	69db      	ldr	r3, [r3, #28]
   d618c:	9301      	str	r3, [sp, #4]
   d618e:	bd08      	pop	{r3, pc}
   d6190:	00030244 	.word	0x00030244

000d6194 <spark_send_event>:
DYNALIB_FN(8, system_cloud, spark_send_event, bool(const char*, const char*, int, uint32_t, void*))
   d6194:	b508      	push	{r3, lr}
   d6196:	4b02      	ldr	r3, [pc, #8]	; (d61a0 <spark_send_event+0xc>)
   d6198:	681b      	ldr	r3, [r3, #0]
   d619a:	6a1b      	ldr	r3, [r3, #32]
   d619c:	9301      	str	r3, [sp, #4]
   d619e:	bd08      	pop	{r3, pc}
   d61a0:	00030244 	.word	0x00030244

000d61a4 <spark_set_random_seed_from_cloud_handler>:
DYNALIB_FN(10, system_cloud, spark_unsubscribe, void(void*))
DYNALIB_FN(11, system_cloud, spark_sync_time, bool(void*))
DYNALIB_FN(12, system_cloud, spark_sync_time_pending, bool(void*))
DYNALIB_FN(13, system_cloud, spark_sync_time_last, system_tick_t(time_t*, void*))
DYNALIB_FN(14, system_cloud, spark_set_connection_property, int(unsigned, unsigned, particle::protocol::connection_properties_t*, void*))
DYNALIB_FN(15, system_cloud, spark_set_random_seed_from_cloud_handler, int(void (*handler)(unsigned int), void*))
   d61a4:	b508      	push	{r3, lr}
   d61a6:	4b02      	ldr	r3, [pc, #8]	; (d61b0 <spark_set_random_seed_from_cloud_handler+0xc>)
   d61a8:	681b      	ldr	r3, [r3, #0]
   d61aa:	6bdb      	ldr	r3, [r3, #60]	; 0x3c
   d61ac:	9301      	str	r3, [sp, #4]
   d61ae:	bd08      	pop	{r3, pc}
   d61b0:	00030244 	.word	0x00030244

000d61b4 <network_connect>:
#endif

DYNALIB_BEGIN(system_net)

DYNALIB_FN(0, system_net, network_config, const void*(network_handle_t, uint32_t, void*))
DYNALIB_FN(1, system_net, network_connect, void(network_handle_t, uint32_t, uint32_t, void*))
   d61b4:	b508      	push	{r3, lr}
   d61b6:	4b02      	ldr	r3, [pc, #8]	; (d61c0 <network_connect+0xc>)
   d61b8:	681b      	ldr	r3, [r3, #0]
   d61ba:	685b      	ldr	r3, [r3, #4]
   d61bc:	9301      	str	r3, [sp, #4]
   d61be:	bd08      	pop	{r3, pc}
   d61c0:	00030240 	.word	0x00030240

000d61c4 <network_connecting>:
DYNALIB_FN(2, system_net, network_connecting, bool(network_handle_t, uint32_t, void*))
   d61c4:	b508      	push	{r3, lr}
   d61c6:	4b02      	ldr	r3, [pc, #8]	; (d61d0 <network_connecting+0xc>)
   d61c8:	681b      	ldr	r3, [r3, #0]
   d61ca:	689b      	ldr	r3, [r3, #8]
   d61cc:	9301      	str	r3, [sp, #4]
   d61ce:	bd08      	pop	{r3, pc}
   d61d0:	00030240 	.word	0x00030240

000d61d4 <network_disconnect>:
DYNALIB_FN(3, system_net, network_disconnect, void(network_handle_t, uint32_t, void*))
   d61d4:	b508      	push	{r3, lr}
   d61d6:	4b02      	ldr	r3, [pc, #8]	; (d61e0 <network_disconnect+0xc>)
   d61d8:	681b      	ldr	r3, [r3, #0]
   d61da:	68db      	ldr	r3, [r3, #12]
   d61dc:	9301      	str	r3, [sp, #4]
   d61de:	bd08      	pop	{r3, pc}
   d61e0:	00030240 	.word	0x00030240

000d61e4 <network_ready>:
DYNALIB_FN(4, system_net, network_ready, bool(network_handle_t, uint32_t, void*))
   d61e4:	b508      	push	{r3, lr}
   d61e6:	4b02      	ldr	r3, [pc, #8]	; (d61f0 <network_ready+0xc>)
   d61e8:	681b      	ldr	r3, [r3, #0]
   d61ea:	691b      	ldr	r3, [r3, #16]
   d61ec:	9301      	str	r3, [sp, #4]
   d61ee:	bd08      	pop	{r3, pc}
   d61f0:	00030240 	.word	0x00030240

000d61f4 <network_on>:
DYNALIB_FN(5, system_net, network_on, void(network_handle_t, uint32_t, uint32_t, void*))
   d61f4:	b508      	push	{r3, lr}
   d61f6:	4b02      	ldr	r3, [pc, #8]	; (d6200 <network_on+0xc>)
   d61f8:	681b      	ldr	r3, [r3, #0]
   d61fa:	695b      	ldr	r3, [r3, #20]
   d61fc:	9301      	str	r3, [sp, #4]
   d61fe:	bd08      	pop	{r3, pc}
   d6200:	00030240 	.word	0x00030240

000d6204 <network_off>:
DYNALIB_FN(6, system_net, network_off, void(network_handle_t, uint32_t, uint32_t, void*))
   d6204:	b508      	push	{r3, lr}
   d6206:	4b02      	ldr	r3, [pc, #8]	; (d6210 <network_off+0xc>)
   d6208:	681b      	ldr	r3, [r3, #0]
   d620a:	699b      	ldr	r3, [r3, #24]
   d620c:	9301      	str	r3, [sp, #4]
   d620e:	bd08      	pop	{r3, pc}
   d6210:	00030240 	.word	0x00030240

000d6214 <network_listen>:
DYNALIB_FN(7, system_net, network_listen, void(network_handle_t, uint32_t, void*))
   d6214:	b508      	push	{r3, lr}
   d6216:	4b02      	ldr	r3, [pc, #8]	; (d6220 <network_listen+0xc>)
   d6218:	681b      	ldr	r3, [r3, #0]
   d621a:	69db      	ldr	r3, [r3, #28]
   d621c:	9301      	str	r3, [sp, #4]
   d621e:	bd08      	pop	{r3, pc}
   d6220:	00030240 	.word	0x00030240

000d6224 <network_listening>:
DYNALIB_FN(8, system_net, network_listening, bool(network_handle_t, uint32_t, void*))
   d6224:	b508      	push	{r3, lr}
   d6226:	4b02      	ldr	r3, [pc, #8]	; (d6230 <network_listening+0xc>)
   d6228:	681b      	ldr	r3, [r3, #0]
   d622a:	6a1b      	ldr	r3, [r3, #32]
   d622c:	9301      	str	r3, [sp, #4]
   d622e:	bd08      	pop	{r3, pc}
   d6230:	00030240 	.word	0x00030240

000d6234 <network_set_listen_timeout>:
DYNALIB_FN(9, system_net, network_has_credentials, bool(network_handle_t, uint32_t, void*))
DYNALIB_FN(10, system_net, network_set_credentials, int(network_handle_t, uint32_t, NetworkCredentials*, void*))
DYNALIB_FN(11, system_net, network_clear_credentials, bool(network_handle_t, uint32_t, NetworkCredentials*, void*))
DYNALIB_FN(12, system_net, network_set_listen_timeout, void(network_handle_t, uint16_t, void*))
   d6234:	b508      	push	{r3, lr}
   d6236:	4b02      	ldr	r3, [pc, #8]	; (d6240 <network_set_listen_timeout+0xc>)
   d6238:	681b      	ldr	r3, [r3, #0]
   d623a:	6b1b      	ldr	r3, [r3, #48]	; 0x30
   d623c:	9301      	str	r3, [sp, #4]
   d623e:	bd08      	pop	{r3, pc}
   d6240:	00030240 	.word	0x00030240

000d6244 <network_get_listen_timeout>:
DYNALIB_FN(13, system_net, network_get_listen_timeout, uint16_t(network_handle_t, uint32_t, void*))
   d6244:	b508      	push	{r3, lr}
   d6246:	4b02      	ldr	r3, [pc, #8]	; (d6250 <network_get_listen_timeout+0xc>)
   d6248:	681b      	ldr	r3, [r3, #0]
   d624a:	6b5b      	ldr	r3, [r3, #52]	; 0x34
   d624c:	9301      	str	r3, [sp, #4]
   d624e:	bd08      	pop	{r3, pc}
   d6250:	00030240 	.word	0x00030240

000d6254 <set_system_mode>:
#endif

DYNALIB_BEGIN(system)

DYNALIB_FN(0, system, system_mode, System_Mode_TypeDef(void))
DYNALIB_FN(1, system, set_system_mode, void(System_Mode_TypeDef))
   d6254:	b508      	push	{r3, lr}
   d6256:	4b02      	ldr	r3, [pc, #8]	; (d6260 <set_system_mode+0xc>)
   d6258:	681b      	ldr	r3, [r3, #0]
   d625a:	685b      	ldr	r3, [r3, #4]
   d625c:	9301      	str	r3, [sp, #4]
   d625e:	bd08      	pop	{r3, pc}
   d6260:	00030220 	.word	0x00030220

000d6264 <system_delay_ms>:

DYNALIB_FN(2, system, set_ymodem_serial_flash_update_handler, void(ymodem_serial_flash_update_handler))
DYNALIB_FN(3, system, system_firmwareUpdate, bool(Stream*, void*))
DYNALIB_FN(4, system, system_fileTransfer, bool(system_file_transfer_t*, void*))

DYNALIB_FN(5, system, system_delay_ms, void(unsigned long, bool))
   d6264:	b508      	push	{r3, lr}
   d6266:	4b02      	ldr	r3, [pc, #8]	; (d6270 <system_delay_ms+0xc>)
   d6268:	681b      	ldr	r3, [r3, #0]
   d626a:	695b      	ldr	r3, [r3, #20]
   d626c:	9301      	str	r3, [sp, #4]
   d626e:	bd08      	pop	{r3, pc}
   d6270:	00030220 	.word	0x00030220

000d6274 <application_thread_current>:
DYNALIB_FN(15, system, system_get_flag, int(system_flag_t, uint8_t*, void*))
DYNALIB_FN(16, system, Spark_Prepare_For_Firmware_Update, int(FileTransfer::Descriptor&, uint32_t, void*))
DYNALIB_FN(17, system, Spark_Save_Firmware_Chunk, int(FileTransfer::Descriptor&, const uint8_t*, void*))
DYNALIB_FN(18, system, Spark_Finish_Firmware_Update, int(FileTransfer::Descriptor&, uint32_t, void*))

DYNALIB_FN(19, system, application_thread_current, uint8_t(void*))
   d6274:	b508      	push	{r3, lr}
   d6276:	4b02      	ldr	r3, [pc, #8]	; (d6280 <application_thread_current+0xc>)
   d6278:	681b      	ldr	r3, [r3, #0]
   d627a:	6cdb      	ldr	r3, [r3, #76]	; 0x4c
   d627c:	9301      	str	r3, [sp, #4]
   d627e:	bd08      	pop	{r3, pc}
   d6280:	00030220 	.word	0x00030220

000d6284 <application_thread_invoke>:
DYNALIB_FN(20, system, system_thread_current, uint8_t(void*))
DYNALIB_FN(21, system, application_thread_invoke, uint8_t(void(*)(void*), void*, void*))
   d6284:	b508      	push	{r3, lr}
   d6286:	4b02      	ldr	r3, [pc, #8]	; (d6290 <application_thread_invoke+0xc>)
   d6288:	681b      	ldr	r3, [r3, #0]
   d628a:	6d5b      	ldr	r3, [r3, #84]	; 0x54
   d628c:	9301      	str	r3, [sp, #4]
   d628e:	bd08      	pop	{r3, pc}
   d6290:	00030220 	.word	0x00030220

000d6294 <system_ctrl_set_app_request_handler>:
DYNALIB_FN(BASE_IDX + 6, system, led_pattern_period, uint16_t(int, int, void*))
DYNALIB_FN(BASE_IDX + 7, system, system_set_tester_handlers, int(system_tester_handlers_t*, void*))
DYNALIB_FN(BASE_IDX + 8, system, system_format_diag_data, int(const uint16_t*, size_t, unsigned, appender_fn, void*, void*))

// Control requests
DYNALIB_FN(BASE_IDX + 9, system, system_ctrl_set_app_request_handler, int(ctrl_request_handler_fn, void*))
   d6294:	b508      	push	{r3, lr}
   d6296:	4b03      	ldr	r3, [pc, #12]	; (d62a4 <system_ctrl_set_app_request_handler+0x10>)
   d6298:	681b      	ldr	r3, [r3, #0]
   d629a:	f8d3 3088 	ldr.w	r3, [r3, #136]	; 0x88
   d629e:	9301      	str	r3, [sp, #4]
   d62a0:	bd08      	pop	{r3, pc}
   d62a2:	0000      	.short	0x0000
   d62a4:	00030220 	.word	0x00030220

000d62a8 <system_ctrl_set_result>:
DYNALIB_FN(BASE_IDX + 10, system, system_ctrl_alloc_reply_data, int(ctrl_request*, size_t, void*))
DYNALIB_FN(BASE_IDX + 11, system, system_ctrl_free_request_data, void(ctrl_request*, void*))
DYNALIB_FN(BASE_IDX + 12, system, system_ctrl_set_result, void(ctrl_request*, int, ctrl_completion_handler_fn, void*, void*))
   d62a8:	b508      	push	{r3, lr}
   d62aa:	4b03      	ldr	r3, [pc, #12]	; (d62b8 <system_ctrl_set_result+0x10>)
   d62ac:	681b      	ldr	r3, [r3, #0]
   d62ae:	f8d3 3094 	ldr.w	r3, [r3, #148]	; 0x94
   d62b2:	9301      	str	r3, [sp, #4]
   d62b4:	bd08      	pop	{r3, pc}
   d62b6:	0000      	.short	0x0000
   d62b8:	00030220 	.word	0x00030220

000d62bc <system_sleep_ext>:
#define BASE_IDX1 (BASE_IDX + 18)
#else
#define BASE_IDX1 (BASE_IDX + 17)
#endif // HAL_PLATFORM_POWER_MANAGEMENT

DYNALIB_FN(BASE_IDX1 + 0, system, system_sleep_ext, int(const hal_sleep_config_t*, hal_wakeup_source_base_t**, void*))
   d62bc:	b508      	push	{r3, lr}
   d62be:	4b03      	ldr	r3, [pc, #12]	; (d62cc <system_sleep_ext+0x10>)
   d62c0:	681b      	ldr	r3, [r3, #0]
   d62c2:	f8d3 30a8 	ldr.w	r3, [r3, #168]	; 0xa8
   d62c6:	9301      	str	r3, [sp, #4]
   d62c8:	bd08      	pop	{r3, pc}
   d62ca:	0000      	.short	0x0000
   d62cc:	00030220 	.word	0x00030220

000d62d0 <malloc>:
#include <assert.h>
#endif

DYNALIB_BEGIN(rt)

DYNALIB_FN(0, rt, malloc, void*(size_t))
   d62d0:	b508      	push	{r3, lr}
   d62d2:	4b02      	ldr	r3, [pc, #8]	; (d62dc <malloc+0xc>)
   d62d4:	681b      	ldr	r3, [r3, #0]
   d62d6:	681b      	ldr	r3, [r3, #0]
   d62d8:	9301      	str	r3, [sp, #4]
   d62da:	bd08      	pop	{r3, pc}
   d62dc:	0003021c 	.word	0x0003021c

000d62e0 <free>:
DYNALIB_FN(1, rt, free, void(void*))
   d62e0:	b508      	push	{r3, lr}
   d62e2:	4b02      	ldr	r3, [pc, #8]	; (d62ec <free+0xc>)
   d62e4:	681b      	ldr	r3, [r3, #0]
   d62e6:	685b      	ldr	r3, [r3, #4]
   d62e8:	9301      	str	r3, [sp, #4]
   d62ea:	bd08      	pop	{r3, pc}
   d62ec:	0003021c 	.word	0x0003021c

000d62f0 <realloc>:
DYNALIB_FN(2, rt, realloc, void*(void*, size_t))
   d62f0:	b508      	push	{r3, lr}
   d62f2:	4b02      	ldr	r3, [pc, #8]	; (d62fc <realloc+0xc>)
   d62f4:	681b      	ldr	r3, [r3, #0]
   d62f6:	689b      	ldr	r3, [r3, #8]
   d62f8:	9301      	str	r3, [sp, #4]
   d62fa:	bd08      	pop	{r3, pc}
   d62fc:	0003021c 	.word	0x0003021c

000d6300 <sprintf>:
DYNALIB_FN(3, rt, sprintf, int(char*, const char*, ...))
   d6300:	b508      	push	{r3, lr}
   d6302:	4b02      	ldr	r3, [pc, #8]	; (d630c <sprintf+0xc>)
   d6304:	681b      	ldr	r3, [r3, #0]
   d6306:	68db      	ldr	r3, [r3, #12]
   d6308:	9301      	str	r3, [sp, #4]
   d630a:	bd08      	pop	{r3, pc}
   d630c:	0003021c 	.word	0x0003021c

000d6310 <vsnprintf>:
DYNALIB_FN(4, rt, siprintf, int(char*, const char*, ...))
DYNALIB_FN(5, rt, sscanf, int(const char*, const char*, ...))
DYNALIB_FN(6, rt, siscanf, int(const char*, const char*, ...))
DYNALIB_FN(7, rt, snprintf, int(char*, size_t, const char*, ...))
DYNALIB_FN(8, rt, sniprintf, int(char*, size_t, const char*, ...))
DYNALIB_FN(9, rt, vsnprintf, int(char*, size_t, const char*, va_list))
   d6310:	b508      	push	{r3, lr}
   d6312:	4b02      	ldr	r3, [pc, #8]	; (d631c <vsnprintf+0xc>)
   d6314:	681b      	ldr	r3, [r3, #0]
   d6316:	6a5b      	ldr	r3, [r3, #36]	; 0x24
   d6318:	9301      	str	r3, [sp, #4]
   d631a:	bd08      	pop	{r3, pc}
   d631c:	0003021c 	.word	0x0003021c

000d6320 <abort>:
DYNALIB_FN(10, rt, vsniprintf, int(char*, size_t, const char*, va_list))
DYNALIB_FN(11, rt, abort, void(void))
   d6320:	b508      	push	{r3, lr}
   d6322:	4b02      	ldr	r3, [pc, #8]	; (d632c <abort+0xc>)
   d6324:	681b      	ldr	r3, [r3, #0]
   d6326:	6adb      	ldr	r3, [r3, #44]	; 0x2c
   d6328:	9301      	str	r3, [sp, #4]
   d632a:	bd08      	pop	{r3, pc}
   d632c:	0003021c 	.word	0x0003021c

000d6330 <_malloc_r>:
DYNALIB_FN(12, rt, _malloc_r, void*(struct _reent*, size_t))
   d6330:	b508      	push	{r3, lr}
   d6332:	4b02      	ldr	r3, [pc, #8]	; (d633c <_malloc_r+0xc>)
   d6334:	681b      	ldr	r3, [r3, #0]
   d6336:	6b1b      	ldr	r3, [r3, #48]	; 0x30
   d6338:	9301      	str	r3, [sp, #4]
   d633a:	bd08      	pop	{r3, pc}
   d633c:	0003021c 	.word	0x0003021c

000d6340 <__errno>:
DYNALIB_FN(13, rt, _free_r, void(struct _reent*, void*))
DYNALIB_FN(14, rt, _realloc_r, void*(struct _reent*, void*, size_t))
DYNALIB_FN(15, rt, __errno, int*())
   d6340:	b508      	push	{r3, lr}
   d6342:	4b02      	ldr	r3, [pc, #8]	; (d634c <__errno+0xc>)
   d6344:	681b      	ldr	r3, [r3, #0]
   d6346:	6bdb      	ldr	r3, [r3, #60]	; 0x3c
   d6348:	9301      	str	r3, [sp, #4]
   d634a:	bd08      	pop	{r3, pc}
   d634c:	0003021c 	.word	0x0003021c

000d6350 <_ZNSt14_Function_baseD1Ev>:
	}
      };

    _Function_base() : _M_manager(nullptr) { }

    ~_Function_base()
   d6350:	b510      	push	{r4, lr}
    {
      if (_M_manager)
   d6352:	6883      	ldr	r3, [r0, #8]
	}
      };

    _Function_base() : _M_manager(nullptr) { }

    ~_Function_base()
   d6354:	4604      	mov	r4, r0
    {
      if (_M_manager)
   d6356:	b113      	cbz	r3, d635e <_ZNSt14_Function_baseD1Ev+0xe>
	_M_manager(_M_functor, _M_functor, __destroy_functor);
   d6358:	2203      	movs	r2, #3
   d635a:	4601      	mov	r1, r0
   d635c:	4798      	blx	r3
    }
   d635e:	4620      	mov	r0, r4
   d6360:	bd10      	pop	{r4, pc}

000d6362 <_ZN5spark12NetworkClass7connectEj>:
        return Network;
    }
}

void NetworkClass::connect(unsigned flags) {
    network_connect(*this, flags, 0, nullptr);
   d6362:	2300      	movs	r3, #0
   d6364:	461a      	mov	r2, r3
   d6366:	6840      	ldr	r0, [r0, #4]
   d6368:	f7ff bf24 	b.w	d61b4 <network_connect>

000d636c <_ZN5spark12NetworkClass10disconnectEv>:
}

void NetworkClass::disconnect() {
    network_disconnect(*this, NETWORK_DISCONNECT_REASON_USER, nullptr);
   d636c:	2200      	movs	r2, #0
   d636e:	2102      	movs	r1, #2
   d6370:	6840      	ldr	r0, [r0, #4]
   d6372:	f7ff bf2f 	b.w	d61d4 <network_disconnect>

000d6376 <_ZN5spark12NetworkClass10connectingEv>:
}

bool NetworkClass::connecting() {
    return network_connecting(*this, 0, nullptr);
   d6376:	2200      	movs	r2, #0
   d6378:	4611      	mov	r1, r2
   d637a:	6840      	ldr	r0, [r0, #4]
   d637c:	f7ff bf22 	b.w	d61c4 <network_connecting>

000d6380 <_ZN5spark12NetworkClass5readyEv>:
}

bool NetworkClass::ready() {
    return network_ready(*this, 0, nullptr);
   d6380:	2200      	movs	r2, #0
   d6382:	4611      	mov	r1, r2
   d6384:	6840      	ldr	r0, [r0, #4]
   d6386:	f7ff bf2d 	b.w	d61e4 <network_ready>

000d638a <_ZN5spark12NetworkClass2onEv>:
}

void NetworkClass::on() {
    network_on(*this, 0, 0, nullptr);
   d638a:	2300      	movs	r3, #0
   d638c:	461a      	mov	r2, r3
   d638e:	4619      	mov	r1, r3
   d6390:	6840      	ldr	r0, [r0, #4]
   d6392:	f7ff bf2f 	b.w	d61f4 <network_on>

000d6396 <_ZN5spark12NetworkClass3offEv>:
}

void NetworkClass::off() {
    network_off(*this, 0, 0, nullptr);
   d6396:	2300      	movs	r3, #0
   d6398:	461a      	mov	r2, r3
   d639a:	4619      	mov	r1, r3
   d639c:	6840      	ldr	r0, [r0, #4]
   d639e:	f7ff bf31 	b.w	d6204 <network_off>

000d63a2 <_ZN5spark12NetworkClass6listenEb>:
}

void NetworkClass::listen(bool begin) {
    network_listen(*this, begin ? 0 : 1, nullptr);
   d63a2:	2200      	movs	r2, #0
   d63a4:	f081 0101 	eor.w	r1, r1, #1
   d63a8:	6840      	ldr	r0, [r0, #4]
   d63aa:	f7ff bf33 	b.w	d6214 <network_listen>

000d63ae <_ZN5spark12NetworkClass16setListenTimeoutEt>:
}

void NetworkClass::setListenTimeout(uint16_t timeout) {
    network_set_listen_timeout(*this, timeout, nullptr);
   d63ae:	2200      	movs	r2, #0
   d63b0:	6840      	ldr	r0, [r0, #4]
   d63b2:	f7ff bf3f 	b.w	d6234 <network_set_listen_timeout>

000d63b6 <_ZN5spark12NetworkClass16getListenTimeoutEv>:
}

uint16_t NetworkClass::getListenTimeout() {
    return network_get_listen_timeout(*this, 0, nullptr);
   d63b6:	2200      	movs	r2, #0
   d63b8:	4611      	mov	r1, r2
   d63ba:	6840      	ldr	r0, [r0, #4]
   d63bc:	f7ff bf42 	b.w	d6244 <network_get_listen_timeout>

000d63c0 <_ZN5spark12NetworkClass9listeningEv>:
}

bool NetworkClass::listening() {
    return network_listening(*this, 0, nullptr);
   d63c0:	2200      	movs	r2, #0
   d63c2:	4611      	mov	r1, r2
   d63c4:	6840      	ldr	r0, [r0, #4]
   d63c6:	f7ff bf2d 	b.w	d6224 <network_listening>

000d63ca <_ZN5spark12NetworkClass7resolveEPKc>:
}

IPAddress NetworkClass::resolve(const char* name) {
   d63ca:	e92d 43f0 	stmdb	sp!, {r4, r5, r6, r7, r8, r9, lr}
    IPAddress addr;
#if HAL_USE_INET_HAL_POSIX
    struct addrinfo *ai = nullptr;
   d63ce:	2400      	movs	r4, #0

bool NetworkClass::listening() {
    return network_listening(*this, 0, nullptr);
}

IPAddress NetworkClass::resolve(const char* name) {
   d63d0:	b095      	sub	sp, #84	; 0x54
   d63d2:	4616      	mov	r6, r2
   d63d4:	460d      	mov	r5, r1
   d63d6:	4607      	mov	r7, r0
    IPAddress addr;
   d63d8:	f000 fbd0 	bl	d6b7c <_ZN9IPAddressC1Ev>
#if HAL_USE_INET_HAL_POSIX
    struct addrinfo *ai = nullptr;
    struct addrinfo hints = {};
   d63dc:	4621      	mov	r1, r4
   d63de:	2220      	movs	r2, #32
   d63e0:	a80c      	add	r0, sp, #48	; 0x30
}

IPAddress NetworkClass::resolve(const char* name) {
    IPAddress addr;
#if HAL_USE_INET_HAL_POSIX
    struct addrinfo *ai = nullptr;
   d63e2:	9400      	str	r4, [sp, #0]
    struct addrinfo hints = {};
   d63e4:	f002 fbd1 	bl	d8b8a <memset>
    hints.ai_flags = AI_ADDRCONFIG;
   d63e8:	2340      	movs	r3, #64	; 0x40
   d63ea:	930c      	str	r3, [sp, #48]	; 0x30
    hints.ai_family = AF_UNSPEC;
    const int r = getaddrinfo(name, nullptr, &hints, &ai);
   d63ec:	4621      	mov	r1, r4
   d63ee:	466b      	mov	r3, sp
   d63f0:	aa0c      	add	r2, sp, #48	; 0x30
   d63f2:	4630      	mov	r0, r6
   d63f4:	f7ff fe7e 	bl	d60f4 <netdb_getaddrinfo>
    if (!r) {
   d63f8:	4604      	mov	r4, r0
   d63fa:	2800      	cmp	r0, #0
   d63fc:	d144      	bne.n	d6488 <_ZN5spark12NetworkClass7resolveEPKc+0xbe>
        bool ok = false;
        // This is not really needed if AI_ADDRCONFIG is properly supported
        bool ipv4 = network_ready(*this, NETWORK_READY_TYPE_IPV4, nullptr);
   d63fe:	4602      	mov	r2, r0
   d6400:	2101      	movs	r1, #1
   d6402:	6868      	ldr	r0, [r5, #4]
   d6404:	f7ff feee 	bl	d61e4 <network_ready>
        bool ipv6 = network_ready(*this, NETWORK_READY_TYPE_IPV6, nullptr);
   d6408:	2102      	movs	r1, #2
    hints.ai_family = AF_UNSPEC;
    const int r = getaddrinfo(name, nullptr, &hints, &ai);
    if (!r) {
        bool ok = false;
        // This is not really needed if AI_ADDRCONFIG is properly supported
        bool ipv4 = network_ready(*this, NETWORK_READY_TYPE_IPV4, nullptr);
   d640a:	4680      	mov	r8, r0
        bool ipv6 = network_ready(*this, NETWORK_READY_TYPE_IPV6, nullptr);
   d640c:	4622      	mov	r2, r4
   d640e:	6868      	ldr	r0, [r5, #4]
   d6410:	f7ff fee8 	bl	d61e4 <network_ready>
        for (auto cur = ai; cur != nullptr && !ok; cur = cur->ai_next) {
   d6414:	9e00      	ldr	r6, [sp, #0]
    const int r = getaddrinfo(name, nullptr, &hints, &ai);
    if (!r) {
        bool ok = false;
        // This is not really needed if AI_ADDRCONFIG is properly supported
        bool ipv4 = network_ready(*this, NETWORK_READY_TYPE_IPV4, nullptr);
        bool ipv6 = network_ready(*this, NETWORK_READY_TYPE_IPV6, nullptr);
   d6416:	4681      	mov	r9, r0
    struct addrinfo hints = {};
    hints.ai_flags = AI_ADDRCONFIG;
    hints.ai_family = AF_UNSPEC;
    const int r = getaddrinfo(name, nullptr, &hints, &ai);
    if (!r) {
        bool ok = false;
   d6418:	4621      	mov	r1, r4
        // This is not really needed if AI_ADDRCONFIG is properly supported
        bool ipv4 = network_ready(*this, NETWORK_READY_TYPE_IPV4, nullptr);
        bool ipv6 = network_ready(*this, NETWORK_READY_TYPE_IPV6, nullptr);
        for (auto cur = ai; cur != nullptr && !ok; cur = cur->ai_next) {
   d641a:	2e00      	cmp	r6, #0
   d641c:	d034      	beq.n	d6488 <_ZN5spark12NetworkClass7resolveEPKc+0xbe>
   d641e:	2900      	cmp	r1, #0
   d6420:	d132      	bne.n	d6488 <_ZN5spark12NetworkClass7resolveEPKc+0xbe>
            // NOTE: using only the first entry that matches the current state of IPv4/IPv6 connectivity
            switch (cur->ai_family) {
   d6422:	6873      	ldr	r3, [r6, #4]
   d6424:	2b02      	cmp	r3, #2
   d6426:	d002      	beq.n	d642e <_ZN5spark12NetworkClass7resolveEPKc+0x64>
   d6428:	2b0a      	cmp	r3, #10
   d642a:	d009      	beq.n	d6440 <_ZN5spark12NetworkClass7resolveEPKc+0x76>
   d642c:	e02a      	b.n	d6484 <_ZN5spark12NetworkClass7resolveEPKc+0xba>
                case AF_INET: {
                    if (!ipv4) {
   d642e:	f1b8 0f00 	cmp.w	r8, #0
   d6432:	d027      	beq.n	d6484 <_ZN5spark12NetworkClass7resolveEPKc+0xba>
                        continue;
                    }
                    // NOTE: HAL_IPAddress is little-endian
                    auto in = (struct sockaddr_in*)cur->ai_addr;
                    addr = (const uint8_t*)(&in->sin_addr.s_addr);
   d6434:	6971      	ldr	r1, [r6, #20]
   d6436:	4638      	mov	r0, r7
   d6438:	3104      	adds	r1, #4
   d643a:	f000 fbcc 	bl	d6bd6 <_ZN9IPAddressaSEPKh>
   d643e:	e020      	b.n	d6482 <_ZN5spark12NetworkClass7resolveEPKc+0xb8>
                    ok = true;
                    break;
                }
                case AF_INET6: {
                    if (!ipv6) {
   d6440:	f1b9 0f00 	cmp.w	r9, #0
   d6444:	d01e      	beq.n	d6484 <_ZN5spark12NetworkClass7resolveEPKc+0xba>
                        continue;
                    }
                    auto in6 = (struct sockaddr_in6*)cur->ai_addr;
   d6446:	6974      	ldr	r4, [r6, #20]
                    HAL_IPAddress a = {};
   d6448:	2211      	movs	r2, #17
   d644a:	a801      	add	r0, sp, #4
   d644c:	f002 fb9d 	bl	d8b8a <memset>
                    a.v = 6;
   d6450:	2306      	movs	r3, #6
   d6452:	f88d 3014 	strb.w	r3, [sp, #20]
                    memcpy(a.ipv6, in6->sin6_addr.s6_addr, sizeof(a.ipv6));
   d6456:	ad01      	add	r5, sp, #4
   d6458:	f104 0308 	add.w	r3, r4, #8
   d645c:	3418      	adds	r4, #24
   d645e:	6818      	ldr	r0, [r3, #0]
   d6460:	6859      	ldr	r1, [r3, #4]
   d6462:	462a      	mov	r2, r5
   d6464:	c203      	stmia	r2!, {r0, r1}
   d6466:	3308      	adds	r3, #8
   d6468:	42a3      	cmp	r3, r4
   d646a:	4615      	mov	r5, r2
   d646c:	d1f7      	bne.n	d645e <_ZN5spark12NetworkClass7resolveEPKc+0x94>
                    addr = IPAddress(a);
   d646e:	a901      	add	r1, sp, #4
   d6470:	a806      	add	r0, sp, #24

/**
 * The IP address stored in host order.
 *
 */
class IPAddress : public Printable {
   d6472:	ad07      	add	r5, sp, #28
   d6474:	f000 fb90 	bl	d6b98 <_ZN9IPAddressC1ERK16_HAL_IPAddress_t>
   d6478:	cd0f      	ldmia	r5!, {r0, r1, r2, r3}
   d647a:	1d3c      	adds	r4, r7, #4
   d647c:	c40f      	stmia	r4!, {r0, r1, r2, r3}
   d647e:	682b      	ldr	r3, [r5, #0]
   d6480:	7023      	strb	r3, [r4, #0]
                    ok = true;
   d6482:	2101      	movs	r1, #1
    if (!r) {
        bool ok = false;
        // This is not really needed if AI_ADDRCONFIG is properly supported
        bool ipv4 = network_ready(*this, NETWORK_READY_TYPE_IPV4, nullptr);
        bool ipv6 = network_ready(*this, NETWORK_READY_TYPE_IPV6, nullptr);
        for (auto cur = ai; cur != nullptr && !ok; cur = cur->ai_next) {
   d6484:	69f6      	ldr	r6, [r6, #28]
   d6486:	e7c8      	b.n	d641a <_ZN5spark12NetworkClass7resolveEPKc+0x50>
                    break;
                }
            }
        }
    }
    freeaddrinfo(ai);
   d6488:	9800      	ldr	r0, [sp, #0]
   d648a:	f7ff fe2b 	bl	d60e4 <netdb_freeaddrinfo>
    return Cellular.resolve(name);
#endif // Wiring_Cellular

#endif // HAL_USE_INET_HAL_POSIX
    return addr;
}
   d648e:	4638      	mov	r0, r7
   d6490:	b015      	add	sp, #84	; 0x54
   d6492:	e8bd 83f0 	ldmia.w	sp!, {r4, r5, r6, r7, r8, r9, pc}
	...

000d6498 <_GLOBAL__sub_I__ZN5spark7NetworkE>:
    static NetworkClass& from(network_interface_t nif);

    virtual IPAddress resolve(const char* name);

    explicit NetworkClass(network_interface_t iface)
            : iface_(iface) {
   d6498:	4b02      	ldr	r3, [pc, #8]	; (d64a4 <_GLOBAL__sub_I__ZN5spark7NetworkE+0xc>)
   d649a:	4a03      	ldr	r2, [pc, #12]	; (d64a8 <_GLOBAL__sub_I__ZN5spark7NetworkE+0x10>)
   d649c:	601a      	str	r2, [r3, #0]
   d649e:	2200      	movs	r2, #0
   d64a0:	605a      	str	r2, [r3, #4]
   d64a2:	4770      	bx	lr
   d64a4:	2003e3d0 	.word	0x2003e3d0
   d64a8:	000d93b4 	.word	0x000d93b4

000d64ac <_ZN5spark9WiFiClass5readyEv>:
    bool connecting(void) {
        return network_connecting(*this, 0, NULL);
    }

    bool ready(void) {
        return network_ready(*this, 0, NULL);
   d64ac:	2200      	movs	r2, #0
   d64ae:	4611      	mov	r1, r2
   d64b0:	6840      	ldr	r0, [r0, #4]
   d64b2:	f7ff be97 	b.w	d61e4 <network_ready>

000d64b6 <_ZN5spark9WiFiClass9listeningEv>:
    uint16_t getListenTimeout(void) {
        return network_get_listen_timeout(*this, 0, NULL);
    }

    bool listening(void) {
        return network_listening(*this, 0, NULL);
   d64b6:	2200      	movs	r2, #0
   d64b8:	4611      	mov	r1, r2
   d64ba:	6840      	ldr	r0, [r0, #4]
   d64bc:	f7ff beb2 	b.w	d6224 <network_listening>

000d64c0 <_ZN5spark9WiFiClass16getListenTimeoutEv>:
        network_set_listen_timeout(*this, timeout, NULL);
    }
    inline void setListenTimeout(std::chrono::seconds s) { setListenTimeout(s.count()); }

    uint16_t getListenTimeout(void) {
        return network_get_listen_timeout(*this, 0, NULL);
   d64c0:	2200      	movs	r2, #0
   d64c2:	4611      	mov	r1, r2
   d64c4:	6840      	ldr	r0, [r0, #4]
   d64c6:	f7ff bebd 	b.w	d6244 <network_get_listen_timeout>

000d64ca <_ZN5spark9WiFiClass16setListenTimeoutEt>:
    void listen(bool begin=true) {
        network_listen(*this, begin ? 0 : 1, NULL);
    }

    void setListenTimeout(uint16_t timeout) {
        network_set_listen_timeout(*this, timeout, NULL);
   d64ca:	2200      	movs	r2, #0
   d64cc:	6840      	ldr	r0, [r0, #4]
   d64ce:	f7ff beb1 	b.w	d6234 <network_set_listen_timeout>

000d64d2 <_ZN5spark9WiFiClass6listenEb>:
    void off(void) {
        network_off(*this, 0, 0, NULL);
    }

    void listen(bool begin=true) {
        network_listen(*this, begin ? 0 : 1, NULL);
   d64d2:	2200      	movs	r2, #0
   d64d4:	f081 0101 	eor.w	r1, r1, #1
   d64d8:	6840      	ldr	r0, [r0, #4]
   d64da:	f7ff be9b 	b.w	d6214 <network_listen>

000d64de <_ZN5spark9WiFiClass3offEv>:
    void on(void) {
        network_on(*this, 0, 0, NULL);
    }

    void off(void) {
        network_off(*this, 0, 0, NULL);
   d64de:	2300      	movs	r3, #0
   d64e0:	461a      	mov	r2, r3
   d64e2:	4619      	mov	r1, r3
   d64e4:	6840      	ldr	r0, [r0, #4]
   d64e6:	f7ff be8d 	b.w	d6204 <network_off>

000d64ea <_ZN5spark9WiFiClass2onEv>:
    bool ready(void) {
        return network_ready(*this, 0, NULL);
    }

    void on(void) {
        network_on(*this, 0, 0, NULL);
   d64ea:	2300      	movs	r3, #0
   d64ec:	461a      	mov	r2, r3
   d64ee:	4619      	mov	r1, r3
   d64f0:	6840      	ldr	r0, [r0, #4]
   d64f2:	f7ff be7f 	b.w	d61f4 <network_on>

000d64f6 <_ZN5spark9WiFiClass10connectingEv>:
    void disconnect(void) {
        network_disconnect(*this, NETWORK_DISCONNECT_REASON_USER, NULL);
    }

    bool connecting(void) {
        return network_connecting(*this, 0, NULL);
   d64f6:	2200      	movs	r2, #0
   d64f8:	4611      	mov	r1, r2
   d64fa:	6840      	ldr	r0, [r0, #4]
   d64fc:	f7ff be62 	b.w	d61c4 <network_connecting>

000d6500 <_ZN5spark9WiFiClass10disconnectEv>:
    void connect(unsigned flags=0) {
        network_connect(*this, flags, 0, NULL);
    }

    void disconnect(void) {
        network_disconnect(*this, NETWORK_DISCONNECT_REASON_USER, NULL);
   d6500:	2200      	movs	r2, #0
   d6502:	2102      	movs	r1, #2
   d6504:	6840      	ldr	r0, [r0, #4]
   d6506:	f7ff be65 	b.w	d61d4 <network_disconnect>

000d650a <_ZN5spark9WiFiClass7connectEj>:
    uint32_t ping(IPAddress remoteIP, uint8_t nTries) {
        return inet_ping(&remoteIP.raw(), *this, nTries, NULL);
    }

    void connect(unsigned flags=0) {
        network_connect(*this, flags, 0, NULL);
   d650a:	2300      	movs	r3, #0
   d650c:	461a      	mov	r2, r3
   d650e:	6840      	ldr	r0, [r0, #4]
   d6510:	f7ff be50 	b.w	d61b4 <network_connect>

000d6514 <_GLOBAL__sub_I__ZN10WiFiSignalC2ERK21wlan_connected_info_t>:
   d6514:	4b02      	ldr	r3, [pc, #8]	; (d6520 <_GLOBAL__sub_I__ZN10WiFiSignalC2ERK21wlan_connected_info_t+0xc>)
   d6516:	2204      	movs	r2, #4
   d6518:	605a      	str	r2, [r3, #4]
        wlan_set_ipaddress_source(source, true, NULL);
    }

public:
    WiFiClass() :
            NetworkClass(NETWORK_INTERFACE_WIFI_STA) {
   d651a:	4a02      	ldr	r2, [pc, #8]	; (d6524 <_GLOBAL__sub_I__ZN10WiFiSignalC2ERK21wlan_connected_info_t+0x10>)
   d651c:	601a      	str	r2, [r3, #0]
   d651e:	4770      	bx	lr
   d6520:	2003e3d8 	.word	0x2003e3d8
   d6524:	000d93e8 	.word	0x000d93e8

000d6528 <_ZN5spark9MeshClass9listeningEv>:
    uint16_t getListenTimeout(void) {
        return network_get_listen_timeout(*this, 0, NULL);
    }

    bool listening(void) {
        return network_listening(*this, 0, NULL);
   d6528:	2200      	movs	r2, #0
   d652a:	4611      	mov	r1, r2
   d652c:	6840      	ldr	r0, [r0, #4]
   d652e:	f7ff be79 	b.w	d6224 <network_listening>

000d6532 <_ZN5spark9MeshClass16getListenTimeoutEv>:
    void setListenTimeout(uint16_t timeout) {
        network_set_listen_timeout(*this, timeout, NULL);
    }

    uint16_t getListenTimeout(void) {
        return network_get_listen_timeout(*this, 0, NULL);
   d6532:	2200      	movs	r2, #0
   d6534:	4611      	mov	r1, r2
   d6536:	6840      	ldr	r0, [r0, #4]
   d6538:	f7ff be84 	b.w	d6244 <network_get_listen_timeout>

000d653c <_ZN5spark9MeshClass16setListenTimeoutEt>:
    void listen(bool begin=true) {
        network_listen(*this, begin ? 0 : 1, NULL);
    }

    void setListenTimeout(uint16_t timeout) {
        network_set_listen_timeout(*this, timeout, NULL);
   d653c:	2200      	movs	r2, #0
   d653e:	6840      	ldr	r0, [r0, #4]
   d6540:	f7ff be78 	b.w	d6234 <network_set_listen_timeout>

000d6544 <_ZN5spark9MeshClass6listenEb>:
    void disconnect() {
        network_disconnect(*this, NETWORK_DISCONNECT_REASON_USER, NULL);
    }

    void listen(bool begin=true) {
        network_listen(*this, begin ? 0 : 1, NULL);
   d6544:	2200      	movs	r2, #0
   d6546:	f081 0101 	eor.w	r1, r1, #1
   d654a:	6840      	ldr	r0, [r0, #4]
   d654c:	f7ff be62 	b.w	d6214 <network_listen>

000d6550 <_ZN5spark9MeshClass3offEv>:
    void on() {
        network_on(*this, 0, 0, NULL);
    }

    void off() {
        network_off(*this, 1, 0, NULL);
   d6550:	2300      	movs	r3, #0
   d6552:	461a      	mov	r2, r3
   d6554:	2101      	movs	r1, #1
   d6556:	6840      	ldr	r0, [r0, #4]
   d6558:	f7ff be54 	b.w	d6204 <network_off>

000d655c <_ZN5spark9MeshClass2onEv>:
    MeshClass() :
            NetworkClass(NETWORK_INTERFACE_MESH) {
    }

    void on() {
        network_on(*this, 0, 0, NULL);
   d655c:	2300      	movs	r3, #0
   d655e:	461a      	mov	r2, r3
   d6560:	4619      	mov	r1, r3
   d6562:	6840      	ldr	r0, [r0, #4]
   d6564:	f7ff be46 	b.w	d61f4 <network_on>

000d6568 <_ZN5spark9MeshClass5readyEv>:
    bool listening(void) {
        return network_listening(*this, 0, NULL);
    }

    bool ready() {
        return network_ready(*this, 0,  NULL);
   d6568:	2200      	movs	r2, #0
   d656a:	4611      	mov	r1, r2
   d656c:	6840      	ldr	r0, [r0, #4]
   d656e:	f7ff be39 	b.w	d61e4 <network_ready>

000d6572 <_ZN5spark9MeshClass10connectingEv>:
    void connect(unsigned flags=0) {
        network_connect(*this, flags, 0, NULL);
    }

    bool connecting(void) {
        return network_connecting(*this, 0, NULL);
   d6572:	2200      	movs	r2, #0
   d6574:	4611      	mov	r1, r2
   d6576:	6840      	ldr	r0, [r0, #4]
   d6578:	f7ff be24 	b.w	d61c4 <network_connecting>

000d657c <_ZN5spark9MeshClass10disconnectEv>:
    }

    void disconnect() {
        network_disconnect(*this, NETWORK_DISCONNECT_REASON_USER, NULL);
   d657c:	2200      	movs	r2, #0
   d657e:	2102      	movs	r1, #2
   d6580:	6840      	ldr	r0, [r0, #4]
   d6582:	f7ff be27 	b.w	d61d4 <network_disconnect>

000d6586 <_ZN5spark9MeshClass7connectEj>:
    void off() {
        network_off(*this, 1, 0, NULL);
    }

    void connect(unsigned flags=0) {
        network_connect(*this, flags, 0, NULL);
   d6586:	2300      	movs	r3, #0
   d6588:	461a      	mov	r2, r3
   d658a:	6840      	ldr	r0, [r0, #4]
   d658c:	f7ff be12 	b.w	d61b4 <network_connect>

000d6590 <_ZNKSt14default_deleteIN6Thread4DataEEclEPS1_.isra.6>:
	       enable_if<is_convertible<_Up*, _Tp*>::value>::type>
        default_delete(const default_delete<_Up>&) noexcept { }

      /// Calls @c delete @p __ptr
      void
      operator()(_Tp* __ptr) const
   d6590:	b538      	push	{r3, r4, r5, lr}
      {
	static_assert(!is_void<_Tp>::value,
		      "can't delete pointer to incomplete type");
	static_assert(sizeof(_Tp)>0,
		      "can't delete pointer to incomplete type");
	delete __ptr;
   d6592:	4605      	mov	r5, r0
   d6594:	b188      	cbz	r0, d65ba <_ZNKSt14default_deleteIN6Thread4DataEEclEPS1_.isra.6+0x2a>

      /// Destructor, invokes the deleter if the stored pointer is not null.
      ~unique_ptr() noexcept
      {
	auto& __ptr = std::get<0>(_M_t);
	if (__ptr != nullptr)
   d6596:	6804      	ldr	r4, [r0, #0]
   d6598:	b14c      	cbz	r4, d65ae <_ZNKSt14default_deleteIN6Thread4DataEEclEPS1_.isra.6+0x1e>

    _Function_base() : _M_manager(nullptr) { }

    ~_Function_base()
    {
      if (_M_manager)
   d659a:	68a3      	ldr	r3, [r4, #8]
   d659c:	b11b      	cbz	r3, d65a6 <_ZNKSt14default_deleteIN6Thread4DataEEclEPS1_.isra.6+0x16>
	_M_manager(_M_functor, _M_functor, __destroy_functor);
   d659e:	2203      	movs	r2, #3
   d65a0:	4621      	mov	r1, r4
   d65a2:	4620      	mov	r0, r4
   d65a4:	4798      	blx	r3
      {
	static_assert(!is_void<_Tp>::value,
		      "can't delete pointer to incomplete type");
	static_assert(sizeof(_Tp)>0,
		      "can't delete pointer to incomplete type");
	delete __ptr;
   d65a6:	2110      	movs	r1, #16
   d65a8:	4620      	mov	r0, r4
   d65aa:	f001 fa25 	bl	d79f8 <_ZdlPvj>
   d65ae:	4628      	mov	r0, r5
   d65b0:	2114      	movs	r1, #20
      }
   d65b2:	e8bd 4038 	ldmia.w	sp!, {r3, r4, r5, lr}
      {
	static_assert(!is_void<_Tp>::value,
		      "can't delete pointer to incomplete type");
	static_assert(sizeof(_Tp)>0,
		      "can't delete pointer to incomplete type");
	delete __ptr;
   d65b6:	f001 ba1f 	b.w	d79f8 <_ZdlPvj>
   d65ba:	bd38      	pop	{r3, r4, r5, pc}

000d65bc <_ZNKSt14default_deleteI3UDPEclEPS0_.isra.8.constprop.13>:
   d65bc:	b110      	cbz	r0, d65c4 <_ZNKSt14default_deleteI3UDPEclEPS0_.isra.8.constprop.13+0x8>
   d65be:	6803      	ldr	r3, [r0, #0]
   d65c0:	685b      	ldr	r3, [r3, #4]
   d65c2:	4718      	bx	r3
   d65c4:	4770      	bx	lr

000d65c6 <_ZN6ThreadD1Ev>:
    Thread(Thread&& thread)
        : d_(std::move(thread.d_))
    {
    }

    ~Thread()
   d65c6:	b510      	push	{r4, lr}
      }

      /// Return the stored pointer.
      pointer
      get() const noexcept
      { return std::get<0>(_M_t); }
   d65c8:	6803      	ldr	r3, [r0, #0]
   d65ca:	4604      	mov	r4, r0
        dispose();
    }

    void dispose()
    {
        if (!isValid())
   d65cc:	b1bb      	cbz	r3, d65fe <_ZN6ThreadD1Ev+0x38>
        return isCurrent();
    }

    bool isCurrent() const
    {
        return isValid() && os_thread_is_current(d_->handle);
   d65ce:	6858      	ldr	r0, [r3, #4]
   d65d0:	f7ff fcd8 	bl	d5f84 <os_thread_is_current>
   d65d4:	b978      	cbnz	r0, d65f6 <_ZN6ThreadD1Ev+0x30>
   d65d6:	6823      	ldr	r3, [r4, #0]

        // We shouldn't dispose of current thread
        if (isCurrent())
            return;

        if (!d_->exited) {
   d65d8:	7c5a      	ldrb	r2, [r3, #17]
   d65da:	b912      	cbnz	r2, d65e2 <_ZN6ThreadD1Ev+0x1c>
        d_.reset();
    }

    bool join()
    {
        return isValid() && os_thread_join(d_->handle)==0;
   d65dc:	6858      	ldr	r0, [r3, #4]
   d65de:	f7ff fcd9 	bl	d5f94 <os_thread_join>

        if (!d_->exited) {
            join();
        }

        os_thread_cleanup(d_->handle);
   d65e2:	6823      	ldr	r3, [r4, #0]
   d65e4:	6858      	ldr	r0, [r3, #4]
   d65e6:	f7ff fcdd 	bl	d5fa4 <os_thread_cleanup>
#endif
    {
      // concept requirements
      __glibcxx_function_requires(_SGIAssignableConcept<_Tp>)

      _Tp __tmp = _GLIBCXX_MOVE(__a);
   d65ea:	6820      	ldr	r0, [r4, #0]
      __a = _GLIBCXX_MOVE(__b);
   d65ec:	2300      	movs	r3, #0
   d65ee:	6023      	str	r3, [r4, #0]
      void
      reset(pointer __p = pointer()) noexcept
      {
	using std::swap;
	swap(std::get<0>(_M_t), __p);
	if (__p != pointer())
   d65f0:	b128      	cbz	r0, d65fe <_ZN6ThreadD1Ev+0x38>
	  get_deleter()(__p);
   d65f2:	f7ff ffcd 	bl	d6590 <_ZNKSt14default_deleteIN6Thread4DataEEclEPS1_.isra.6>

      /// Destructor, invokes the deleter if the stored pointer is not null.
      ~unique_ptr() noexcept
      {
	auto& __ptr = std::get<0>(_M_t);
	if (__ptr != nullptr)
   d65f6:	6820      	ldr	r0, [r4, #0]
   d65f8:	b108      	cbz	r0, d65fe <_ZN6ThreadD1Ev+0x38>
	  get_deleter()(__ptr);
   d65fa:	f7ff ffc9 	bl	d6590 <_ZNKSt14default_deleteIN6Thread4DataEEclEPS1_.isra.6>
    }

    ~Thread()
    {
        dispose();
    }
   d65fe:	4620      	mov	r0, r4
   d6600:	bd10      	pop	{r4, pc}

000d6602 <_ZN5spark11MeshPublishD1Ev>:
    virtual float getQualityValue() const {
        return 0.0f;
    }
};

class MeshPublish {
   d6602:	b538      	push	{r3, r4, r5, lr}
   d6604:	4604      	mov	r4, r0

      /// Destructor, invokes the deleter if the stored pointer is not null.
      ~unique_ptr()
      {
	auto& __ptr = std::get<0>(_M_t);
	if (__ptr != nullptr)
   d6606:	f8d0 01c4 	ldr.w	r0, [r0, #452]	; 0x1c4
   d660a:	b108      	cbz	r0, d6610 <_ZN5spark11MeshPublishD1Ev+0xe>
      void
      operator()(_Tp* __ptr) const
      {
	static_assert(sizeof(_Tp)>0,
		      "can't delete pointer to incomplete type");
	delete [] __ptr;
   d660c:	f7fd fd49 	bl	d40a2 <_ZdaPv>
        dispose();
    }

    void dispose()
    {
        if (handle_) {
   d6610:	f8d4 01c0 	ldr.w	r0, [r4, #448]	; 0x1c0
   d6614:	b108      	cbz	r0, d661a <_ZN5spark11MeshPublishD1Ev+0x18>
            os_mutex_recursive_destroy(handle_);
   d6616:	f7ff fcd5 	bl	d5fc4 <os_mutex_recursive_destroy>

      /// Destructor, invokes the deleter if the stored pointer is not null.
      ~unique_ptr() noexcept
      {
	auto& __ptr = std::get<0>(_M_t);
	if (__ptr != nullptr)
   d661a:	f8d4 51bc 	ldr.w	r5, [r4, #444]	; 0x1bc
   d661e:	b135      	cbz	r5, d662e <_ZN5spark11MeshPublishD1Ev+0x2c>
      {
	static_assert(!is_void<_Tp>::value,
		      "can't delete pointer to incomplete type");
	static_assert(sizeof(_Tp)>0,
		      "can't delete pointer to incomplete type");
	delete __ptr;
   d6620:	4628      	mov	r0, r5
   d6622:	f7ff ffd0 	bl	d65c6 <_ZN6ThreadD1Ev>
   d6626:	2104      	movs	r1, #4
   d6628:	4628      	mov	r0, r5
   d662a:	f001 f9e5 	bl	d79f8 <_ZdlPvj>

      /// Destructor, invokes the deleter if the stored pointer is not null.
      ~unique_ptr() noexcept
      {
	auto& __ptr = std::get<0>(_M_t);
	if (__ptr != nullptr)
   d662e:	6820      	ldr	r0, [r4, #0]
   d6630:	b108      	cbz	r0, d6636 <_ZN5spark11MeshPublishD1Ev+0x34>
	  get_deleter()(__ptr);
   d6632:	f7ff ffc3 	bl	d65bc <_ZNKSt14default_deleteI3UDPEclEPS0_.isra.8.constprop.13>
   d6636:	4620      	mov	r0, r4
   d6638:	bd38      	pop	{r3, r4, r5, pc}
	...

000d663c <_ZN5spark9MeshClassD1Ev>:
    RecursiveMutex mutex_;
    std::unique_ptr<uint8_t[]> buffer_;
    std::atomic_bool exit_;
};

class MeshClass : public NetworkClass, public MeshPublish {
   d663c:	b510      	push	{r4, lr}
   d663e:	4b04      	ldr	r3, [pc, #16]	; (d6650 <_ZN5spark9MeshClassD1Ev+0x14>)
   d6640:	4604      	mov	r4, r0
   d6642:	f840 3b08 	str.w	r3, [r0], #8
   d6646:	f7ff ffdc 	bl	d6602 <_ZN5spark11MeshPublishD1Ev>
   d664a:	4620      	mov	r0, r4
   d664c:	bd10      	pop	{r4, pc}
   d664e:	bf00      	nop
   d6650:	000d941c 	.word	0x000d941c

000d6654 <_GLOBAL__sub_I__ZN5spark11MeshPublish13Subscriptions20event_handler_existsEPKcPFvS3_S3_EPvN17SubscriptionScope4EnumES3_>:

    return addr;
}

MeshClass Mesh;
} // namespace spark
   d6654:	b538      	push	{r3, r4, r5, lr}
   d6656:	4c0e      	ldr	r4, [pc, #56]	; (d6690 <_GLOBAL__sub_I__ZN5spark11MeshPublish13Subscriptions20event_handler_existsEPKcPFvS3_S3_EPvN17SubscriptionScope4EnumES3_+0x3c>)
   d6658:	4b0e      	ldr	r3, [pc, #56]	; (d6694 <_GLOBAL__sub_I__ZN5spark11MeshPublish13Subscriptions20event_handler_existsEPKcPFvS3_S3_EPvN17SubscriptionScope4EnumES3_+0x40>)
   d665a:	6023      	str	r3, [r4, #0]

  template<std::size_t _Idx, typename _Head>
    struct _Head_base<_Idx, _Head, false>
    {
      constexpr _Head_base()
      : _M_head_impl() { }
   d665c:	2500      	movs	r5, #0
   d665e:	2302      	movs	r3, #2
     */
    RecursiveMutex(os_mutex_recursive_t handle) : handle_(handle) {}

    RecursiveMutex() : handle_(nullptr)
    {
        os_mutex_recursive_create(&handle_);
   d6660:	f504 70e4 	add.w	r0, r4, #456	; 0x1c8
   d6664:	6063      	str	r3, [r4, #4]
   d6666:	60a5      	str	r5, [r4, #8]
   d6668:	f8c4 51c4 	str.w	r5, [r4, #452]	; 0x1c4
    /**
     * Creates a shared mutex.
     */
    RecursiveMutex(os_mutex_recursive_t handle) : handle_(handle) {}

    RecursiveMutex() : handle_(nullptr)
   d666c:	f8c4 51c8 	str.w	r5, [r4, #456]	; 0x1c8
    {
        os_mutex_recursive_create(&handle_);
   d6670:	f7ff fca0 	bl	d5fb4 <os_mutex_recursive_create>
public:
    MeshClass() :
            NetworkClass(NETWORK_INTERFACE_MESH) {
   d6674:	4b08      	ldr	r3, [pc, #32]	; (d6698 <_GLOBAL__sub_I__ZN5spark11MeshPublish13Subscriptions20event_handler_existsEPKcPFvS3_S3_EPvN17SubscriptionScope4EnumES3_+0x44>)
   d6676:	f8c4 51cc 	str.w	r5, [r4, #460]	; 0x1cc
      __atomic_base(const __atomic_base&) = delete;
      __atomic_base& operator=(const __atomic_base&) = delete;
      __atomic_base& operator=(const __atomic_base&) volatile = delete;

      // Requires __int_type convertible to _M_i.
      constexpr __atomic_base(__int_type __i) noexcept : _M_i (__i) { }
   d667a:	f884 51d0 	strb.w	r5, [r4, #464]	; 0x1d0
   d667e:	6023      	str	r3, [r4, #0]
    }

    return addr;
}

MeshClass Mesh;
   d6680:	4620      	mov	r0, r4
   d6682:	4a06      	ldr	r2, [pc, #24]	; (d669c <_GLOBAL__sub_I__ZN5spark11MeshPublish13Subscriptions20event_handler_existsEPKcPFvS3_S3_EPvN17SubscriptionScope4EnumES3_+0x48>)
   d6684:	4906      	ldr	r1, [pc, #24]	; (d66a0 <_GLOBAL__sub_I__ZN5spark11MeshPublish13Subscriptions20event_handler_existsEPKcPFvS3_S3_EPvN17SubscriptionScope4EnumES3_+0x4c>)
} // namespace spark
   d6686:	e8bd 4038 	ldmia.w	sp!, {r3, r4, r5, lr}
    }

    return addr;
}

MeshClass Mesh;
   d668a:	f001 b9a8 	b.w	d79de <__aeabi_atexit>
   d668e:	bf00      	nop
   d6690:	2003e3e0 	.word	0x2003e3e0
   d6694:	000d93b4 	.word	0x000d93b4
   d6698:	000d941c 	.word	0x000d941c
   d669c:	2003d620 	.word	0x2003d620
   d66a0:	000d663d 	.word	0x000d663d

000d66a4 <_ZN8SPIClass4lockEv.isra.0>:
  }

  int lock()
  {
#if HAL_PLATFORM_SPI_HAL_THREAD_SAFETY
    return HAL_SPI_Acquire(_spi, nullptr);
   d66a4:	2100      	movs	r1, #0
   d66a6:	f7ff bcdd 	b.w	d6064 <HAL_SPI_Acquire>

000d66aa <_ZN8SPIClass6unlockEv.isra.1>:
  }

  void unlock()
  {
#if HAL_PLATFORM_SPI_HAL_THREAD_SAFETY
    HAL_SPI_Release(_spi, nullptr);
   d66aa:	2100      	movs	r1, #0
   d66ac:	f7ff bce2 	b.w	d6074 <HAL_SPI_Release>

000d66b0 <_ZN8SPIClassC1E17HAL_SPI_Interface>:
    }
    return particle::__SPISettings(info->clock, info->bit_order, info->data_mode);
}
} // namespace

SPIClass::SPIClass(HAL_SPI_Interface spi)
   d66b0:	b510      	push	{r4, lr}
   d66b2:	4604      	mov	r4, r0
{
    _spi = spi;
   d66b4:	7001      	strb	r1, [r0, #0]
    HAL_SPI_Init(_spi);
   d66b6:	4608      	mov	r0, r1
   d66b8:	f7ff fcb4 	bl	d6024 <HAL_SPI_Init>
    _dividerReference = SPI_CLK_SYSTEM; // 0 indicates the system clock
   d66bc:	2300      	movs	r3, #0
   d66be:	6063      	str	r3, [r4, #4]
}
   d66c0:	4620      	mov	r0, r4
   d66c2:	bd10      	pop	{r4, pc}

000d66c4 <_ZN8SPIClass5beginEv>:

void SPIClass::begin()
{
   d66c4:	b510      	push	{r4, lr}
   d66c6:	4604      	mov	r4, r0
    // TODO: Fetch default pin from HAL
    if (!lock())
   d66c8:	7800      	ldrb	r0, [r0, #0]
   d66ca:	f7ff ffeb 	bl	d66a4 <_ZN8SPIClass4lockEv.isra.0>
   d66ce:	b948      	cbnz	r0, d66e4 <_ZN8SPIClass5beginEv+0x20>
    {
        HAL_SPI_Begin(_spi, SPI_DEFAULT_SS);
   d66d0:	7820      	ldrb	r0, [r4, #0]
   d66d2:	f64f 71ff 	movw	r1, #65535	; 0xffff
   d66d6:	f7ff fc95 	bl	d6004 <HAL_SPI_Begin>
        unlock();
   d66da:	7820      	ldrb	r0, [r4, #0]
    }
}
   d66dc:	e8bd 4010 	ldmia.w	sp!, {r4, lr}
{
    // TODO: Fetch default pin from HAL
    if (!lock())
    {
        HAL_SPI_Begin(_spi, SPI_DEFAULT_SS);
        unlock();
   d66e0:	f7ff bfe3 	b.w	d66aa <_ZN8SPIClass6unlockEv.isra.1>
   d66e4:	bd10      	pop	{r4, pc}

000d66e6 <_ZN8SPIClass14endTransactionEv>:
}

void SPIClass::endTransaction()
{
    // Release peripheral
    unlock();
   d66e6:	7800      	ldrb	r0, [r0, #0]
   d66e8:	f7ff bfdf 	b.w	d66aa <_ZN8SPIClass6unlockEv.isra.1>

000d66ec <_ZN8SPIClass19computeClockDividerEjjRhRj>:
void SPIClass::computeClockDivider(unsigned reference, unsigned targetSpeed, uint8_t& divider,
                                   unsigned& clock)
{
    clock = reference;
    uint8_t scale = 0;
    clock >>= 1; // div2 is the first
   d66ec:	0840      	lsrs	r0, r0, #1
    }
}

void SPIClass::computeClockDivider(unsigned reference, unsigned targetSpeed, uint8_t& divider,
                                   unsigned& clock)
{
   d66ee:	b530      	push	{r4, r5, lr}
    clock = reference;
    uint8_t scale = 0;
    clock >>= 1; // div2 is the first
   d66f0:	6018      	str	r0, [r3, #0]
   d66f2:	2400      	movs	r4, #0
    while (clock > targetSpeed && scale < 7)
   d66f4:	6818      	ldr	r0, [r3, #0]
   d66f6:	4288      	cmp	r0, r1
   d66f8:	b2e5      	uxtb	r5, r4
   d66fa:	d906      	bls.n	d670a <_ZN8SPIClass19computeClockDividerEjjRhRj+0x1e>
   d66fc:	3401      	adds	r4, #1
   d66fe:	2c08      	cmp	r4, #8
   d6700:	d002      	beq.n	d6708 <_ZN8SPIClass19computeClockDividerEjjRhRj+0x1c>
    {
        clock >>= 1;
   d6702:	0840      	lsrs	r0, r0, #1
   d6704:	6018      	str	r0, [r3, #0]
                                   unsigned& clock)
{
    clock = reference;
    uint8_t scale = 0;
    clock >>= 1; // div2 is the first
    while (clock > targetSpeed && scale < 7)
   d6706:	e7f5      	b.n	d66f4 <_ZN8SPIClass19computeClockDividerEjjRhRj+0x8>
   d6708:	2507      	movs	r5, #7
    {
        clock >>= 1;
        scale++;
    }
    divider = clock_divisors[scale];
   d670a:	4b02      	ldr	r3, [pc, #8]	; (d6714 <_ZN8SPIClass19computeClockDividerEjjRhRj+0x28>)
   d670c:	5d5b      	ldrb	r3, [r3, r5]
   d670e:	7013      	strb	r3, [r2, #0]
   d6710:	bd30      	pop	{r4, r5, pc}
   d6712:	bf00      	nop
   d6714:	000d9448 	.word	0x000d9448

000d6718 <_ZN8SPIClass16beginTransactionERKN8particle13__SPISettingsE>:
{
    return lock();
}

int32_t SPIClass::beginTransaction(const particle::__SPISettings& settings)
{
   d6718:	e92d 43f0 	stmdb	sp!, {r4, r5, r6, r7, r8, r9, lr}
   d671c:	4607      	mov	r7, r0
   d671e:	b08f      	sub	sp, #60	; 0x3c
    // Lock peripheral
    CHECK(lock());
   d6720:	7800      	ldrb	r0, [r0, #0]
{
    return lock();
}

int32_t SPIClass::beginTransaction(const particle::__SPISettings& settings)
{
   d6722:	460e      	mov	r6, r1
    // Lock peripheral
    CHECK(lock());
   d6724:	f7ff ffbe 	bl	d66a4 <_ZN8SPIClass4lockEv.isra.0>
   d6728:	2800      	cmp	r0, #0
   d672a:	db62      	blt.n	d67f2 <_ZN8SPIClass16beginTransactionERKN8particle13__SPISettingsE+0xda>

    // Collect existing SPI info
    hal_spi_info_t spi_info;
    querySpiInfo(_spi, &spi_info);
   d672c:	783c      	ldrb	r4, [r7, #0]
 * \warning This method is NOT THREADSAFE and callers will need to utilize
 *          HAL synchronization primatives.
 */
static void querySpiInfo(HAL_SPI_Interface spi, hal_spi_info_t* info)
{
    memset(info, 0, sizeof(hal_spi_info_t));
   d672e:	2214      	movs	r2, #20
   d6730:	2100      	movs	r1, #0
   d6732:	a809      	add	r0, sp, #36	; 0x24
   d6734:	f002 fa29 	bl	d8b8a <memset>
    info->version = HAL_SPI_INFO_VERSION_1;
   d6738:	230b      	movs	r3, #11
    HAL_SPI_Info(spi, info, nullptr);
   d673a:	4620      	mov	r0, r4
   d673c:	2200      	movs	r2, #0
   d673e:	a909      	add	r1, sp, #36	; 0x24
 *          HAL synchronization primatives.
 */
static void querySpiInfo(HAL_SPI_Interface spi, hal_spi_info_t* info)
{
    memset(info, 0, sizeof(hal_spi_info_t));
    info->version = HAL_SPI_INFO_VERSION_1;
   d6740:	f8ad 3024 	strh.w	r3, [sp, #36]	; 0x24
    HAL_SPI_Info(spi, info, nullptr);
   d6744:	f7ff fc7e 	bl	d6044 <HAL_SPI_Info>
/**
 * \brief Extract SPI Settings from SPI Info Structure
 */
static particle::__SPISettings spiSettingsFromSpiInfo(hal_spi_info_t* info)
{
    if (!info || !info->enabled || info->default_settings)
   d6748:	f89d 402d 	ldrb.w	r4, [sp, #45]	; 0x2d
   d674c:	b154      	cbz	r4, d6764 <_ZN8SPIClass16beginTransactionERKN8particle13__SPISettingsE+0x4c>
   d674e:	f89d 502c 	ldrb.w	r5, [sp, #44]	; 0x2c
   d6752:	b935      	cbnz	r5, d6762 <_ZN8SPIClass16beginTransactionERKN8particle13__SPISettingsE+0x4a>
    {
        return particle::__SPISettings();
    }
    return particle::__SPISettings(info->clock, info->bit_order, info->data_mode);
   d6754:	f8dd 8030 	ldr.w	r8, [sp, #48]	; 0x30
   d6758:	f89d 9034 	ldrb.w	r9, [sp, #52]	; 0x34
   d675c:	f89d 4035 	ldrb.w	r4, [sp, #53]	; 0x35
   d6760:	e003      	b.n	d676a <_ZN8SPIClass16beginTransactionERKN8particle13__SPISettingsE+0x52>
      dataMode_{dataMode}
  {
  }

  __SPISettings()
  {
   d6762:	2400      	movs	r4, #0
   d6764:	46a1      	mov	r9, r4
   d6766:	46a0      	mov	r8, r4
   d6768:	2501      	movs	r5, #1
   d676a:	7933      	ldrb	r3, [r6, #4]
  }

  bool operator==(const __SPISettings& other) const
  {
    if (default_ && other.default_)
   d676c:	b105      	cbz	r5, d6770 <_ZN8SPIClass16beginTransactionERKN8particle13__SPISettingsE+0x58>
   d676e:	b9bb      	cbnz	r3, d67a0 <_ZN8SPIClass16beginTransactionERKN8particle13__SPISettingsE+0x88>
      return true;

    if (default_ == other.default_ &&
   d6770:	429d      	cmp	r5, r3
   d6772:	d10b      	bne.n	d678c <_ZN8SPIClass16beginTransactionERKN8particle13__SPISettingsE+0x74>
   d6774:	68b2      	ldr	r2, [r6, #8]
   d6776:	4542      	cmp	r2, r8
   d6778:	d108      	bne.n	d678c <_ZN8SPIClass16beginTransactionERKN8particle13__SPISettingsE+0x74>
        clock_ == other.clock_ &&
        bitOrder_ == other.bitOrder_ &&
   d677a:	f88d 9020 	strb.w	r9, [sp, #32]
   d677e:	f88d 4021 	strb.w	r4, [sp, #33]	; 0x21
   d6782:	f8bd 1020 	ldrh.w	r1, [sp, #32]
   d6786:	89b2      	ldrh	r2, [r6, #12]
   d6788:	4291      	cmp	r1, r2
   d678a:	d009      	beq.n	d67a0 <_ZN8SPIClass16beginTransactionERKN8particle13__SPISettingsE+0x88>
    particle::__SPISettings spi_settings = spiSettingsFromSpiInfo(&spi_info);

    // Reconfigure SPI peripheral (if necessary)
    if (settings != spi_settings)
    {
        if (settings.default_)
   d678c:	b153      	cbz	r3, d67a4 <_ZN8SPIClass16beginTransactionERKN8particle13__SPISettingsE+0x8c>
        {
            HAL_SPI_Set_Settings(_spi, settings.default_, 0, 0, 0, nullptr);
   d678e:	2400      	movs	r4, #0
   d6790:	7838      	ldrb	r0, [r7, #0]
   d6792:	9401      	str	r4, [sp, #4]
   d6794:	9400      	str	r4, [sp, #0]
   d6796:	4623      	mov	r3, r4
   d6798:	4622      	mov	r2, r4
   d679a:	2101      	movs	r1, #1

            // Ensure inequality aside from computed clock value
            if (!(spi_settings <= settings && clock == spi_settings.clock_))
            {
                HAL_SPI_Set_Settings(_spi, settings.default_, divisor, settings.bitOrder_,
                                     settings.dataMode_, nullptr);
   d679c:	f7ff fc5a 	bl	d6054 <HAL_SPI_Set_Settings>
            }
        }
    }

    return 0;
   d67a0:	2000      	movs	r0, #0
   d67a2:	e026      	b.n	d67f2 <_ZN8SPIClass16beginTransactionERKN8particle13__SPISettingsE+0xda>
            HAL_SPI_Set_Settings(_spi, settings.default_, 0, 0, 0, nullptr);
        }
        else
        {
            // Compute valid clock value and clock divider from supplied clock value
            uint8_t divisor = 0;
   d67a4:	f88d 300f 	strb.w	r3, [sp, #15]
            unsigned int clock; // intentionally left uninitialized
            computeClockDivider((unsigned int)spi_info.system_clock, settings.clock_, divisor,
                                clock);
   d67a8:	68b1      	ldr	r1, [r6, #8]
   d67aa:	980a      	ldr	r0, [sp, #40]	; 0x28
   d67ac:	ab04      	add	r3, sp, #16
   d67ae:	f10d 020f 	add.w	r2, sp, #15
   d67b2:	f7ff ff9b 	bl	d66ec <_ZN8SPIClass19computeClockDividerEjjRhRj>
   d67b6:	7931      	ldrb	r1, [r6, #4]
    return false;
  }

  bool operator<=(const __SPISettings& other) const
  {
    if (default_ && other.default_)
   d67b8:	b105      	cbz	r5, d67bc <_ZN8SPIClass16beginTransactionERKN8particle13__SPISettingsE+0xa4>
   d67ba:	b9b1      	cbnz	r1, d67ea <_ZN8SPIClass16beginTransactionERKN8particle13__SPISettingsE+0xd2>
      return true;

    if (default_ == other.default_ &&
   d67bc:	42a9      	cmp	r1, r5
   d67be:	d008      	beq.n	d67d2 <_ZN8SPIClass16beginTransactionERKN8particle13__SPISettingsE+0xba>

            // Ensure inequality aside from computed clock value
            if (!(spi_settings <= settings && clock == spi_settings.clock_))
            {
                HAL_SPI_Set_Settings(_spi, settings.default_, divisor, settings.bitOrder_,
                                     settings.dataMode_, nullptr);
   d67c0:	2400      	movs	r4, #0
   d67c2:	7838      	ldrb	r0, [r7, #0]
   d67c4:	9401      	str	r4, [sp, #4]
   d67c6:	7b74      	ldrb	r4, [r6, #13]
   d67c8:	7b33      	ldrb	r3, [r6, #12]
   d67ca:	f89d 200f 	ldrb.w	r2, [sp, #15]
   d67ce:	9400      	str	r4, [sp, #0]
   d67d0:	e7e4      	b.n	d679c <_ZN8SPIClass16beginTransactionERKN8particle13__SPISettingsE+0x84>
   d67d2:	68b3      	ldr	r3, [r6, #8]
   d67d4:	4543      	cmp	r3, r8
   d67d6:	d3f3      	bcc.n	d67c0 <_ZN8SPIClass16beginTransactionERKN8particle13__SPISettingsE+0xa8>
        clock_ <= other.clock_ &&
        bitOrder_ == other.bitOrder_ &&
   d67d8:	f88d 9020 	strb.w	r9, [sp, #32]
   d67dc:	f88d 4021 	strb.w	r4, [sp, #33]	; 0x21
   d67e0:	f8bd 2020 	ldrh.w	r2, [sp, #32]
   d67e4:	89b3      	ldrh	r3, [r6, #12]
   d67e6:	429a      	cmp	r2, r3
   d67e8:	d1ea      	bne.n	d67c0 <_ZN8SPIClass16beginTransactionERKN8particle13__SPISettingsE+0xa8>
            unsigned int clock; // intentionally left uninitialized
            computeClockDivider((unsigned int)spi_info.system_clock, settings.clock_, divisor,
                                clock);

            // Ensure inequality aside from computed clock value
            if (!(spi_settings <= settings && clock == spi_settings.clock_))
   d67ea:	9b04      	ldr	r3, [sp, #16]
   d67ec:	4543      	cmp	r3, r8
   d67ee:	d1e7      	bne.n	d67c0 <_ZN8SPIClass16beginTransactionERKN8particle13__SPISettingsE+0xa8>
   d67f0:	e7d6      	b.n	d67a0 <_ZN8SPIClass16beginTransactionERKN8particle13__SPISettingsE+0x88>
            }
        }
    }

    return 0;
}
   d67f2:	b00f      	add	sp, #60	; 0x3c
   d67f4:	e8bd 83f0 	ldmia.w	sp!, {r4, r5, r6, r7, r8, r9, pc}

000d67f8 <_ZN8SPIClass8transferEh>:

    return clock;
}

byte SPIClass::transfer(byte _data)
{
   d67f8:	b508      	push	{r3, lr}
    return static_cast<byte>(HAL_SPI_Send_Receive_Data(_spi, _data));
   d67fa:	7800      	ldrb	r0, [r0, #0]
   d67fc:	f7ff fc0a 	bl	d6014 <HAL_SPI_Send_Receive_Data>
}
   d6800:	b2c0      	uxtb	r0, r0
   d6802:	bd08      	pop	{r3, pc}

000d6804 <_ZN8SPIClass9isEnabledEv>:
bool SPIClass::isEnabled()
{
    // XXX: pinAvailable() will call this method potentially even from
    // interrupt context. `enabled` flag in HAL is usually just a volatile
    // variable, so it's fine not to acquire the lock here.
    return HAL_SPI_Is_Enabled(_spi);
   d6804:	7800      	ldrb	r0, [r0, #0]
   d6806:	f7ff bc15 	b.w	d6034 <HAL_SPI_Is_Enabled>

000d680a <_ZN7TwoWireD1Ev>:
private:
  HAL_I2C_Interface _i2c;

public:
  TwoWire(HAL_I2C_Interface i2c, const HAL_I2C_Config& config);
  virtual ~TwoWire() {};
   d680a:	4770      	bx	lr

000d680c <_ZN7TwoWire5writeEPKhj>:

// must be called in:
// slave tx event callback
// or after beginTransmission(address)
size_t TwoWire::write(const uint8_t *data, size_t quantity)
{
   d680c:	b5f8      	push	{r3, r4, r5, r6, r7, lr}
   d680e:	4606      	mov	r6, r0
   d6810:	4615      	mov	r5, r2
   d6812:	460c      	mov	r4, r1
   d6814:	188f      	adds	r7, r1, r2
  // in master/slave transmitter mode
  for(size_t i = 0; i < quantity; ++i)
   d6816:	42bc      	cmp	r4, r7
   d6818:	d006      	beq.n	d6828 <_ZN7TwoWire5writeEPKhj+0x1c>
  {
    write(data[i]);
   d681a:	6833      	ldr	r3, [r6, #0]
   d681c:	f814 1b01 	ldrb.w	r1, [r4], #1
   d6820:	689b      	ldr	r3, [r3, #8]
   d6822:	4630      	mov	r0, r6
   d6824:	4798      	blx	r3
// slave tx event callback
// or after beginTransmission(address)
size_t TwoWire::write(const uint8_t *data, size_t quantity)
{
  // in master/slave transmitter mode
  for(size_t i = 0; i < quantity; ++i)
   d6826:	e7f6      	b.n	d6816 <_ZN7TwoWire5writeEPKhj+0xa>
  {
    write(data[i]);
  }

  return quantity;
}
   d6828:	4628      	mov	r0, r5
   d682a:	bdf8      	pop	{r3, r4, r5, r6, r7, pc}

000d682c <_ZN7TwoWire5writeEh>:
// must be called in:
// slave tx event callback
// or after beginTransmission(address)
size_t TwoWire::write(uint8_t data)
{
  return HAL_I2C_Write_Data(_i2c, data, NULL);
   d682c:	2200      	movs	r2, #0
   d682e:	7c00      	ldrb	r0, [r0, #16]
   d6830:	f7ff bb20 	b.w	d5e74 <HAL_I2C_Write_Data>

000d6834 <_ZN7TwoWire9availableEv>:
// must be called in:
// slave rx event callback
// or after requestFrom(address, numBytes)
int TwoWire::available(void)
{
  return HAL_I2C_Available_Data(_i2c, NULL);
   d6834:	2100      	movs	r1, #0
   d6836:	7c00      	ldrb	r0, [r0, #16]
   d6838:	f7ff bb24 	b.w	d5e84 <HAL_I2C_Available_Data>

000d683c <_ZN7TwoWire4readEv>:
// must be called in:
// slave rx event callback
// or after requestFrom(address, numBytes)
int TwoWire::read(void)
{
  return HAL_I2C_Read_Data(_i2c, NULL);
   d683c:	2100      	movs	r1, #0
   d683e:	7c00      	ldrb	r0, [r0, #16]
   d6840:	f7ff bb28 	b.w	d5e94 <HAL_I2C_Read_Data>

000d6844 <_ZN7TwoWire4peekEv>:
// must be called in:
// slave rx event callback
// or after requestFrom(address, numBytes)
int TwoWire::peek(void)
{
  return HAL_I2C_Peek_Data(_i2c, NULL);
   d6844:	2100      	movs	r1, #0
   d6846:	7c00      	ldrb	r0, [r0, #16]
   d6848:	f7ff bb2c 	b.w	d5ea4 <HAL_I2C_Peek_Data>

000d684c <_ZN7TwoWire5flushEv>:
}

void TwoWire::flush(void)
{
  HAL_I2C_Flush_Data(_i2c, NULL);
   d684c:	2100      	movs	r1, #0
   d684e:	7c00      	ldrb	r0, [r0, #16]
   d6850:	f7ff bb30 	b.w	d5eb4 <HAL_I2C_Flush_Data>

000d6854 <_ZN7TwoWireD0Ev>:
   d6854:	b510      	push	{r4, lr}
   d6856:	2114      	movs	r1, #20
   d6858:	4604      	mov	r4, r0
   d685a:	f001 f8cd 	bl	d79f8 <_ZdlPvj>
   d685e:	4620      	mov	r0, r4
   d6860:	bd10      	pop	{r4, pc}
	...

000d6864 <_ZN7TwoWireC1E17HAL_I2C_InterfaceRK14HAL_I2C_Config>:
#include "i2c_hal.h"
#include "spark_wiring_thread.h"

// Constructors ////////////////////////////////////////////////////////////////

TwoWire::TwoWire(HAL_I2C_Interface i2c, const HAL_I2C_Config& conf)
   d6864:	b510      	push	{r4, lr}
   d6866:	4604      	mov	r4, r0
  protected:
    void setWriteError(int err = 1) { write_error = err; }
    size_t printf_impl(bool newline, const char* format, ...);

  public:
    Print() : write_error(0) {}
   d6868:	2300      	movs	r3, #0
   d686a:	6063      	str	r3, [r4, #4]
    virtual int available() = 0;
    virtual int read() = 0;
    virtual int peek() = 0;
    virtual void flush() = 0;

    Stream() {_timeout=1000;}
   d686c:	f44f 737a 	mov.w	r3, #1000	; 0x3e8
   d6870:	60a3      	str	r3, [r4, #8]
   d6872:	4b04      	ldr	r3, [pc, #16]	; (d6884 <_ZN7TwoWireC1E17HAL_I2C_InterfaceRK14HAL_I2C_Config+0x20>)
{
  _i2c = i2c;
   d6874:	7421      	strb	r1, [r4, #16]
#include "i2c_hal.h"
#include "spark_wiring_thread.h"

// Constructors ////////////////////////////////////////////////////////////////

TwoWire::TwoWire(HAL_I2C_Interface i2c, const HAL_I2C_Config& conf)
   d6876:	4608      	mov	r0, r1
   d6878:	6023      	str	r3, [r4, #0]
{
  _i2c = i2c;
  HAL_I2C_Init(_i2c, &conf);
   d687a:	4611      	mov	r1, r2
   d687c:	f7ff fb2a 	bl	d5ed4 <HAL_I2C_Init>
}
   d6880:	4620      	mov	r0, r4
   d6882:	bd10      	pop	{r4, pc}
   d6884:	000d9458 	.word	0x000d9458

000d6888 <_ZN7TwoWire5beginEv>:
  HAL_I2C_Stretch_Clock(_i2c, stretch, NULL);
}

void TwoWire::begin(void)
{
	HAL_I2C_Begin(_i2c, I2C_MODE_MASTER, 0x00, NULL);
   d6888:	2300      	movs	r3, #0
   d688a:	461a      	mov	r2, r3
   d688c:	4619      	mov	r1, r3
   d688e:	7c00      	ldrb	r0, [r0, #16]
   d6890:	f7ff bad8 	b.w	d5e44 <HAL_I2C_Begin>

000d6894 <_ZN7TwoWire17beginTransmissionEh>:
  return HAL_I2C_Request_Data_Ex(_i2c, &conf, nullptr);
}

void TwoWire::beginTransmission(uint8_t address)
{
	HAL_I2C_Begin_Transmission(_i2c, address, NULL);
   d6894:	2200      	movs	r2, #0
   d6896:	7c00      	ldrb	r0, [r0, #16]
   d6898:	f7ff badc 	b.w	d5e54 <HAL_I2C_Begin_Transmission>

000d689c <_ZN7TwoWire15endTransmissionEh>:
//	no call to endTransmission(true) is made. Some I2C
//	devices will behave oddly if they do not see a STOP.
//
uint8_t TwoWire::endTransmission(uint8_t sendStop)
{
	return HAL_I2C_End_Transmission(_i2c, sendStop, NULL);
   d689c:	2200      	movs	r2, #0
   d689e:	7c00      	ldrb	r0, [r0, #16]
   d68a0:	f7ff bae0 	b.w	d5e64 <HAL_I2C_End_Transmission>

000d68a4 <_ZN7TwoWire15endTransmissionEv>:
//	This provides backwards compatibility with the original
//	definition, and expected behaviour, of endTransmission
//
uint8_t TwoWire::endTransmission(void)
{
  return endTransmission(true);
   d68a4:	2101      	movs	r1, #1
   d68a6:	f7ff bff9 	b.w	d689c <_ZN7TwoWire15endTransmissionEh>

000d68aa <_ZN7TwoWire9isEnabledEv>:
  HAL_I2C_Set_Callback_On_Request(_i2c, function, NULL);
}

bool TwoWire::isEnabled()
{
  return HAL_I2C_Is_Enabled(_i2c, NULL);
   d68aa:	2100      	movs	r1, #0
   d68ac:	7c00      	ldrb	r0, [r0, #16]
   d68ae:	f7ff bb09 	b.w	d5ec4 <HAL_I2C_Is_Enabled>

000d68b2 <_ZN8particle6detail21futureCallbackWrapperEPv>:
 * License along with this library; if not, see <http://www.gnu.org/licenses/>.
 */

#include "spark_wiring_async.h"

void particle::detail::futureCallbackWrapper(void* data) {
   d68b2:	b510      	push	{r4, lr}
  template<typename _Res, typename... _ArgTypes>
    _Res
    function<_Res(_ArgTypes...)>::
    operator()(_ArgTypes... __args) const
    {
      if (_M_empty())
   d68b4:	6883      	ldr	r3, [r0, #8]
   d68b6:	4604      	mov	r4, r0
   d68b8:	b90b      	cbnz	r3, d68be <_ZN8particle6detail21futureCallbackWrapperEPv+0xc>
	__throw_bad_function_call();
   d68ba:	f001 f8b0 	bl	d7a1e <_ZSt25__throw_bad_function_callv>
      return _M_invoker(_M_functor, std::forward<_ArgTypes>(__args)...);
   d68be:	68c3      	ldr	r3, [r0, #12]
   d68c0:	4798      	blx	r3

    _Function_base() : _M_manager(nullptr) { }

    ~_Function_base()
    {
      if (_M_manager)
   d68c2:	68a3      	ldr	r3, [r4, #8]
   d68c4:	b11b      	cbz	r3, d68ce <_ZN8particle6detail21futureCallbackWrapperEPv+0x1c>
	_M_manager(_M_functor, _M_functor, __destroy_functor);
   d68c6:	2203      	movs	r2, #3
   d68c8:	4621      	mov	r1, r4
   d68ca:	4620      	mov	r0, r4
   d68cc:	4798      	blx	r3
    auto callbackPtr = static_cast<const std::function<void()>*>(data);
    (*callbackPtr)();
    delete callbackPtr;
   d68ce:	4620      	mov	r0, r4
   d68d0:	2110      	movs	r1, #16
}
   d68d2:	e8bd 4010 	ldmia.w	sp!, {r4, lr}
#include "spark_wiring_async.h"

void particle::detail::futureCallbackWrapper(void* data) {
    auto callbackPtr = static_cast<const std::function<void()>*>(data);
    (*callbackPtr)();
    delete callbackPtr;
   d68d6:	f001 b88f 	b.w	d79f8 <_ZdlPvj>

000d68da <_ZN11USARTSerialD1Ev>:
private:
  HAL_USART_Serial _serial;
  bool _blocking;
public:
  USARTSerial(HAL_USART_Serial serial, Ring_Buffer *rx_buffer, Ring_Buffer *tx_buffer);
  virtual ~USARTSerial() {};
   d68da:	4770      	bx	lr

000d68dc <_ZN11USARTSerial14blockOnOverrunEb>:
    HAL_USART_Half_Duplex(_serial, Enable);
}

void USARTSerial::blockOnOverrun(bool block)
{
  _blocking = block;
   d68dc:	7441      	strb	r1, [r0, #17]
   d68de:	4770      	bx	lr

000d68e0 <_ZN11USARTSerial17availableForWriteEv>:
}


int USARTSerial::availableForWrite(void)
{
   d68e0:	b508      	push	{r3, lr}
  return std::max(0, (int)HAL_USART_Available_Data_For_Write(_serial));
   d68e2:	7c00      	ldrb	r0, [r0, #16]
   d68e4:	f7ff fb36 	bl	d5f54 <HAL_USART_Available_Data_For_Write>
}
   d68e8:	ea20 70e0 	bic.w	r0, r0, r0, asr #31
   d68ec:	bd08      	pop	{r3, pc}

000d68ee <_ZN11USARTSerial9availableEv>:

int USARTSerial::available(void)
{
   d68ee:	b508      	push	{r3, lr}
  return std::max(0, (int)HAL_USART_Available_Data(_serial));
   d68f0:	7c00      	ldrb	r0, [r0, #16]
   d68f2:	f7ff fb07 	bl	d5f04 <HAL_USART_Available_Data>
}
   d68f6:	ea20 70e0 	bic.w	r0, r0, r0, asr #31
   d68fa:	bd08      	pop	{r3, pc}

000d68fc <_ZN11USARTSerial4peekEv>:

int USARTSerial::peek(void)
{
   d68fc:	b508      	push	{r3, lr}
  return std::max(-1, (int)HAL_USART_Peek_Data(_serial));
   d68fe:	7c00      	ldrb	r0, [r0, #16]
   d6900:	f7ff fb10 	bl	d5f24 <HAL_USART_Peek_Data>
}
   d6904:	ea30 0020 	bics.w	r0, r0, r0, asr #32
   d6908:	bf28      	it	cs
   d690a:	f04f 30ff 	movcs.w	r0, #4294967295
   d690e:	bd08      	pop	{r3, pc}

000d6910 <_ZN11USARTSerial4readEv>:

int USARTSerial::read(void)
{
   d6910:	b508      	push	{r3, lr}
  return std::max(-1, (int)HAL_USART_Read_Data(_serial));
   d6912:	7c00      	ldrb	r0, [r0, #16]
   d6914:	f7ff fafe 	bl	d5f14 <HAL_USART_Read_Data>
}
   d6918:	ea30 0020 	bics.w	r0, r0, r0, asr #32
   d691c:	bf28      	it	cs
   d691e:	f04f 30ff 	movcs.w	r0, #4294967295
   d6922:	bd08      	pop	{r3, pc}

000d6924 <_ZN11USARTSerial5flushEv>:

void USARTSerial::flush()
{
  HAL_USART_Flush_Data(_serial);
   d6924:	7c00      	ldrb	r0, [r0, #16]
   d6926:	f7ff bb05 	b.w	d5f34 <HAL_USART_Flush_Data>

000d692a <_ZN11USARTSerialD0Ev>:
   d692a:	b510      	push	{r4, lr}
   d692c:	2114      	movs	r1, #20
   d692e:	4604      	mov	r4, r0
   d6930:	f001 f862 	bl	d79f8 <_ZdlPvj>
   d6934:	4620      	mov	r0, r4
   d6936:	bd10      	pop	{r4, pc}

000d6938 <_ZN11USARTSerial5writeEh>:
}

size_t USARTSerial::write(uint8_t c)
{
   d6938:	b570      	push	{r4, r5, r6, lr}
  // attempt a write if blocking, or for non-blocking if there is room.
  if (_blocking || HAL_USART_Available_Data_For_Write(_serial) > 0) {
   d693a:	7c45      	ldrb	r5, [r0, #17]
{
  HAL_USART_Flush_Data(_serial);
}

size_t USARTSerial::write(uint8_t c)
{
   d693c:	4604      	mov	r4, r0
   d693e:	460e      	mov	r6, r1
  // attempt a write if blocking, or for non-blocking if there is room.
  if (_blocking || HAL_USART_Available_Data_For_Write(_serial) > 0) {
   d6940:	b925      	cbnz	r5, d694c <_ZN11USARTSerial5writeEh+0x14>
   d6942:	7c00      	ldrb	r0, [r0, #16]
   d6944:	f7ff fb06 	bl	d5f54 <HAL_USART_Available_Data_For_Write>
   d6948:	2800      	cmp	r0, #0
   d694a:	dd05      	ble.n	d6958 <_ZN11USARTSerial5writeEh+0x20>
    // the HAL always blocks.
	  return HAL_USART_Write_Data(_serial, c);
   d694c:	4631      	mov	r1, r6
   d694e:	7c20      	ldrb	r0, [r4, #16]
  }
  return 0;
}
   d6950:	e8bd 4070 	ldmia.w	sp!, {r4, r5, r6, lr}
size_t USARTSerial::write(uint8_t c)
{
  // attempt a write if blocking, or for non-blocking if there is room.
  if (_blocking || HAL_USART_Available_Data_For_Write(_serial) > 0) {
    // the HAL always blocks.
	  return HAL_USART_Write_Data(_serial, c);
   d6954:	f7ff bace 	b.w	d5ef4 <HAL_USART_Write_Data>
  }
  return 0;
}
   d6958:	4628      	mov	r0, r5
   d695a:	bd70      	pop	{r4, r5, r6, pc}

000d695c <_ZN11USARTSerialC1E16HAL_USART_SerialP11Ring_BufferS2_>:
#include "spark_wiring_constants.h"
#include "module_info.h"

// Constructors ////////////////////////////////////////////////////////////////

USARTSerial::USARTSerial(HAL_USART_Serial serial, Ring_Buffer *rx_buffer, Ring_Buffer *tx_buffer)
   d695c:	b510      	push	{r4, lr}
   d695e:	4604      	mov	r4, r0
   d6960:	4608      	mov	r0, r1
   d6962:	4611      	mov	r1, r2
   d6964:	2200      	movs	r2, #0
   d6966:	6062      	str	r2, [r4, #4]
   d6968:	f44f 727a 	mov.w	r2, #1000	; 0x3e8
   d696c:	60a2      	str	r2, [r4, #8]
   d696e:	4a05      	ldr	r2, [pc, #20]	; (d6984 <_ZN11USARTSerialC1E16HAL_USART_SerialP11Ring_BufferS2_+0x28>)
   d6970:	6022      	str	r2, [r4, #0]
{
  _serial = serial;
  // Default is blocking mode
  _blocking = true;
   d6972:	2201      	movs	r2, #1

// Constructors ////////////////////////////////////////////////////////////////

USARTSerial::USARTSerial(HAL_USART_Serial serial, Ring_Buffer *rx_buffer, Ring_Buffer *tx_buffer)
{
  _serial = serial;
   d6974:	7420      	strb	r0, [r4, #16]
  // Default is blocking mode
  _blocking = true;
   d6976:	7462      	strb	r2, [r4, #17]
  HAL_USART_Init(serial, rx_buffer, tx_buffer);
   d6978:	461a      	mov	r2, r3
   d697a:	f7ff fab3 	bl	d5ee4 <HAL_USART_Init>
}
   d697e:	4620      	mov	r0, r4
   d6980:	bd10      	pop	{r4, pc}
   d6982:	bf00      	nop
   d6984:	000d9480 	.word	0x000d9480

000d6988 <_ZN11USARTSerial5beginEmm>:
  begin(baud, SERIAL_8N1);
}

void USARTSerial::begin(unsigned long baud, uint32_t config)
{
  HAL_USART_BeginConfig(_serial, baud, config, 0);
   d6988:	2300      	movs	r3, #0
   d698a:	7c00      	ldrb	r0, [r0, #16]
   d698c:	f7ff baea 	b.w	d5f64 <HAL_USART_BeginConfig>

000d6990 <_ZN11USARTSerial5beginEm>:
}
// Public Methods //////////////////////////////////////////////////////////////

void USARTSerial::begin(unsigned long baud)
{
  begin(baud, SERIAL_8N1);
   d6990:	2200      	movs	r2, #0
   d6992:	f7ff bff9 	b.w	d6988 <_ZN11USARTSerial5beginEmm>

000d6996 <_ZN11USARTSerial9isEnabledEv>:
USARTSerial::operator bool() {
  return true;
}

bool USARTSerial::isEnabled() {
  return HAL_USART_Is_Enabled(_serial);
   d6996:	7c00      	ldrb	r0, [r0, #16]
   d6998:	f7ff bad4 	b.w	d5f44 <HAL_USART_Is_Enabled>

000d699c <_Z22__fetch_global_Serial1v>:
static Ring_Buffer* serial1_rx_buffer = NULL;
static Ring_Buffer* serial1_tx_buffer = NULL;
#endif

USARTSerial& __fetch_global_Serial1()
{
   d699c:	b538      	push	{r3, r4, r5, lr}
#if ((MODULE_FUNCTION == MOD_FUNC_USER_PART) || (MODULE_FUNCTION == MOD_FUNC_MONO_FIRMWARE))
	static USARTSerial serial1(HAL_USART_SERIAL1, &serial1_rx_buffer, &serial1_tx_buffer);
   d699e:	4d0c      	ldr	r5, [pc, #48]	; (d69d0 <_Z22__fetch_global_Serial1v+0x34>)
   d69a0:	6829      	ldr	r1, [r5, #0]
   d69a2:	f011 0401 	ands.w	r4, r1, #1
   d69a6:	d111      	bne.n	d69cc <_Z22__fetch_global_Serial1v+0x30>
   d69a8:	4628      	mov	r0, r5
   d69aa:	f7fd fb7c 	bl	d40a6 <__cxa_guard_acquire>
   d69ae:	b168      	cbz	r0, d69cc <_Z22__fetch_global_Serial1v+0x30>
   d69b0:	4a08      	ldr	r2, [pc, #32]	; (d69d4 <_Z22__fetch_global_Serial1v+0x38>)
   d69b2:	4b09      	ldr	r3, [pc, #36]	; (d69d8 <_Z22__fetch_global_Serial1v+0x3c>)
   d69b4:	4809      	ldr	r0, [pc, #36]	; (d69dc <_Z22__fetch_global_Serial1v+0x40>)
   d69b6:	4621      	mov	r1, r4
   d69b8:	f7ff ffd0 	bl	d695c <_ZN11USARTSerialC1E16HAL_USART_SerialP11Ring_BufferS2_>
   d69bc:	4628      	mov	r0, r5
   d69be:	f7fd fb77 	bl	d40b0 <__cxa_guard_release>
   d69c2:	4a07      	ldr	r2, [pc, #28]	; (d69e0 <_Z22__fetch_global_Serial1v+0x44>)
   d69c4:	4907      	ldr	r1, [pc, #28]	; (d69e4 <_Z22__fetch_global_Serial1v+0x48>)
   d69c6:	4805      	ldr	r0, [pc, #20]	; (d69dc <_Z22__fetch_global_Serial1v+0x40>)
   d69c8:	f001 f809 	bl	d79de <__aeabi_atexit>
    serial1_tx_buffer = new Ring_Buffer();
  }
  static USARTSerial serial1(HAL_USART_SERIAL1, serial1_rx_buffer, serial1_tx_buffer);
#endif
	return serial1;
}
   d69cc:	4803      	ldr	r0, [pc, #12]	; (d69dc <_Z22__fetch_global_Serial1v+0x40>)
   d69ce:	bd38      	pop	{r3, r4, r5, pc}
   d69d0:	2003e64c 	.word	0x2003e64c
   d69d4:	2003e650 	.word	0x2003e650
   d69d8:	2003e5c8 	.word	0x2003e5c8
   d69dc:	2003e5b4 	.word	0x2003e5b4
   d69e0:	2003d620 	.word	0x2003d620
   d69e4:	000d68db 	.word	0x000d68db

000d69e8 <_ZNSt14__shared_countILN9__gnu_cxx12_Lock_policyE0EEC1ERKS2_>:
	if (_M_pi != nullptr)
	  _M_pi->_M_release();
      }

      __shared_count(const __shared_count& __r) noexcept
      : _M_pi(__r._M_pi)
   d69e8:	680b      	ldr	r3, [r1, #0]
   d69ea:	6003      	str	r3, [r0, #0]
      {
	if (_M_pi != 0)
   d69ec:	b113      	cbz	r3, d69f4 <_ZNSt14__shared_countILN9__gnu_cxx12_Lock_policyE0EEC1ERKS2_+0xc>
    }

  template<>
    inline void
    _Sp_counted_base<_S_single>::_M_add_ref_copy()
    { ++_M_use_count; }
   d69ee:	685a      	ldr	r2, [r3, #4]
   d69f0:	3201      	adds	r2, #1
   d69f2:	605a      	str	r2, [r3, #4]
      __shared_count(const __shared_count& __r) noexcept
      : _M_pi(__r._M_pi)
      {
	if (_M_pi != 0)
	  _M_pi->_M_add_ref_copy();
      }
   d69f4:	4770      	bx	lr

000d69f6 <_ZN9USBSerial14blockOnOverrunEb>:
  HAL_USB_USART_Flush_Data(_serial);
}

void USBSerial::blockOnOverrun(bool block)
{
  _blocking = block;
   d69f6:	7441      	strb	r1, [r0, #17]
   d69f8:	4770      	bx	lr

000d69fa <_ZN9USBSerialD1Ev>:
#include "usb_hal.h"
#include "system_task.h"
#include "spark_wiring_startup.h"
#include "concurrent_hal.h"

class USBSerial : public Stream
   d69fa:	4770      	bx	lr

000d69fc <_ZN9USBSerial4readEv>:
}


// Read data from buffer
int USBSerial::read()
{
   d69fc:	b508      	push	{r3, lr}
	return std::max(-1, (int)HAL_USB_USART_Receive_Data(_serial, false));
   d69fe:	2100      	movs	r1, #0
   d6a00:	7c00      	ldrb	r0, [r0, #16]
   d6a02:	f7ff fa07 	bl	d5e14 <HAL_USB_USART_Receive_Data>
}
   d6a06:	ea30 0020 	bics.w	r0, r0, r0, asr #32
   d6a0a:	bf28      	it	cs
   d6a0c:	f04f 30ff 	movcs.w	r0, #4294967295
   d6a10:	bd08      	pop	{r3, pc}

000d6a12 <_ZN9USBSerial4peekEv>:
{
  _blocking = block;
}

int USBSerial::peek()
{
   d6a12:	b508      	push	{r3, lr}
	return std::max(-1, (int)HAL_USB_USART_Receive_Data(_serial, true));
   d6a14:	2101      	movs	r1, #1
   d6a16:	7c00      	ldrb	r0, [r0, #16]
   d6a18:	f7ff f9fc 	bl	d5e14 <HAL_USB_USART_Receive_Data>
}
   d6a1c:	ea30 0020 	bics.w	r0, r0, r0, asr #32
   d6a20:	bf28      	it	cs
   d6a22:	f04f 30ff 	movcs.w	r0, #4294967295
   d6a26:	bd08      	pop	{r3, pc}

000d6a28 <_ZN9USBSerial17availableForWriteEv>:
{
	return std::max(-1, (int)HAL_USB_USART_Receive_Data(_serial, false));
}

int USBSerial::availableForWrite()
{
   d6a28:	b508      	push	{r3, lr}
  return std::max(0, (int)HAL_USB_USART_Available_Data_For_Write(_serial));
   d6a2a:	7c00      	ldrb	r0, [r0, #16]
   d6a2c:	f7ff f9ea 	bl	d5e04 <HAL_USB_USART_Available_Data_For_Write>
}
   d6a30:	ea20 70e0 	bic.w	r0, r0, r0, asr #31
   d6a34:	bd08      	pop	{r3, pc}

000d6a36 <_ZN9USBSerial9availableEv>:

int USBSerial::available()
{
   d6a36:	b508      	push	{r3, lr}
	return std::max(0, (int)HAL_USB_USART_Available_Data(_serial));
   d6a38:	7c00      	ldrb	r0, [r0, #16]
   d6a3a:	f7ff f9db 	bl	d5df4 <HAL_USB_USART_Available_Data>
}
   d6a3e:	ea20 70e0 	bic.w	r0, r0, r0, asr #31
   d6a42:	bd08      	pop	{r3, pc}

000d6a44 <_ZN9USBSerial5flushEv>:
  return 0;
}

void USBSerial::flush()
{
  HAL_USB_USART_Flush_Data(_serial);
   d6a44:	7c00      	ldrb	r0, [r0, #16]
   d6a46:	f7ff b9f5 	b.w	d5e34 <HAL_USB_USART_Flush_Data>

000d6a4a <_ZN9USBSerialD0Ev>:
   d6a4a:	b510      	push	{r4, lr}
   d6a4c:	2114      	movs	r1, #20
   d6a4e:	4604      	mov	r4, r0
   d6a50:	f000 ffd2 	bl	d79f8 <_ZdlPvj>
   d6a54:	4620      	mov	r0, r4
   d6a56:	bd10      	pop	{r4, pc}

000d6a58 <_ZN9USBSerial5writeEh>:
{
	return std::max(0, (int)HAL_USB_USART_Available_Data(_serial));
}

size_t USBSerial::write(uint8_t byte)
{
   d6a58:	b538      	push	{r3, r4, r5, lr}
   d6a5a:	4604      	mov	r4, r0
  if (HAL_USB_USART_Available_Data_For_Write(_serial) > 0 || _blocking) {
   d6a5c:	7c00      	ldrb	r0, [r0, #16]
{
	return std::max(0, (int)HAL_USB_USART_Available_Data(_serial));
}

size_t USBSerial::write(uint8_t byte)
{
   d6a5e:	460d      	mov	r5, r1
  if (HAL_USB_USART_Available_Data_For_Write(_serial) > 0 || _blocking) {
   d6a60:	f7ff f9d0 	bl	d5e04 <HAL_USB_USART_Available_Data_For_Write>
   d6a64:	2800      	cmp	r0, #0
   d6a66:	dc01      	bgt.n	d6a6c <_ZN9USBSerial5writeEh+0x14>
   d6a68:	7c60      	ldrb	r0, [r4, #17]
   d6a6a:	b128      	cbz	r0, d6a78 <_ZN9USBSerial5writeEh+0x20>
    return std::max(0, (int)HAL_USB_USART_Send_Data(_serial, byte));
   d6a6c:	4629      	mov	r1, r5
   d6a6e:	7c20      	ldrb	r0, [r4, #16]
   d6a70:	f7ff f9d8 	bl	d5e24 <HAL_USB_USART_Send_Data>
   d6a74:	ea20 70e0 	bic.w	r0, r0, r0, asr #31
  }
  return 0;
}
   d6a78:	bd38      	pop	{r3, r4, r5, pc}
	...

000d6a7c <_ZN9USBSerialC1E20HAL_USB_USART_SerialRK20HAL_USB_USART_Config>:

  HAL_USB_USART_Config conf = acquireSerialBuffer();
  HAL_USB_USART_Init(_serial, &conf);
}

USBSerial::USBSerial(HAL_USB_USART_Serial serial, const HAL_USB_USART_Config& conf)
   d6a7c:	b510      	push	{r4, lr}
   d6a7e:	4604      	mov	r4, r0
   d6a80:	2300      	movs	r3, #0
   d6a82:	6063      	str	r3, [r4, #4]
   d6a84:	f44f 737a 	mov.w	r3, #1000	; 0x3e8
   d6a88:	60a3      	str	r3, [r4, #8]
   d6a8a:	4b05      	ldr	r3, [pc, #20]	; (d6aa0 <_ZN9USBSerialC1E20HAL_USB_USART_SerialRK20HAL_USB_USART_Config+0x24>)
   d6a8c:	6023      	str	r3, [r4, #0]
{
  _serial = serial;
  _blocking = true;
   d6a8e:	2301      	movs	r3, #1

  HAL_USB_USART_Config conf = acquireSerialBuffer();
  HAL_USB_USART_Init(_serial, &conf);
}

USBSerial::USBSerial(HAL_USB_USART_Serial serial, const HAL_USB_USART_Config& conf)
   d6a90:	4608      	mov	r0, r1
{
  _serial = serial;
   d6a92:	7421      	strb	r1, [r4, #16]
  _blocking = true;
   d6a94:	7463      	strb	r3, [r4, #17]

  HAL_USB_USART_Init(_serial, &conf);
   d6a96:	4611      	mov	r1, r2
   d6a98:	f7ff f99c 	bl	d5dd4 <HAL_USB_USART_Init>
}
   d6a9c:	4620      	mov	r0, r4
   d6a9e:	bd10      	pop	{r4, pc}
   d6aa0:	000d94b0 	.word	0x000d94b0

000d6aa4 <_ZN9USBSerial5beginEl>:
// Public methods
//

void USBSerial::begin(long speed)
{
    HAL_USB_USART_Begin(_serial, speed, NULL);
   d6aa4:	2200      	movs	r2, #0
   d6aa6:	7c00      	ldrb	r0, [r0, #16]
   d6aa8:	f7ff b99c 	b.w	d5de4 <HAL_USB_USART_Begin>

000d6aac <_Z19acquireSerialBufferv>:

// Preinstantiate Objects //////////////////////////////////////////////////////
#ifdef SPARK_USB_SERIAL

HAL_USB_USART_Config __attribute__((weak)) acquireSerialBuffer()
{
   d6aac:	b510      	push	{r4, lr}
  HAL_USB_USART_Config conf = {0};
   d6aae:	2214      	movs	r2, #20

// Preinstantiate Objects //////////////////////////////////////////////////////
#ifdef SPARK_USB_SERIAL

HAL_USB_USART_Config __attribute__((weak)) acquireSerialBuffer()
{
   d6ab0:	4604      	mov	r4, r0
  HAL_USB_USART_Config conf = {0};
   d6ab2:	2100      	movs	r1, #0
   d6ab4:	f002 f869 	bl	d8b8a <memset>
  conf.rx_buffer_size = USB_RX_BUFFER_SIZE;
  conf.tx_buffer_size = USB_TX_BUFFER_SIZE;
#endif

  return conf;
}
   d6ab8:	4620      	mov	r0, r4
   d6aba:	bd10      	pop	{r4, pc}

000d6abc <_Z16_fetch_usbserialv>:

USBSerial& _fetch_usbserial()
{
   d6abc:	b530      	push	{r4, r5, lr}
  HAL_USB_USART_Config conf = acquireSerialBuffer();
	static USBSerial _usbserial(HAL_USB_USART_SERIAL, conf);
   d6abe:	4d0e      	ldr	r5, [pc, #56]	; (d6af8 <_Z16_fetch_usbserialv+0x3c>)

  return conf;
}

USBSerial& _fetch_usbserial()
{
   d6ac0:	b087      	sub	sp, #28
  HAL_USB_USART_Config conf = acquireSerialBuffer();
   d6ac2:	a801      	add	r0, sp, #4
   d6ac4:	f7ff fff2 	bl	d6aac <_Z19acquireSerialBufferv>
	static USBSerial _usbserial(HAL_USB_USART_SERIAL, conf);
   d6ac8:	6829      	ldr	r1, [r5, #0]
   d6aca:	f011 0401 	ands.w	r4, r1, #1
   d6ace:	d110      	bne.n	d6af2 <_Z16_fetch_usbserialv+0x36>
   d6ad0:	4628      	mov	r0, r5
   d6ad2:	f7fd fae8 	bl	d40a6 <__cxa_guard_acquire>
   d6ad6:	b160      	cbz	r0, d6af2 <_Z16_fetch_usbserialv+0x36>
   d6ad8:	aa01      	add	r2, sp, #4
   d6ada:	4621      	mov	r1, r4
   d6adc:	4807      	ldr	r0, [pc, #28]	; (d6afc <_Z16_fetch_usbserialv+0x40>)
   d6ade:	f7ff ffcd 	bl	d6a7c <_ZN9USBSerialC1E20HAL_USB_USART_SerialRK20HAL_USB_USART_Config>
   d6ae2:	4628      	mov	r0, r5
   d6ae4:	f7fd fae4 	bl	d40b0 <__cxa_guard_release>
   d6ae8:	4a05      	ldr	r2, [pc, #20]	; (d6b00 <_Z16_fetch_usbserialv+0x44>)
   d6aea:	4906      	ldr	r1, [pc, #24]	; (d6b04 <_Z16_fetch_usbserialv+0x48>)
   d6aec:	4803      	ldr	r0, [pc, #12]	; (d6afc <_Z16_fetch_usbserialv+0x40>)
   d6aee:	f000 ff76 	bl	d79de <__aeabi_atexit>
	return _usbserial;
}
   d6af2:	4802      	ldr	r0, [pc, #8]	; (d6afc <_Z16_fetch_usbserialv+0x40>)
   d6af4:	b007      	add	sp, #28
   d6af6:	bd30      	pop	{r4, r5, pc}
   d6af8:	2003e6d4 	.word	0x2003e6d4
   d6afc:	2003e6d8 	.word	0x2003e6d8
   d6b00:	2003d620 	.word	0x2003d620
   d6b04:	000d69fb 	.word	0x000d69fb

000d6b08 <_ZN9IPAddressD1Ev>:
    IPAddress(uint8_t first_octet, uint8_t second_octet, uint8_t third_octet, uint8_t fourth_octet);
    IPAddress(uint32_t address);
    IPAddress(const uint8_t* address);
    IPAddress(const HAL_IPAddress& address);

    virtual ~IPAddress() {}
   d6b08:	4770      	bx	lr

000d6b0a <_ZN9IPAddressD0Ev>:
   d6b0a:	b510      	push	{r4, lr}
   d6b0c:	2118      	movs	r1, #24
   d6b0e:	4604      	mov	r4, r0
   d6b10:	f000 ff72 	bl	d79f8 <_ZdlPvj>
   d6b14:	4620      	mov	r0, r4
   d6b16:	bd10      	pop	{r4, pc}

000d6b18 <_ZNK9IPAddress7printToER5Print>:
#endif // Wiring_IPv6
	return address.ipv4==that.address.ipv4;
}

size_t IPAddress::printTo(Print& p) const
{
   d6b18:	b5f0      	push	{r4, r5, r6, r7, lr}
#if Wiring_IPv6
#if HAL_USE_INET_HAL_POSIX
	if (address.v==6) {
   d6b1a:	7d03      	ldrb	r3, [r0, #20]
   d6b1c:	2b06      	cmp	r3, #6
#endif // Wiring_IPv6
	return address.ipv4==that.address.ipv4;
}

size_t IPAddress::printTo(Print& p) const
{
   d6b1e:	b08d      	sub	sp, #52	; 0x34
   d6b20:	460e      	mov	r6, r1
   d6b22:	f100 0704 	add.w	r7, r0, #4
   d6b26:	f04f 0400 	mov.w	r4, #0
#if Wiring_IPv6
#if HAL_USE_INET_HAL_POSIX
	if (address.v==6) {
   d6b2a:	d002      	beq.n	d6b32 <_ZNK9IPAddress7printToER5Print+0x1a>
   d6b2c:	f100 0508 	add.w	r5, r0, #8
   d6b30:	e018      	b.n	d6b64 <_ZNK9IPAddress7printToER5Print+0x4c>
		char buf[INET6_ADDRSTRLEN+1];
		buf[0] = 0;
   d6b32:	ad0c      	add	r5, sp, #48	; 0x30
		inet_inet_ntop(AF_INET6, address.ipv6, buf, sizeof(buf));
   d6b34:	4639      	mov	r1, r7
{
#if Wiring_IPv6
#if HAL_USE_INET_HAL_POSIX
	if (address.v==6) {
		char buf[INET6_ADDRSTRLEN+1];
		buf[0] = 0;
   d6b36:	f805 4d30 	strb.w	r4, [r5, #-48]!
		inet_inet_ntop(AF_INET6, address.ipv6, buf, sizeof(buf));
   d6b3a:	232f      	movs	r3, #47	; 0x2f
   d6b3c:	462a      	mov	r2, r5
   d6b3e:	200a      	movs	r0, #10
   d6b40:	f7ff fa18 	bl	d5f74 <inet_inet_ntop>
    void clearWriteError() { setWriteError(0); }

    virtual size_t write(uint8_t) = 0;
    size_t write(const char *str) {
      if (str == NULL) return 0;
      return write((const uint8_t *)str, strlen(str));
   d6b44:	4628      	mov	r0, r5
   d6b46:	f002 f874 	bl	d8c32 <strlen>
   d6b4a:	6833      	ldr	r3, [r6, #0]
   d6b4c:	4602      	mov	r2, r0
   d6b4e:	68db      	ldr	r3, [r3, #12]
   d6b50:	4629      	mov	r1, r5
   d6b52:	4630      	mov	r0, r6
   d6b54:	4798      	blx	r3
   d6b56:	e00f      	b.n	d6b78 <_ZNK9IPAddress7printToER5Print+0x60>
#endif // HAL_USE_INET_HAL_POSIX
#endif // Wiring_IPv6
    size_t n = 0;
    for (int i = 0; i < 4; i++)
    {
        if (n)
   d6b58:	b124      	cbz	r4, d6b64 <_ZNK9IPAddress7printToER5Print+0x4c>
            n += p.print('.');
   d6b5a:	212e      	movs	r1, #46	; 0x2e
   d6b5c:	4630      	mov	r0, r6
   d6b5e:	f000 fc57 	bl	d7410 <_ZN5Print5printEc>
   d6b62:	4404      	add	r4, r0
            t = print('-');
            val = -n;
        } else {
            val = n;
        }
        return printNumber(val, base) + t;
   d6b64:	f815 1d01 	ldrb.w	r1, [r5, #-1]!
   d6b68:	220a      	movs	r2, #10
   d6b6a:	4630      	mov	r0, r6
   d6b6c:	f000 fc69 	bl	d7442 <_ZN5Print11printNumberEmh>
#else
#pragma message "HAL_USE_INET_HAL_POSIX is required for IPv6 support in IPAddress::printTo()"
#endif // HAL_USE_INET_HAL_POSIX
#endif // Wiring_IPv6
    size_t n = 0;
    for (int i = 0; i < 4; i++)
   d6b70:	42bd      	cmp	r5, r7
    {
        if (n)
            n += p.print('.');
        n += p.print((*this)[i], DEC);
   d6b72:	4404      	add	r4, r0
#else
#pragma message "HAL_USE_INET_HAL_POSIX is required for IPv6 support in IPAddress::printTo()"
#endif // HAL_USE_INET_HAL_POSIX
#endif // Wiring_IPv6
    size_t n = 0;
    for (int i = 0; i < 4; i++)
   d6b74:	d1f0      	bne.n	d6b58 <_ZNK9IPAddress7printToER5Print+0x40>
    {
        if (n)
            n += p.print('.');
        n += p.print((*this)[i], DEC);
   d6b76:	4620      	mov	r0, r4
    }
    return n;
}
   d6b78:	b00d      	add	sp, #52	; 0x34
   d6b7a:	bdf0      	pop	{r4, r5, r6, r7, pc}

000d6b7c <_ZN9IPAddressC1Ev>:

#if HAL_USE_INET_HAL_POSIX
#include <arpa/inet.h>
#endif // HAL_USE_INET_HAL_POSIX

IPAddress::IPAddress()
   d6b7c:	b510      	push	{r4, lr}
   d6b7e:	4b05      	ldr	r3, [pc, #20]	; (d6b94 <_ZN9IPAddressC1Ev+0x18>)
   d6b80:	4604      	mov	r4, r0
        return address;
    }

    virtual size_t printTo(Print& p) const;

    void clear() { memset(&address, 0, sizeof (address)); }
   d6b82:	2211      	movs	r2, #17
   d6b84:	f840 3b04 	str.w	r3, [r0], #4
   d6b88:	2100      	movs	r1, #0
   d6b8a:	f001 fffe 	bl	d8b8a <memset>
{
    clear();
}
   d6b8e:	4620      	mov	r0, r4
   d6b90:	bd10      	pop	{r4, pc}
   d6b92:	bf00      	nop
   d6b94:	000d94e0 	.word	0x000d94e0

000d6b98 <_ZN9IPAddressC1ERK16_HAL_IPAddress_t>:

IPAddress::IPAddress(const HAL_IPAddress& address)
   d6b98:	4603      	mov	r3, r0
   d6b9a:	4a07      	ldr	r2, [pc, #28]	; (d6bb8 <_ZN9IPAddressC1ERK16_HAL_IPAddress_t+0x20>)
   d6b9c:	b510      	push	{r4, lr}
   d6b9e:	f843 2b04 	str.w	r2, [r3], #4
{
    memcpy(&this->address, &address, sizeof(address));
   d6ba2:	f101 0210 	add.w	r2, r1, #16
   d6ba6:	f851 4b04 	ldr.w	r4, [r1], #4
   d6baa:	f843 4b04 	str.w	r4, [r3], #4
   d6bae:	4291      	cmp	r1, r2
   d6bb0:	d1f9      	bne.n	d6ba6 <_ZN9IPAddressC1ERK16_HAL_IPAddress_t+0xe>
   d6bb2:	780a      	ldrb	r2, [r1, #0]
   d6bb4:	701a      	strb	r2, [r3, #0]
}
   d6bb6:	bd10      	pop	{r4, pc}
   d6bb8:	000d94e0 	.word	0x000d94e0

000d6bbc <_ZN9IPAddress8set_ipv4Ehhhh>:
    return address.ipv4!=0;
#endif
}

void IPAddress::set_ipv4(uint8_t b0, uint8_t b1, uint8_t b2, uint8_t b3)
{
   d6bbc:	b510      	push	{r4, lr}
    address.ipv4 = b0<<24 | b1 << 16 | b2 << 8 | b3;
   d6bbe:	f89d 4008 	ldrb.w	r4, [sp, #8]
   d6bc2:	ea44 2303 	orr.w	r3, r4, r3, lsl #8
   d6bc6:	ea43 4202 	orr.w	r2, r3, r2, lsl #16
   d6bca:	ea42 6101 	orr.w	r1, r2, r1, lsl #24
        return &address;
    }

    inline void setVersion(uint8_t version) {
#if HAL_IPv6
        address.v = version;
   d6bce:	2304      	movs	r3, #4
   d6bd0:	6041      	str	r1, [r0, #4]
   d6bd2:	7503      	strb	r3, [r0, #20]
   d6bd4:	bd10      	pop	{r4, pc}

000d6bd6 <_ZN9IPAddressaSEPKh>:
    setVersion(4);
}

IPAddress& IPAddress::operator=(const uint8_t* address)
{
   d6bd6:	b537      	push	{r0, r1, r2, r4, r5, lr}
    set_ipv4(address[0], address[1], address[2], address[3]);
   d6bd8:	780d      	ldrb	r5, [r1, #0]
   d6bda:	788b      	ldrb	r3, [r1, #2]
   d6bdc:	784a      	ldrb	r2, [r1, #1]
   d6bde:	78c9      	ldrb	r1, [r1, #3]
   d6be0:	9100      	str	r1, [sp, #0]
   d6be2:	4629      	mov	r1, r5
   d6be4:	f7ff ffea 	bl	d6bbc <_ZN9IPAddress8set_ipv4Ehhhh>
    return *this;
}
   d6be8:	b003      	add	sp, #12
   d6bea:	bd30      	pop	{r4, r5, pc}

000d6bec <_ZNSt15_Sp_counted_ptrIPN8particle6detail10FutureImplIbNS1_13FutureContextEEELN9__gnu_cxx12_Lock_policyE0EED1Ev>:
    class __shared_count;


  // Counted ptr with no deleter or allocator support
  template<typename _Ptr, _Lock_policy _Lp>
    class _Sp_counted_ptr final : public _Sp_counted_base<_Lp>
   d6bec:	4770      	bx	lr

000d6bee <_ZNSt15_Sp_counted_ptrIPN8particle6detail10FutureImplIbNS1_13FutureContextEEELN9__gnu_cxx12_Lock_policyE0EE14_M_get_deleterERKSt9type_info>:
      _M_destroy() noexcept
      { delete this; }

      virtual void*
      _M_get_deleter(const std::type_info&) noexcept
      { return nullptr; }
   d6bee:	2000      	movs	r0, #0
   d6bf0:	4770      	bx	lr

000d6bf2 <_ZNSt15_Sp_counted_ptrIPN8particle6detail10FutureImplIbNS1_13FutureContextEEELN9__gnu_cxx12_Lock_policyE0EED0Ev>:
    class __shared_count;


  // Counted ptr with no deleter or allocator support
  template<typename _Ptr, _Lock_policy _Lp>
    class _Sp_counted_ptr final : public _Sp_counted_base<_Lp>
   d6bf2:	b510      	push	{r4, lr}
   d6bf4:	2110      	movs	r1, #16
   d6bf6:	4604      	mov	r4, r0
   d6bf8:	f000 fefe 	bl	d79f8 <_ZdlPvj>
   d6bfc:	4620      	mov	r0, r4
   d6bfe:	bd10      	pop	{r4, pc}

000d6c00 <_ZNSt15_Sp_counted_ptrIPN8particle6detail10FutureImplIbNS1_13FutureContextEEELN9__gnu_cxx12_Lock_policyE0EE10_M_destroyEv>:
      virtual void
      _M_dispose() noexcept
      { delete _M_ptr; }

      virtual void
      _M_destroy() noexcept
   d6c00:	b508      	push	{r3, lr}
      { delete this; }
   d6c02:	b108      	cbz	r0, d6c08 <_ZNSt15_Sp_counted_ptrIPN8particle6detail10FutureImplIbNS1_13FutureContextEEELN9__gnu_cxx12_Lock_policyE0EE10_M_destroyEv+0x8>
   d6c04:	f7ff fff5 	bl	d6bf2 <_ZNSt15_Sp_counted_ptrIPN8particle6detail10FutureImplIbNS1_13FutureContextEEELN9__gnu_cxx12_Lock_policyE0EED0Ev>
   d6c08:	bd08      	pop	{r3, pc}

000d6c0a <_ZN8particle5ErrorC1EOS0_>:

} // namespace particle

inline particle::Error::Error(Type type) :
        msg_(nullptr),
        type_(type) {
   d6c0a:	2200      	movs	r2, #0
   d6c0c:	6002      	str	r2, [r0, #0]

inline particle::Error::Error(const Error& error) :
        Error(error.type_, error.msg_) {
}

inline particle::Error::Error(Error&& error) :
   d6c0e:	b510      	push	{r4, lr}

} // namespace particle

inline particle::Error::Error(Type type) :
        msg_(nullptr),
        type_(type) {
   d6c10:	f64f 729c 	movw	r2, #65436	; 0xff9c
   d6c14:	8082      	strh	r2, [r0, #4]
   d6c16:	f9b1 4004 	ldrsh.w	r4, [r1, #4]
   d6c1a:	8084      	strh	r4, [r0, #4]
      __b = _GLIBCXX_MOVE(__tmp);
   d6c1c:	808a      	strh	r2, [r1, #4]
#endif
    {
      // concept requirements
      __glibcxx_function_requires(_SGIAssignableConcept<_Tp>)

      _Tp __tmp = _GLIBCXX_MOVE(__a);
   d6c1e:	6802      	ldr	r2, [r0, #0]
      __a = _GLIBCXX_MOVE(__b);
   d6c20:	680c      	ldr	r4, [r1, #0]
   d6c22:	6004      	str	r4, [r0, #0]
      __b = _GLIBCXX_MOVE(__tmp);
   d6c24:	600a      	str	r2, [r1, #0]
}

inline particle::Error::Error(Error&& error) :
        Error() {
    swap(*this, error);
}
   d6c26:	bd10      	pop	{r4, pc}

000d6c28 <_ZN8particle5ErrorD1Ev>:

inline particle::Error::~Error() {
   d6c28:	b510      	push	{r4, lr}
   d6c2a:	4604      	mov	r4, r0
    free((void*)msg_);
   d6c2c:	6800      	ldr	r0, [r0, #0]
   d6c2e:	f7ff fb57 	bl	d62e0 <free>
}
   d6c32:	4620      	mov	r0, r4
   d6c34:	bd10      	pop	{r4, pc}

000d6c36 <_ZNSt15_Sp_counted_ptrIPN8particle6detail10FutureImplIbNS1_13FutureContextEEELN9__gnu_cxx12_Lock_policyE0EE10_M_disposeEv>:
      explicit
      _Sp_counted_ptr(_Ptr __p) noexcept
      : _M_ptr(__p) { }

      virtual void
      _M_dispose() noexcept
   d6c36:	b538      	push	{r3, r4, r5, lr}
      { delete _M_ptr; }
   d6c38:	68c4      	ldr	r4, [r0, #12]
   d6c3a:	b1f4      	cbz	r4, d6c7a <_ZNSt15_Sp_counted_ptrIPN8particle6detail10FutureImplIbNS1_13FutureContextEEELN9__gnu_cxx12_Lock_policyE0EE10_M_disposeEv+0x44>

      _Tp
      load(memory_order __m = memory_order_seq_cst) const noexcept
      { 
        _Tp tmp;
	__atomic_load(&_M_i, &tmp, __m);
   d6c3c:	7823      	ldrb	r3, [r4, #0]
    ~FutureImpl() {
        // Call destructor of the appropriate unnamed enum's field
        const State s = this->state();
        if (s == State::SUCCEEDED) {
            result_.~ResultT();
        } else if (s == State::FAILED) {
   d6c3e:	2b02      	cmp	r3, #2
   d6c40:	d103      	bne.n	d6c4a <_ZNSt15_Sp_counted_ptrIPN8particle6detail10FutureImplIbNS1_13FutureContextEEELN9__gnu_cxx12_Lock_policyE0EE10_M_disposeEv+0x14>
            error_.~Error();
   d6c42:	f104 000c 	add.w	r0, r4, #12
   d6c46:	f7ff ffef 	bl	d6c28 <_ZN8particle5ErrorD1Ev>
      {
        memory_order __b = __m & __memory_order_mask;
	__glibcxx_assert(__b != memory_order_release);
	__glibcxx_assert(__b != memory_order_acq_rel);

	return __atomic_load_n(&_M_p, __m);
   d6c4a:	6865      	ldr	r5, [r4, #4]
    // Completion callback types
    typedef typename detail::FutureCallbackTypes<ResultT>::OnSuccess OnSuccessCallback;
    typedef typename detail::FutureCallbackTypes<ResultT>::OnError OnErrorCallback;

    ~FutureImplBase() {
        delete onSuccess_.load(std::memory_order_relaxed);
   d6c4c:	b135      	cbz	r5, d6c5c <_ZNSt15_Sp_counted_ptrIPN8particle6detail10FutureImplIbNS1_13FutureContextEEELN9__gnu_cxx12_Lock_policyE0EE10_M_disposeEv+0x26>
   *  @ingroup functors
   *
   *  Polymorphic function wrapper.
   */
  template<typename _Res, typename... _ArgTypes>
    class function<_Res(_ArgTypes...)>
   d6c4e:	4628      	mov	r0, r5
   d6c50:	f7ff fb7e 	bl	d6350 <_ZNSt14_Function_baseD1Ev>
   d6c54:	2110      	movs	r1, #16
   d6c56:	4628      	mov	r0, r5
   d6c58:	f000 fece 	bl	d79f8 <_ZdlPvj>
   d6c5c:	68a5      	ldr	r5, [r4, #8]
        delete onError_.load(std::memory_order_relaxed);
   d6c5e:	b135      	cbz	r5, d6c6e <_ZNSt15_Sp_counted_ptrIPN8particle6detail10FutureImplIbNS1_13FutureContextEEELN9__gnu_cxx12_Lock_policyE0EE10_M_disposeEv+0x38>
   d6c60:	4628      	mov	r0, r5
   d6c62:	f7ff fb75 	bl	d6350 <_ZNSt14_Function_baseD1Ev>
   d6c66:	2110      	movs	r1, #16
   d6c68:	4628      	mov	r0, r5
   d6c6a:	f000 fec5 	bl	d79f8 <_ZdlPvj>
   d6c6e:	4620      	mov	r0, r4
   d6c70:	2114      	movs	r1, #20
   d6c72:	e8bd 4038 	ldmia.w	sp!, {r3, r4, r5, lr}
   d6c76:	f000 bebf 	b.w	d79f8 <_ZdlPvj>
   d6c7a:	bd38      	pop	{r3, r4, r5, pc}

000d6c7c <_ZN8particle6FutureIbNS_6detail13FutureContextEEC1ESt10shared_ptrINS1_10FutureImplIbS2_EEE>:
};

template<typename ResultT, typename ContextT = detail::FutureContext>
class Future: public FutureBase<ResultT, ContextT> {
public:
    using FutureBase<ResultT, ContextT>::FutureBase;
   d6c7c:	b513      	push	{r0, r1, r4, lr}
   d6c7e:	4604      	mov	r4, r0
      }

      void
      _M_swap(__shared_count& __r) noexcept
      {
	_Sp_counted_base<_Lp>* __tmp = __r._M_pi;
   d6c80:	e891 0005 	ldmia.w	r1, {r0, r2}
	__r._M_pi = _M_pi;
   d6c84:	2300      	movs	r3, #0
   d6c86:	604b      	str	r3, [r1, #4]

      __shared_ptr(__shared_ptr&& __r) noexcept
      : _M_ptr(__r._M_ptr), _M_refcount()
      {
	_M_refcount._M_swap(__r._M_refcount);
	__r._M_ptr = 0;
   d6c88:	600b      	str	r3, [r1, #0]
	__shared_ptr(const __shared_ptr<_Tp1, _Lp>& __r) noexcept
	: _M_ptr(__r._M_ptr), _M_refcount(__r._M_refcount)
	{ }

      __shared_ptr(__shared_ptr&& __r) noexcept
      : _M_ptr(__r._M_ptr), _M_refcount()
   d6c8a:	6020      	str	r0, [r4, #0]
      void
      _M_swap(__shared_count& __r) noexcept
      {
	_Sp_counted_base<_Lp>* __tmp = __r._M_pi;
	__r._M_pi = _M_pi;
	_M_pi = __tmp;
   d6c8c:	6062      	str	r2, [r4, #4]
	: _M_ptr(__p), _M_refcount(__r._M_refcount) // never throws
	{ }

      __shared_ptr(const __shared_ptr&) noexcept = default;
      __shared_ptr& operator=(const __shared_ptr&) noexcept = default;
      ~__shared_ptr() = default;
   d6c8e:	a801      	add	r0, sp, #4

      void
      _M_swap(__shared_count& __r) noexcept
      {
	_Sp_counted_base<_Lp>* __tmp = __r._M_pi;
	__r._M_pi = _M_pi;
   d6c90:	9301      	str	r3, [sp, #4]

      __shared_ptr(__shared_ptr&& __r) noexcept
      : _M_ptr(__r._M_ptr), _M_refcount()
      {
	_M_refcount._M_swap(__r._M_refcount);
	__r._M_ptr = 0;
   d6c92:	9300      	str	r3, [sp, #0]
	: _M_ptr(__p), _M_refcount(__r._M_refcount) // never throws
	{ }

      __shared_ptr(const __shared_ptr&) noexcept = default;
      __shared_ptr& operator=(const __shared_ptr&) noexcept = default;
      ~__shared_ptr() = default;
   d6c94:	f7fd fb6a 	bl	d436c <_ZNSt14__shared_countILN9__gnu_cxx12_Lock_policyE0EED1Ev>
   d6c98:	4620      	mov	r0, r4
   d6c9a:	b002      	add	sp, #8
   d6c9c:	bd10      	pop	{r4, pc}

000d6c9e <_ZN8particle11PromiseBaseIbNS_6detail13FutureContextEE11fromDataPtrEPv>:
        // TODO: Use custom reference counting object to avoid unnecessary memory allocation
        return new detail::FutureImplPtr<ResultT, ContextT>(p_);
    }

    // Unwraps promise from an object pointer created via dataPtr() method
    static Promise<ResultT, ContextT> fromDataPtr(void* data) {
   d6c9e:	b5f7      	push	{r0, r1, r2, r4, r5, r6, r7, lr}
      template<typename _Tp1>
	__shared_ptr(const __shared_ptr<_Tp1, _Lp>& __r, _Tp* __p) noexcept
	: _M_ptr(__p), _M_refcount(__r._M_refcount) // never throws
	{ }

      __shared_ptr(const __shared_ptr&) noexcept = default;
   d6ca0:	460c      	mov	r4, r1
   d6ca2:	ad02      	add	r5, sp, #8
   d6ca4:	f854 3b04 	ldr.w	r3, [r4], #4
   d6ca8:	f845 3d08 	str.w	r3, [r5, #-8]!
   d6cac:	4606      	mov	r6, r0
   d6cae:	460f      	mov	r7, r1
   d6cb0:	a801      	add	r0, sp, #4
   d6cb2:	4621      	mov	r1, r4
   d6cb4:	f7ff fe98 	bl	d69e8 <_ZNSt14__shared_countILN9__gnu_cxx12_Lock_policyE0EEC1ERKS2_>
        auto d = static_cast<detail::FutureImplPtr<ResultT, ContextT>*>(data);
        const Promise<ResultT, ContextT> p(*d);
   d6cb8:	4629      	mov	r1, r5
   d6cba:	4630      	mov	r0, r6
   d6cbc:	f7ff ffde 	bl	d6c7c <_ZN8particle6FutureIbNS_6detail13FutureContextEEC1ESt10shared_ptrINS1_10FutureImplIbS2_EEE>
      __shared_ptr& operator=(const __shared_ptr&) noexcept = default;
      ~__shared_ptr() = default;
   d6cc0:	a801      	add	r0, sp, #4
   d6cc2:	f7fd fb53 	bl	d436c <_ZNSt14__shared_countILN9__gnu_cxx12_Lock_policyE0EED1Ev>
   d6cc6:	4620      	mov	r0, r4
   d6cc8:	f7fd fb50 	bl	d436c <_ZNSt14__shared_countILN9__gnu_cxx12_Lock_policyE0EED1Ev>
        delete d;
   d6ccc:	4638      	mov	r0, r7
   d6cce:	2108      	movs	r1, #8
   d6cd0:	f000 fe92 	bl	d79f8 <_ZdlPvj>
        return p;
    }
   d6cd4:	4630      	mov	r0, r6
   d6cd6:	b003      	add	sp, #12
   d6cd8:	bdf0      	pop	{r4, r5, r6, r7, pc}

000d6cda <_ZSt4swapISt9_Any_dataEvRT_S2_>:
   *  @param  __b  Another thing of arbitrary type.
   *  @return   Nothing.
  */
  template<typename _Tp>
    inline void
    swap(_Tp& __a, _Tp& __b)
   d6cda:	b513      	push	{r0, r1, r4, lr}
   d6cdc:	460b      	mov	r3, r1
   d6cde:	4604      	mov	r4, r0
#endif
    {
      // concept requirements
      __glibcxx_function_requires(_SGIAssignableConcept<_Tp>)

      _Tp __tmp = _GLIBCXX_MOVE(__a);
   d6ce0:	c803      	ldmia	r0, {r0, r1}
   d6ce2:	e88d 0003 	stmia.w	sp, {r0, r1}
      __a = _GLIBCXX_MOVE(__b);
   d6ce6:	e893 0003 	ldmia.w	r3, {r0, r1}
   d6cea:	e884 0003 	stmia.w	r4, {r0, r1}
      __b = _GLIBCXX_MOVE(__tmp);
   d6cee:	e89d 0003 	ldmia.w	sp, {r0, r1}
   d6cf2:	e883 0003 	stmia.w	r3, {r0, r1}
    }
   d6cf6:	b002      	add	sp, #8
   d6cf8:	bd10      	pop	{r4, pc}
	...

000d6cfc <_ZNSt14__shared_countILN9__gnu_cxx12_Lock_policyE0EEC1IPN8particle6detail10FutureImplIbNS5_13FutureContextEEEEET_>:
      constexpr __shared_count() noexcept : _M_pi(0)
      { }

      template<typename _Ptr>
        explicit
	__shared_count(_Ptr __p) : _M_pi(0)
   d6cfc:	b538      	push	{r3, r4, r5, lr}
   d6cfe:	2300      	movs	r3, #0
   d6d00:	4604      	mov	r4, r0
   d6d02:	6003      	str	r3, [r0, #0]
	{
	  __try
	    {
	      _M_pi = new _Sp_counted_ptr<_Ptr, _Lp>(__p);
   d6d04:	2010      	movs	r0, #16
      constexpr __shared_count() noexcept : _M_pi(0)
      { }

      template<typename _Ptr>
        explicit
	__shared_count(_Ptr __p) : _M_pi(0)
   d6d06:	460d      	mov	r5, r1
	{
	  __try
	    {
	      _M_pi = new _Sp_counted_ptr<_Ptr, _Lp>(__p);
   d6d08:	f7fd f9c7 	bl	d409a <_Znwj>
   d6d0c:	b128      	cbz	r0, d6d1a <_ZNSt14__shared_countILN9__gnu_cxx12_Lock_policyE0EEC1IPN8particle6detail10FutureImplIbNS5_13FutureContextEEEEET_+0x1e>
    class _Sp_counted_base
    : public _Mutex_base<_Lp>
    {
    public:  
      _Sp_counted_base() noexcept
      : _M_use_count(1), _M_weak_count(1) { }
   d6d0e:	2301      	movs	r3, #1
   d6d10:	6043      	str	r3, [r0, #4]
   d6d12:	6083      	str	r3, [r0, #8]
    class _Sp_counted_ptr final : public _Sp_counted_base<_Lp>
    {
    public:
      explicit
      _Sp_counted_ptr(_Ptr __p) noexcept
      : _M_ptr(__p) { }
   d6d14:	4b02      	ldr	r3, [pc, #8]	; (d6d20 <_ZNSt14__shared_countILN9__gnu_cxx12_Lock_policyE0EEC1IPN8particle6detail10FutureImplIbNS5_13FutureContextEEEEET_+0x24>)
   d6d16:	6003      	str	r3, [r0, #0]
   d6d18:	60c5      	str	r5, [r0, #12]
        explicit
	__shared_count(_Ptr __p) : _M_pi(0)
	{
	  __try
	    {
	      _M_pi = new _Sp_counted_ptr<_Ptr, _Lp>(__p);
   d6d1a:	6020      	str	r0, [r4, #0]
	  __catch(...)
	    {
	      delete __p;
	      __throw_exception_again;
	    }
	}
   d6d1c:	4620      	mov	r0, r4
   d6d1e:	bd38      	pop	{r3, r4, r5, pc}
   d6d20:	000d94f4 	.word	0x000d94f4

000d6d24 <_ZNKSt8functionIFvRKN8particle5ErrorEEEclES3_>:
  template<typename _Res, typename... _ArgTypes>
    _Res
    function<_Res(_ArgTypes...)>::
    operator()(_ArgTypes... __args) const
    {
      if (_M_empty())
   d6d24:	6882      	ldr	r2, [r0, #8]
	  }
      }

  template<typename _Res, typename... _ArgTypes>
    _Res
    function<_Res(_ArgTypes...)>::
   d6d26:	b510      	push	{r4, lr}
    operator()(_ArgTypes... __args) const
    {
      if (_M_empty())
   d6d28:	b90a      	cbnz	r2, d6d2e <_ZNKSt8functionIFvRKN8particle5ErrorEEEclES3_+0xa>
	__throw_bad_function_call();
   d6d2a:	f000 fe78 	bl	d7a1e <_ZSt25__throw_bad_function_callv>
      return _M_invoker(_M_functor, std::forward<_ArgTypes>(__args)...);
   d6d2e:	68c3      	ldr	r3, [r0, #12]
    }
   d6d30:	e8bd 4010 	ldmia.w	sp!, {r4, lr}
    function<_Res(_ArgTypes...)>::
    operator()(_ArgTypes... __args) const
    {
      if (_M_empty())
	__throw_bad_function_call();
      return _M_invoker(_M_functor, std::forward<_ArgTypes>(__args)...);
   d6d34:	4718      	bx	r3

000d6d36 <_ZNSt17_Function_handlerIFvvESt5_BindIFSt8functionIFvRKN8particle5ErrorEEES4_EEE9_M_invokeERKSt9_Any_data>:
    {
      typedef _Function_base::_Base_manager<_Functor> _Base;

     public:
      static void
      _M_invoke(const _Any_data& __functor, _ArgTypes&&... __args)
   d6d36:	b508      	push	{r3, lr}
	static _Functor*
	_M_get_pointer(const _Any_data& __source)
	{
	  const _Functor* __ptr =
	    __stored_locally? std::__addressof(__source._M_access<_Functor>())
	    /* have stored a pointer */ : __source._M_access<_Functor*>();
   d6d38:	6800      	ldr	r0, [r0, #0]
      template<typename _Result, typename... _Args, std::size_t... _Indexes>
	_Result
	__call(tuple<_Args...>&& __args, _Index_tuple<_Indexes...>)
	{
	  return _M_f(_Mu<_Bound_args>()
		      (std::get<_Indexes>(_M_bound_args), __args)...);
   d6d3a:	f100 0110 	add.w	r1, r0, #16
   d6d3e:	f7ff fff1 	bl	d6d24 <_ZNKSt8functionIFvRKN8particle5ErrorEEEclES3_>
   d6d42:	bd08      	pop	{r3, pc}

000d6d44 <_ZNKSt8functionIFvRKbEEclES1_>:
  template<typename _Res, typename... _ArgTypes>
    _Res
    function<_Res(_ArgTypes...)>::
    operator()(_ArgTypes... __args) const
    {
      if (_M_empty())
   d6d44:	6882      	ldr	r2, [r0, #8]
	  }
      }

  template<typename _Res, typename... _ArgTypes>
    _Res
    function<_Res(_ArgTypes...)>::
   d6d46:	b510      	push	{r4, lr}
    operator()(_ArgTypes... __args) const
    {
      if (_M_empty())
   d6d48:	b90a      	cbnz	r2, d6d4e <_ZNKSt8functionIFvRKbEEclES1_+0xa>
	__throw_bad_function_call();
   d6d4a:	f000 fe68 	bl	d7a1e <_ZSt25__throw_bad_function_callv>
      return _M_invoker(_M_functor, std::forward<_ArgTypes>(__args)...);
   d6d4e:	68c3      	ldr	r3, [r0, #12]
    }
   d6d50:	e8bd 4010 	ldmia.w	sp!, {r4, lr}
    function<_Res(_ArgTypes...)>::
    operator()(_ArgTypes... __args) const
    {
      if (_M_empty())
	__throw_bad_function_call();
      return _M_invoker(_M_functor, std::forward<_ArgTypes>(__args)...);
   d6d54:	4718      	bx	r3

000d6d56 <_ZNSt17_Function_handlerIFvvESt5_BindIFSt8functionIFvRKbEEbEEE9_M_invokeERKSt9_Any_data>:
    {
      typedef _Function_base::_Base_manager<_Functor> _Base;

     public:
      static void
      _M_invoke(const _Any_data& __functor, _ArgTypes&&... __args)
   d6d56:	b508      	push	{r3, lr}
	static _Functor*
	_M_get_pointer(const _Any_data& __source)
	{
	  const _Functor* __ptr =
	    __stored_locally? std::__addressof(__source._M_access<_Functor>())
	    /* have stored a pointer */ : __source._M_access<_Functor*>();
   d6d58:	6800      	ldr	r0, [r0, #0]
      template<typename _Result, typename... _Args, std::size_t... _Indexes>
	_Result
	__call(tuple<_Args...>&& __args, _Index_tuple<_Indexes...>)
	{
	  return _M_f(_Mu<_Bound_args>()
		      (std::get<_Indexes>(_M_bound_args), __args)...);
   d6d5a:	f100 0110 	add.w	r1, r0, #16
   d6d5e:	f7ff fff1 	bl	d6d44 <_ZNKSt8functionIFvRKbEEclES1_>
   d6d62:	bd08      	pop	{r3, pc}

000d6d64 <_ZNSt8functionIFvRKN8particle5ErrorEEEC1ERKS5_>:
      _Invoker_type _M_invoker;
  };

  // Out-of-line member definitions.
  template<typename _Res, typename... _ArgTypes>
    function<_Res(_ArgTypes...)>::
   d6d64:	b538      	push	{r3, r4, r5, lr}
	{
	  _Base::_M_init_functor(__functor, std::__addressof(__f.get()));
	}
      };

    _Function_base() : _M_manager(nullptr) { }
   d6d66:	2300      	movs	r3, #0
   d6d68:	6083      	str	r3, [r0, #8]
   d6d6a:	688b      	ldr	r3, [r1, #8]
      _Invoker_type _M_invoker;
  };

  // Out-of-line member definitions.
  template<typename _Res, typename... _ArgTypes>
    function<_Res(_ArgTypes...)>::
   d6d6c:	4604      	mov	r4, r0
   d6d6e:	460d      	mov	r5, r1
    function(const function& __x)
    : _Function_base()
    {
      if (static_cast<bool>(__x))
   d6d70:	b12b      	cbz	r3, d6d7e <_ZNSt8functionIFvRKN8particle5ErrorEEEC1ERKS5_+0x1a>
	{
	  __x._M_manager(_M_functor, __x._M_functor, __clone_functor);
   d6d72:	2202      	movs	r2, #2
   d6d74:	4798      	blx	r3
	  _M_invoker = __x._M_invoker;
   d6d76:	68eb      	ldr	r3, [r5, #12]
   d6d78:	60e3      	str	r3, [r4, #12]
	  _M_manager = __x._M_manager;
   d6d7a:	68ab      	ldr	r3, [r5, #8]
   d6d7c:	60a3      	str	r3, [r4, #8]
	}
    }
   d6d7e:	4620      	mov	r0, r4
   d6d80:	bd38      	pop	{r3, r4, r5, pc}
	...

000d6d84 <_ZN8particle11PromiseBaseIbNS_6detail13FutureContextEE8setErrorENS_5ErrorE>:

    explicit PromiseBase(detail::FutureImplPtr<ResultT, ContextT> ptr) :
            p_(std::move(ptr)) {
    }

    void setError(Error error) {
   d6d84:	b5f0      	push	{r4, r5, r6, r7, lr}
   d6d86:	b089      	sub	sp, #36	; 0x24
   d6d88:	6804      	ldr	r4, [r0, #0]
        p_->setError(std::move(error));
   d6d8a:	4668      	mov	r0, sp
   d6d8c:	f7ff ff3d 	bl	d6c0a <_ZN8particle5ErrorC1EOS0_>
            onSuccess_(nullptr),
            onError_(nullptr) {
    }

    bool changeState(State state) {
        State s = State::RUNNING; // Expected state
   d6d90:	2300      	movs	r3, #0
   d6d92:	f88d 3008 	strb.w	r3, [sp, #8]

      bool
      compare_exchange_strong(_Tp& __e, _Tp __i, memory_order __s, 
			      memory_order __f) noexcept
      {
	return __atomic_compare_exchange(&_M_i, &__e, &__i, false, __s, __f);
   d6d96:	f04f 0202 	mov.w	r2, #2
   d6d9a:	e8d4 3f4f 	ldrexb	r3, [r4]
   d6d9e:	2b00      	cmp	r3, #0
   d6da0:	d103      	bne.n	d6daa <_ZN8particle11PromiseBaseIbNS_6detail13FutureContextEE8setErrorENS_5ErrorE+0x26>
   d6da2:	e8c4 2f41 	strexb	r1, r2, [r4]
   d6da6:	2900      	cmp	r1, #0
   d6da8:	d1f7      	bne.n	d6d9a <_ZN8particle11PromiseBaseIbNS_6detail13FutureContextEE8setErrorENS_5ErrorE+0x16>
   d6daa:	d002      	beq.n	d6db2 <_ZN8particle11PromiseBaseIbNS_6detail13FutureContextEE8setErrorENS_5ErrorE+0x2e>
   d6dac:	f88d 3008 	strb.w	r3, [sp, #8]
   d6db0:	e063      	b.n	d6e7a <_ZN8particle11PromiseBaseIbNS_6detail13FutureContextEE8setErrorENS_5ErrorE+0xf6>
        return std::move(defaultValue);
    }

    void setError(Error error) {
        if (this->changeState(State::FAILED)) {
            new(&error_) Error(std::move(error));
   d6db2:	f114 050c 	adds.w	r5, r4, #12
   d6db6:	d003      	beq.n	d6dc0 <_ZN8particle11PromiseBaseIbNS_6detail13FutureContextEE8setErrorENS_5ErrorE+0x3c>
   d6db8:	4669      	mov	r1, sp
   d6dba:	4628      	mov	r0, r5
   d6dbc:	f7ff ff25 	bl	d6c0a <_ZN8particle5ErrorC1EOS0_>
        memory_order __b = __m & __memory_order_mask;
	__glibcxx_assert(__b != memory_order_acquire);
	__glibcxx_assert(__b != memory_order_acq_rel);
	__glibcxx_assert(__b != memory_order_consume);

	__atomic_store_n(&_M_i, __i, __m);
   d6dc0:	f3bf 8f5f 	dmb	sy
   d6dc4:	2301      	movs	r3, #1
   d6dc6:	7063      	strb	r3, [r4, #1]

      _GLIBCXX_ALWAYS_INLINE __pointer_type
      exchange(__pointer_type __p,
	       memory_order __m = memory_order_seq_cst) noexcept
      {
	return __atomic_exchange_n(&_M_p, __p, __m);
   d6dc8:	2000      	movs	r0, #0
   d6dca:	f104 0308 	add.w	r3, r4, #8
   d6dce:	f3bf 8f5f 	dmb	sy
   d6dd2:	e853 6f00 	ldrex	r6, [r3]
   d6dd6:	e843 0200 	strex	r2, r0, [r3]
   d6dda:	2a00      	cmp	r2, #0
   d6ddc:	d1f9      	bne.n	d6dd2 <_ZN8particle11PromiseBaseIbNS_6detail13FutureContextEE8setErrorENS_5ErrorE+0x4e>
   d6dde:	f3bf 8f5f 	dmb	sy

    // Takes a callback from its atomic wrapper and invokes it
    template<typename FunctionT, typename... ArgsT>
    static void invokeCallback(std::atomic<std::function<FunctionT>*>& wrapper, ArgsT&&... args) {
        std::function<FunctionT>* callbackPtr = wrapper.exchange(nullptr, std::memory_order_acq_rel);
        if (callbackPtr) {
   d6de2:	2e00      	cmp	r6, #0
   d6de4:	d049      	beq.n	d6e7a <_ZN8particle11PromiseBaseIbNS_6detail13FutureContextEE8setErrorENS_5ErrorE+0xf6>
        return (application_thread_invoke(callback, data, nullptr) == 0);
    }

    // Returns true if current thread is the application thread
    static bool isApplicationThreadCurrent() {
        return (application_thread_current(nullptr) != 0);
   d6de6:	f7ff fa45 	bl	d6274 <application_thread_current>
    }

    // Invokes std::function in the application context
    template<typename FunctionT, typename... ArgsT>
    static void invokeCallback(const std::function<FunctionT>& callback, ArgsT&&... args) {
        if (ContextT::isApplicationThreadCurrent()) {
   d6dea:	b120      	cbz	r0, d6df6 <_ZN8particle11PromiseBaseIbNS_6detail13FutureContextEE8setErrorENS_5ErrorE+0x72>
            callback(std::forward<ArgsT>(args)...); // Synchronous call
   d6dec:	4629      	mov	r1, r5
   d6dee:	4630      	mov	r0, r6
   d6df0:	f7ff ff98 	bl	d6d24 <_ZNKSt8functionIFvRKN8particle5ErrorEEEclES3_>
   d6df4:	e03a      	b.n	d6e6c <_ZN8particle11PromiseBaseIbNS_6detail13FutureContextEE8setErrorENS_5ErrorE+0xe8>
	}

     public:
      template<typename... _Args>
	explicit _Bind(const _Functor& __f, _Args&&... __args)
	: _M_f(__f), _M_bound_args(std::forward<_Args>(__args)...)
   d6df6:	4631      	mov	r1, r6
   d6df8:	a802      	add	r0, sp, #8
   d6dfa:	f7ff ffb3 	bl	d6d64 <_ZNSt8functionIFvRKN8particle5ErrorEEEC1ERKS5_>
inline particle::Error::Error(const char* msg) :
        Error(UNKNOWN, msg) {
}

inline particle::Error::Error(const Error& error) :
        Error(error.type_, error.msg_) {
   d6dfe:	68e0      	ldr	r0, [r4, #12]
   d6e00:	f9b4 5010 	ldrsh.w	r5, [r4, #16]
        type_(type) {
}

inline particle::Error::Error(Type type, const char* msg) :
        msg_(msg ? (const char*)strdup(msg) : nullptr),
        type_(type) {
   d6e04:	b108      	cbz	r0, d6e0a <_ZN8particle11PromiseBaseIbNS_6detail13FutureContextEE8setErrorENS_5ErrorE+0x86>
   d6e06:	f001 fef9 	bl	d8bfc <strdup>
   d6e0a:	9006      	str	r0, [sp, #24]
        } else {
            // Bind all arguments and wrap resulting function into a pointer
            auto callbackPtr = new std::function<void()>(std::bind(callback, std::forward<ArgsT>(args)...));
   d6e0c:	2010      	movs	r0, #16
   d6e0e:	f8ad 501c 	strh.w	r5, [sp, #28]
   d6e12:	f7fd f942 	bl	d409a <_Znwj>
   d6e16:	4605      	mov	r5, r0
   d6e18:	b1e8      	cbz	r0, d6e56 <_ZN8particle11PromiseBaseIbNS_6detail13FutureContextEE8setErrorENS_5ErrorE+0xd2>
	{
	  _Base::_M_init_functor(__functor, std::__addressof(__f.get()));
	}
      };

    _Function_base() : _M_manager(nullptr) { }
   d6e1a:	2700      	movs	r7, #0
   d6e1c:	6087      	str	r7, [r0, #8]
	_M_init_functor(_Any_data& __functor, _Functor&& __f, true_type)
	{ new (__functor._M_access()) _Functor(std::move(__f)); }

	static void
	_M_init_functor(_Any_data& __functor, _Functor&& __f, false_type)
	{ __functor._M_access<_Functor*>() = new _Functor(std::move(__f)); }
   d6e1e:	2018      	movs	r0, #24
   d6e20:	f7fd f93b 	bl	d409a <_Znwj>
   d6e24:	4604      	mov	r4, r0
   d6e26:	b188      	cbz	r0, d6e4c <_ZN8particle11PromiseBaseIbNS_6detail13FutureContextEE8setErrorENS_5ErrorE+0xc8>
       *  Swap the targets of @c this function object and @a __f. This
       *  function will not throw an %exception.
       */
      void swap(function& __x)
      {
	std::swap(_M_functor, __x._M_functor);
   d6e28:	4601      	mov	r1, r0
	{
	  _Base::_M_init_functor(__functor, std::__addressof(__f.get()));
	}
      };

    _Function_base() : _M_manager(nullptr) { }
   d6e2a:	6087      	str	r7, [r0, #8]
       *  Swap the targets of @c this function object and @a __f. This
       *  function will not throw an %exception.
       */
      void swap(function& __x)
      {
	std::swap(_M_functor, __x._M_functor);
   d6e2c:	a802      	add	r0, sp, #8
   d6e2e:	f7ff ff54 	bl	d6cda <_ZSt4swapISt9_Any_dataEvRT_S2_>
#endif
    {
      // concept requirements
      __glibcxx_function_requires(_SGIAssignableConcept<_Tp>)

      _Tp __tmp = _GLIBCXX_MOVE(__a);
   d6e32:	9b04      	ldr	r3, [sp, #16]
      __a = _GLIBCXX_MOVE(__b);
   d6e34:	68a2      	ldr	r2, [r4, #8]
      __b = _GLIBCXX_MOVE(__tmp);
   d6e36:	60a3      	str	r3, [r4, #8]
#endif
    {
      // concept requirements
      __glibcxx_function_requires(_SGIAssignableConcept<_Tp>)

      _Tp __tmp = _GLIBCXX_MOVE(__a);
   d6e38:	9b05      	ldr	r3, [sp, #20]
      __a = _GLIBCXX_MOVE(__b);
   d6e3a:	9204      	str	r2, [sp, #16]
      constexpr _Head_base(const _Head_base&) = default;
      constexpr _Head_base(_Head_base&&) = default;

      template<typename _UHead>
        constexpr _Head_base(_UHead&& __h)
	: _M_head_impl(std::forward<_UHead>(__h)) { }
   d6e3c:	a906      	add	r1, sp, #24
   d6e3e:	68e2      	ldr	r2, [r4, #12]
      __b = _GLIBCXX_MOVE(__tmp);
   d6e40:	60e3      	str	r3, [r4, #12]
   d6e42:	f104 0010 	add.w	r0, r4, #16
    {
      // concept requirements
      __glibcxx_function_requires(_SGIAssignableConcept<_Tp>)

      _Tp __tmp = _GLIBCXX_MOVE(__a);
      __a = _GLIBCXX_MOVE(__b);
   d6e46:	9205      	str	r2, [sp, #20]
   d6e48:	f7ff fedf 	bl	d6c0a <_ZN8particle5ErrorC1EOS0_>
	typedef _Function_handler<_Signature_type, _Functor> _My_handler;

	if (_My_handler::_M_not_empty_function(__f))
	  {
	    _My_handler::_M_init_functor(_M_functor, std::move(__f));
	    _M_invoker = &_My_handler::_M_invoke;
   d6e4c:	4b0d      	ldr	r3, [pc, #52]	; (d6e84 <_ZN8particle11PromiseBaseIbNS_6detail13FutureContextEE8setErrorENS_5ErrorE+0x100>)
   d6e4e:	60eb      	str	r3, [r5, #12]
	    _M_manager = &_My_handler::_M_manager;
   d6e50:	4b0d      	ldr	r3, [pc, #52]	; (d6e88 <_ZN8particle11PromiseBaseIbNS_6detail13FutureContextEE8setErrorENS_5ErrorE+0x104>)
	_M_init_functor(_Any_data& __functor, _Functor&& __f, true_type)
	{ new (__functor._M_access()) _Functor(std::move(__f)); }

	static void
	_M_init_functor(_Any_data& __functor, _Functor&& __f, false_type)
	{ __functor._M_access<_Functor*>() = new _Functor(std::move(__f)); }
   d6e52:	602c      	str	r4, [r5, #0]

	if (_My_handler::_M_not_empty_function(__f))
	  {
	    _My_handler::_M_init_functor(_M_functor, std::move(__f));
	    _M_invoker = &_My_handler::_M_invoke;
	    _M_manager = &_My_handler::_M_manager;
   d6e54:	60ab      	str	r3, [r5, #8]
      static constexpr const _Head&
      _M_head(const _Head_base& __b) noexcept { return __b; }
    };

  template<std::size_t _Idx, typename _Head>
    struct _Head_base<_Idx, _Head, false>
   d6e56:	a806      	add	r0, sp, #24
   d6e58:	f7ff fee6 	bl	d6c28 <_ZN8particle5ErrorD1Ev>
   *  @ingroup functors
   *
   *  Polymorphic function wrapper.
   */
  template<typename _Res, typename... _ArgTypes>
    class function<_Res(_ArgTypes...)>
   d6e5c:	a802      	add	r0, sp, #8
   d6e5e:	f7ff fa77 	bl	d6350 <_ZNSt14_Function_baseD1Ev>
        spark_process();
    }

    // Asynchronously invokes a callback in the application context
    static bool invokeApplicationCallback(void (*callback)(void* data), void* data) {
        return (application_thread_invoke(callback, data, nullptr) == 0);
   d6e62:	2200      	movs	r2, #0
   d6e64:	4629      	mov	r1, r5
   d6e66:	4809      	ldr	r0, [pc, #36]	; (d6e8c <_ZN8particle11PromiseBaseIbNS_6detail13FutureContextEE8setErrorENS_5ErrorE+0x108>)
   d6e68:	f7ff fa0c 	bl	d6284 <application_thread_invoke>
   d6e6c:	4630      	mov	r0, r6
   d6e6e:	f7ff fa6f 	bl	d6350 <_ZNSt14_Function_baseD1Ev>
    template<typename FunctionT, typename... ArgsT>
    static void invokeCallback(std::atomic<std::function<FunctionT>*>& wrapper, ArgsT&&... args) {
        std::function<FunctionT>* callbackPtr = wrapper.exchange(nullptr, std::memory_order_acq_rel);
        if (callbackPtr) {
            invokeCallback(*callbackPtr, std::forward<ArgsT>(args)...);
            delete callbackPtr;
   d6e72:	2110      	movs	r1, #16
   d6e74:	4630      	mov	r0, r6
   d6e76:	f000 fdbf 	bl	d79f8 <_ZdlPvj>
    explicit PromiseBase(detail::FutureImplPtr<ResultT, ContextT> ptr) :
            p_(std::move(ptr)) {
    }

    void setError(Error error) {
        p_->setError(std::move(error));
   d6e7a:	4668      	mov	r0, sp
   d6e7c:	f7ff fed4 	bl	d6c28 <_ZN8particle5ErrorD1Ev>
    }
   d6e80:	b009      	add	sp, #36	; 0x24
   d6e82:	bdf0      	pop	{r4, r5, r6, r7, pc}
   d6e84:	000d6d37 	.word	0x000d6d37
   d6e88:	000d6fad 	.word	0x000d6fad
   d6e8c:	000d68b3 	.word	0x000d68b3

000d6e90 <_ZN10CloudClass13publish_eventEPKcS1_iN8particle5FlagsI15PublishFlagTypehEE>:
    desc.data = (void*)data;
    desc.funcKey = funcKey;
    return spark_function(NULL, (user_function_int_str_t*)&desc, NULL);
}

Future<bool> CloudClass::publish_event(const char *eventName, const char *eventData, int ttl, PublishFlags flags) {
   d6e90:	e92d 4ff0 	stmdb	sp!, {r4, r5, r6, r7, r8, r9, sl, fp, lr}
   d6e94:	b08b      	sub	sp, #44	; 0x2c
   d6e96:	4606      	mov	r6, r0
   d6e98:	460f      	mov	r7, r1
   d6e9a:	4690      	mov	r8, r2
   d6e9c:	4699      	mov	r9, r3
   d6e9e:	f89d a050 	ldrb.w	sl, [sp, #80]	; 0x50
    static void sleep(Spark_Sleep_TypeDef sleepMode, long seconds=0) __attribute__ ((deprecated("Please use System.sleep() instead.")))
    { SystemClass::sleep(sleepMode, seconds); }
    static void sleep(uint16_t wakeUpPin, InterruptMode edgeTriggerMode, long seconds=0) __attribute__ ((deprecated("Please use System.sleep() instead.")))
    { SystemClass::sleep(wakeUpPin, edgeTriggerMode, seconds); }

    static bool connected(void) { return spark_cloud_flag_connected(); }
   d6ea2:	f7ff f967 	bl	d6174 <spark_cloud_flag_connected>
   d6ea6:	ad07      	add	r5, sp, #28
    if (!connected()) {
   d6ea8:	4683      	mov	fp, r0
   d6eaa:	bb30      	cbnz	r0, d6efa <_ZN10CloudClass13publish_eventEPKcS1_iN8particle5FlagsI15PublishFlagTypehEE+0x6a>

} // namespace particle

inline particle::Error::Error(Type type) :
        msg_(nullptr),
        type_(type) {
   d6eac:	f64f 732e 	movw	r3, #65326	; 0xff2e
   d6eb0:	9005      	str	r0, [sp, #20]
    typedef typename detail::FutureImpl<ResultT, ContextT>::OnSuccessCallback OnSuccessCallback;
    typedef typename detail::FutureImpl<ResultT, ContextT>::OnErrorCallback OnErrorCallback;

    // Construct failed future
    explicit FutureBase(Error error) :
            p_(new detail::FutureImpl<ResultT, ContextT>(std::move(error))) {
   d6eb2:	a905      	add	r1, sp, #20
   d6eb4:	4628      	mov	r0, r5
   d6eb6:	f8ad 3018 	strh.w	r3, [sp, #24]
   d6eba:	f7ff fea6 	bl	d6c0a <_ZN8particle5ErrorC1EOS0_>
   d6ebe:	2014      	movs	r0, #20
   d6ec0:	f7fd f8eb 	bl	d409a <_Znwj>
   d6ec4:	4604      	mov	r4, r0
   d6ec6:	b158      	cbz	r0, d6ee0 <_ZN10CloudClass13publish_eventEPKcS1_iN8particle5FlagsI15PublishFlagTypehEE+0x50>
      ~atomic() noexcept = default;
      atomic(const atomic&) = delete;
      atomic& operator=(const atomic&) = delete;
      atomic& operator=(const atomic&) volatile = delete;

      constexpr atomic(_Tp __i) noexcept : _M_i(__i) { }
   d6ec8:	2302      	movs	r3, #2
   d6eca:	7003      	strb	r3, [r0, #0]
      __atomic_base(const __atomic_base&) = delete;
      __atomic_base& operator=(const __atomic_base&) = delete;
      __atomic_base& operator=(const __atomic_base&) volatile = delete;

      // Requires __int_type convertible to _M_i.
      constexpr __atomic_base(__int_type __i) noexcept : _M_i (__i) { }
   d6ecc:	2301      	movs	r3, #1
   d6ece:	7043      	strb	r3, [r0, #1]
      __atomic_base(const __atomic_base&) = delete;
      __atomic_base& operator=(const __atomic_base&) = delete;
      __atomic_base& operator=(const __atomic_base&) volatile = delete;

      // Requires __pointer_type convertible to _M_p.
      constexpr __atomic_base(__pointer_type __p) noexcept : _M_p (__p) { }
   d6ed0:	f8c0 b004 	str.w	fp, [r0, #4]
   d6ed4:	f8c0 b008 	str.w	fp, [r0, #8]
            result_(std::move(result)) {
    }

    explicit FutureImpl(Error error) :
            FutureImplBase<ResultT, ContextT>(State::FAILED),
            error_(std::move(error)) {
   d6ed8:	4629      	mov	r1, r5
   d6eda:	300c      	adds	r0, #12
   d6edc:	f7ff fe95 	bl	d6c0a <_ZN8particle5ErrorC1EOS0_>
      : _M_ptr(0), _M_refcount()
      { }

      template<typename _Tp1>
	explicit __shared_ptr(_Tp1* __p)
        : _M_ptr(__p), _M_refcount(__p)
   d6ee0:	4630      	mov	r0, r6
   d6ee2:	4621      	mov	r1, r4
   d6ee4:	f840 4b04 	str.w	r4, [r0], #4
   d6ee8:	f7ff ff08 	bl	d6cfc <_ZNSt14__shared_countILN9__gnu_cxx12_Lock_policyE0EEC1IPN8particle6detail10FutureImplIbNS5_13FutureContextEEEEET_>
    typedef typename detail::FutureImpl<ResultT, ContextT>::OnSuccessCallback OnSuccessCallback;
    typedef typename detail::FutureImpl<ResultT, ContextT>::OnErrorCallback OnErrorCallback;

    // Construct failed future
    explicit FutureBase(Error error) :
            p_(new detail::FutureImpl<ResultT, ContextT>(std::move(error))) {
   d6eec:	4628      	mov	r0, r5
   d6eee:	f7ff fe9b 	bl	d6c28 <_ZN8particle5ErrorD1Ev>
    }

    explicit FutureBase(Error::Type error) :
            FutureBase(Error(error)) {
   d6ef2:	a805      	add	r0, sp, #20
   d6ef4:	f7ff fe98 	bl	d6c28 <_ZN8particle5ErrorD1Ev>
   d6ef8:	e052      	b.n	d6fa0 <_ZN10CloudClass13publish_eventEPKcS1_iN8particle5FlagsI15PublishFlagTypehEE+0x110>
        return Future<bool>(Error::INVALID_STATE);
    }
    spark_send_event_data d = { sizeof(spark_send_event_data) };
   d6efa:	2400      	movs	r4, #0
   d6efc:	230c      	movs	r3, #12
// can be acquired via Future
template<typename ResultT, typename ContextT>
class PromiseBase {
public:
    PromiseBase() :
            p_(new detail::FutureImpl<ResultT, ContextT>(State::RUNNING)) {
   d6efe:	2014      	movs	r0, #20
   d6f00:	606c      	str	r4, [r5, #4]
   d6f02:	60ac      	str	r4, [r5, #8]
   d6f04:	9307      	str	r3, [sp, #28]
   d6f06:	f7fd f8c8 	bl	d409a <_Znwj>
   d6f0a:	4601      	mov	r1, r0
   d6f0c:	b118      	cbz	r0, d6f16 <_ZN10CloudClass13publish_eventEPKcS1_iN8particle5FlagsI15PublishFlagTypehEE+0x86>
   d6f0e:	7004      	strb	r4, [r0, #0]
      __atomic_base(const __atomic_base&) = delete;
      __atomic_base& operator=(const __atomic_base&) = delete;
      __atomic_base& operator=(const __atomic_base&) volatile = delete;

      // Requires __int_type convertible to _M_i.
      constexpr __atomic_base(__int_type __i) noexcept : _M_i (__i) { }
   d6f10:	7044      	strb	r4, [r0, #1]
      __atomic_base(const __atomic_base&) = delete;
      __atomic_base& operator=(const __atomic_base&) = delete;
      __atomic_base& operator=(const __atomic_base&) volatile = delete;

      // Requires __pointer_type convertible to _M_p.
      constexpr __atomic_base(__pointer_type __p) noexcept : _M_p (__p) { }
   d6f12:	6044      	str	r4, [r0, #4]
   d6f14:	6084      	str	r4, [r0, #8]
   d6f16:	a804      	add	r0, sp, #16
   d6f18:	9103      	str	r1, [sp, #12]
   d6f1a:	f7ff feef 	bl	d6cfc <_ZNSt14__shared_countILN9__gnu_cxx12_Lock_policyE0EEC1IPN8particle6detail10FutureImplIbNS5_13FutureContextEEEEET_>

    // Completion handler
    Promise<bool> p;
    d.handler_callback = publishCompletionCallback;
   d6f1e:	4b22      	ldr	r3, [pc, #136]	; (d6fa8 <_ZN10CloudClass13publish_eventEPKcS1_iN8particle5FlagsI15PublishFlagTypehEE+0x118>)
   d6f20:	9308      	str	r3, [sp, #32]
    }

    // Wraps this promise into an object pointer that can be passed to a C function
    void* dataPtr() const {
        // TODO: Use custom reference counting object to avoid unnecessary memory allocation
        return new detail::FutureImplPtr<ResultT, ContextT>(p_);
   d6f22:	2008      	movs	r0, #8
   d6f24:	f7fd f8b9 	bl	d409a <_Znwj>
   d6f28:	4604      	mov	r4, r0
   d6f2a:	b128      	cbz	r0, d6f38 <_ZN10CloudClass13publish_eventEPKcS1_iN8particle5FlagsI15PublishFlagTypehEE+0xa8>
      template<typename _Tp1>
	__shared_ptr(const __shared_ptr<_Tp1, _Lp>& __r, _Tp* __p) noexcept
	: _M_ptr(__p), _M_refcount(__r._M_refcount) // never throws
	{ }

      __shared_ptr(const __shared_ptr&) noexcept = default;
   d6f2c:	9b03      	ldr	r3, [sp, #12]
   d6f2e:	f840 3b04 	str.w	r3, [r0], #4
   d6f32:	a904      	add	r1, sp, #16
   d6f34:	f7ff fd58 	bl	d69e8 <_ZNSt14__shared_countILN9__gnu_cxx12_Lock_policyE0EEC1ERKS2_>
    d.handler_data = p.dataPtr();

    if (!spark_send_event(eventName, eventData, ttl, flags.value(), &d) && !p.isDone()) {
   d6f38:	9500      	str	r5, [sp, #0]
   d6f3a:	fa5f f38a 	uxtb.w	r3, sl
   d6f3e:	464a      	mov	r2, r9
   d6f40:	4641      	mov	r1, r8
   d6f42:	4638      	mov	r0, r7
    spark_send_event_data d = { sizeof(spark_send_event_data) };

    // Completion handler
    Promise<bool> p;
    d.handler_callback = publishCompletionCallback;
    d.handler_data = p.dataPtr();
   d6f44:	9409      	str	r4, [sp, #36]	; 0x24

    if (!spark_send_event(eventName, eventData, ttl, flags.value(), &d) && !p.isDone()) {
   d6f46:	f7ff f925 	bl	d6194 <spark_send_event>
   d6f4a:	b920      	cbnz	r0, d6f56 <_ZN10CloudClass13publish_eventEPKcS1_iN8particle5FlagsI15PublishFlagTypehEE+0xc6>
      {
       memory_order __b = __m & __memory_order_mask;
	__glibcxx_assert(__b != memory_order_release);
	__glibcxx_assert(__b != memory_order_acq_rel);

	return __atomic_load_n(&_M_i, __m);
   d6f4c:	9b03      	ldr	r3, [sp, #12]
   d6f4e:	785b      	ldrb	r3, [r3, #1]
   d6f50:	f003 02ff 	and.w	r2, r3, #255	; 0xff
   d6f54:	b183      	cbz	r3, d6f78 <_ZN10CloudClass13publish_eventEPKcS1_iN8particle5FlagsI15PublishFlagTypehEE+0xe8>
   d6f56:	9b03      	ldr	r3, [sp, #12]
   d6f58:	9305      	str	r3, [sp, #20]
   d6f5a:	a904      	add	r1, sp, #16
   d6f5c:	a806      	add	r0, sp, #24
   d6f5e:	f7ff fd43 	bl	d69e8 <_ZNSt14__shared_countILN9__gnu_cxx12_Lock_policyE0EEC1ERKS2_>
    bool isDone() const {
        return p_->isDone();
    }

    Future<ResultT, ContextT> future() const {
        return Future<ResultT, ContextT>(p_);
   d6f62:	a905      	add	r1, sp, #20
   d6f64:	4630      	mov	r0, r6
   d6f66:	f7ff fe89 	bl	d6c7c <_ZN8particle6FutureIbNS_6detail13FutureContextEEC1ESt10shared_ptrINS1_10FutureImplIbS2_EEE>
      __shared_ptr& operator=(const __shared_ptr&) noexcept = default;
      ~__shared_ptr() = default;
   d6f6a:	a806      	add	r0, sp, #24
   d6f6c:	f7fd f9fe 	bl	d436c <_ZNSt14__shared_countILN9__gnu_cxx12_Lock_policyE0EED1Ev>
   d6f70:	a804      	add	r0, sp, #16
   d6f72:	f7fd f9fb 	bl	d436c <_ZNSt14__shared_countILN9__gnu_cxx12_Lock_policyE0EED1Ev>
   d6f76:	e013      	b.n	d6fa0 <_ZN10CloudClass13publish_eventEPKcS1_iN8particle5FlagsI15PublishFlagTypehEE+0x110>
   d6f78:	f64f 739c 	movw	r3, #65436	; 0xff9c
        // Set generic error code in case completion callback wasn't invoked for some reason
        p.setError(Error::UNKNOWN);
   d6f7c:	a905      	add	r1, sp, #20
   d6f7e:	a803      	add	r0, sp, #12
   d6f80:	9205      	str	r2, [sp, #20]
   d6f82:	f8ad 3018 	strh.w	r3, [sp, #24]
   d6f86:	f7ff fefd 	bl	d6d84 <_ZN8particle11PromiseBaseIbNS_6detail13FutureContextEE8setErrorENS_5ErrorE>
   d6f8a:	a805      	add	r0, sp, #20
   d6f8c:	f7ff fe4c 	bl	d6c28 <_ZN8particle5ErrorD1Ev>
        p.fromDataPtr(d.handler_data); // Free wrapper object
   d6f90:	a805      	add	r0, sp, #20
   d6f92:	9909      	ldr	r1, [sp, #36]	; 0x24
   d6f94:	f7ff fe83 	bl	d6c9e <_ZN8particle11PromiseBaseIbNS_6detail13FutureContextEE11fromDataPtrEPv>
   d6f98:	a806      	add	r0, sp, #24
   d6f9a:	f7fd f9e7 	bl	d436c <_ZNSt14__shared_countILN9__gnu_cxx12_Lock_policyE0EED1Ev>
   d6f9e:	e7da      	b.n	d6f56 <_ZN10CloudClass13publish_eventEPKcS1_iN8particle5FlagsI15PublishFlagTypehEE+0xc6>
    }

    return p.future();
}
   d6fa0:	4630      	mov	r0, r6
   d6fa2:	b00b      	add	sp, #44	; 0x2c
   d6fa4:	e8bd 8ff0 	ldmia.w	sp!, {r4, r5, r6, r7, r8, r9, sl, fp, pc}
   d6fa8:	000d711d 	.word	0x000d711d

000d6fac <_ZNSt14_Function_base13_Base_managerISt5_BindIFSt8functionIFvRKN8particle5ErrorEEES4_EEE10_M_managerERSt9_Any_dataRKSC_St18_Manager_operation>:
      public:
	static bool
	_M_manager(_Any_data& __dest, const _Any_data& __source,
		   _Manager_operation __op)
	{
	  switch (__op)
   d6fac:	2a02      	cmp	r2, #2
	  delete __victim._M_access<_Functor*>();
	}

      public:
	static bool
	_M_manager(_Any_data& __dest, const _Any_data& __source,
   d6fae:	b5f8      	push	{r3, r4, r5, r6, r7, lr}
   d6fb0:	4604      	mov	r4, r0
		   _Manager_operation __op)
	{
	  switch (__op)
   d6fb2:	d006      	beq.n	d6fc2 <_ZNSt14_Function_base13_Base_managerISt5_BindIFSt8functionIFvRKN8particle5ErrorEEES4_EEE10_M_managerERSt9_Any_dataRKSC_St18_Manager_operation+0x16>
   d6fb4:	2a03      	cmp	r2, #3
   d6fb6:	d017      	beq.n	d6fe8 <_ZNSt14_Function_base13_Base_managerISt5_BindIFSt8functionIFvRKN8particle5ErrorEEES4_EEE10_M_managerERSt9_Any_dataRKSC_St18_Manager_operation+0x3c>
   d6fb8:	2a01      	cmp	r2, #1
   d6fba:	d122      	bne.n	d7002 <_ZNSt14_Function_base13_Base_managerISt5_BindIFSt8functionIFvRKN8particle5ErrorEEES4_EEE10_M_managerERSt9_Any_dataRKSC_St18_Manager_operation+0x56>
	static _Functor*
	_M_get_pointer(const _Any_data& __source)
	{
	  const _Functor* __ptr =
	    __stored_locally? std::__addressof(__source._M_access<_Functor>())
	    /* have stored a pointer */ : __source._M_access<_Functor*>();
   d6fbc:	680b      	ldr	r3, [r1, #0]
	    case __get_type_info:
	      __dest._M_access<const type_info*>() = &typeid(_Functor);
	      break;
#endif
	    case __get_functor_ptr:
	      __dest._M_access<_Functor*>() = _M_get_pointer(__source);
   d6fbe:	6003      	str	r3, [r0, #0]
	      break;
   d6fc0:	e01f      	b.n	d7002 <_ZNSt14_Function_base13_Base_managerISt5_BindIFSt8functionIFvRKN8particle5ErrorEEES4_EEE10_M_managerERSt9_Any_dataRKSC_St18_Manager_operation+0x56>
	// Clone a function object that is not location-invariant or
	// that cannot fit into an _Any_data structure.
	static void
	_M_clone(_Any_data& __dest, const _Any_data& __source, false_type)
	{
	  __dest._M_access<_Functor*>() =
   d6fc2:	2018      	movs	r0, #24
   d6fc4:	680e      	ldr	r6, [r1, #0]
   d6fc6:	f7fd f868 	bl	d409a <_Znwj>
   d6fca:	4605      	mov	r5, r0
   d6fcc:	b150      	cbz	r0, d6fe4 <_ZNSt14_Function_base13_Base_managerISt5_BindIFSt8functionIFvRKN8particle5ErrorEEES4_EEE10_M_managerERSt9_Any_dataRKSC_St18_Manager_operation+0x38>
      template<typename... _Args>
	explicit _Bind(_Functor&& __f, _Args&&... __args)
	: _M_f(std::move(__f)), _M_bound_args(std::forward<_Args>(__args)...)
	{ }

      _Bind(const _Bind&) = default;
   d6fce:	4631      	mov	r1, r6
   d6fd0:	f7ff fec8 	bl	d6d64 <_ZNSt8functionIFvRKN8particle5ErrorEEEC1ERKS5_>
inline particle::Error::Error(const char* msg) :
        Error(UNKNOWN, msg) {
}

inline particle::Error::Error(const Error& error) :
        Error(error.type_, error.msg_) {
   d6fd4:	6930      	ldr	r0, [r6, #16]
   d6fd6:	f9b6 7014 	ldrsh.w	r7, [r6, #20]
        type_(type) {
}

inline particle::Error::Error(Type type, const char* msg) :
        msg_(msg ? (const char*)strdup(msg) : nullptr),
        type_(type) {
   d6fda:	b108      	cbz	r0, d6fe0 <_ZNSt14_Function_base13_Base_managerISt5_BindIFSt8functionIFvRKN8particle5ErrorEEES4_EEE10_M_managerERSt9_Any_dataRKSC_St18_Manager_operation+0x34>
   d6fdc:	f001 fe0e 	bl	d8bfc <strdup>
   d6fe0:	6128      	str	r0, [r5, #16]
   d6fe2:	82af      	strh	r7, [r5, #20]
	// Clone a function object that is not location-invariant or
	// that cannot fit into an _Any_data structure.
	static void
	_M_clone(_Any_data& __dest, const _Any_data& __source, false_type)
	{
	  __dest._M_access<_Functor*>() =
   d6fe4:	6025      	str	r5, [r4, #0]
   d6fe6:	e00c      	b.n	d7002 <_ZNSt14_Function_base13_Base_managerISt5_BindIFSt8functionIFvRKN8particle5ErrorEEES4_EEE10_M_managerERSt9_Any_dataRKSC_St18_Manager_operation+0x56>

	// Destroying an object located on the heap.
	static void
	_M_destroy(_Any_data& __victim, false_type)
	{
	  delete __victim._M_access<_Functor*>();
   d6fe8:	6804      	ldr	r4, [r0, #0]
   d6fea:	b154      	cbz	r4, d7002 <_ZNSt14_Function_base13_Base_managerISt5_BindIFSt8functionIFvRKN8particle5ErrorEEES4_EEE10_M_managerERSt9_Any_dataRKSC_St18_Manager_operation+0x56>
   d6fec:	f104 0010 	add.w	r0, r4, #16
   d6ff0:	f7ff fe1a 	bl	d6c28 <_ZN8particle5ErrorD1Ev>
   *  @ingroup functors
   *
   *  Polymorphic function wrapper.
   */
  template<typename _Res, typename... _ArgTypes>
    class function<_Res(_ArgTypes...)>
   d6ff4:	4620      	mov	r0, r4
   d6ff6:	f7ff f9ab 	bl	d6350 <_ZNSt14_Function_baseD1Ev>

	// Destroying an object located on the heap.
	static void
	_M_destroy(_Any_data& __victim, false_type)
	{
	  delete __victim._M_access<_Functor*>();
   d6ffa:	2118      	movs	r1, #24
   d6ffc:	4620      	mov	r0, r4
   d6ffe:	f000 fcfb 	bl	d79f8 <_ZdlPvj>
	    case __destroy_functor:
	      _M_destroy(__dest, _Local_storage());
	      break;
	    }
	  return false;
	}
   d7002:	2000      	movs	r0, #0
   d7004:	bdf8      	pop	{r3, r4, r5, r6, r7, pc}

000d7006 <_ZNSt8functionIFvRKbEEC1ERKS3_>:
      _Invoker_type _M_invoker;
  };

  // Out-of-line member definitions.
  template<typename _Res, typename... _ArgTypes>
    function<_Res(_ArgTypes...)>::
   d7006:	b538      	push	{r3, r4, r5, lr}
	{
	  _Base::_M_init_functor(__functor, std::__addressof(__f.get()));
	}
      };

    _Function_base() : _M_manager(nullptr) { }
   d7008:	2300      	movs	r3, #0
   d700a:	6083      	str	r3, [r0, #8]
   d700c:	688b      	ldr	r3, [r1, #8]
      _Invoker_type _M_invoker;
  };

  // Out-of-line member definitions.
  template<typename _Res, typename... _ArgTypes>
    function<_Res(_ArgTypes...)>::
   d700e:	4604      	mov	r4, r0
   d7010:	460d      	mov	r5, r1
    function(const function& __x)
    : _Function_base()
    {
      if (static_cast<bool>(__x))
   d7012:	b12b      	cbz	r3, d7020 <_ZNSt8functionIFvRKbEEC1ERKS3_+0x1a>
	{
	  __x._M_manager(_M_functor, __x._M_functor, __clone_functor);
   d7014:	2202      	movs	r2, #2
   d7016:	4798      	blx	r3
	  _M_invoker = __x._M_invoker;
   d7018:	68eb      	ldr	r3, [r5, #12]
   d701a:	60e3      	str	r3, [r4, #12]
	  _M_manager = __x._M_manager;
   d701c:	68ab      	ldr	r3, [r5, #8]
   d701e:	60a3      	str	r3, [r4, #8]
	}
    }
   d7020:	4620      	mov	r0, r4
   d7022:	bd38      	pop	{r3, r4, r5, pc}

000d7024 <_ZNSt14_Function_base13_Base_managerISt5_BindIFSt8functionIFvRKbEEbEEE10_M_managerERSt9_Any_dataRKSA_St18_Manager_operation>:
      public:
	static bool
	_M_manager(_Any_data& __dest, const _Any_data& __source,
		   _Manager_operation __op)
	{
	  switch (__op)
   d7024:	2a02      	cmp	r2, #2
	  delete __victim._M_access<_Functor*>();
	}

      public:
	static bool
	_M_manager(_Any_data& __dest, const _Any_data& __source,
   d7026:	b570      	push	{r4, r5, r6, lr}
   d7028:	4604      	mov	r4, r0
		   _Manager_operation __op)
	{
	  switch (__op)
   d702a:	d006      	beq.n	d703a <_ZNSt14_Function_base13_Base_managerISt5_BindIFSt8functionIFvRKbEEbEEE10_M_managerERSt9_Any_dataRKSA_St18_Manager_operation+0x16>
   d702c:	2a03      	cmp	r2, #3
   d702e:	d011      	beq.n	d7054 <_ZNSt14_Function_base13_Base_managerISt5_BindIFSt8functionIFvRKbEEbEEE10_M_managerERSt9_Any_dataRKSA_St18_Manager_operation+0x30>
   d7030:	2a01      	cmp	r2, #1
   d7032:	d118      	bne.n	d7066 <_ZNSt14_Function_base13_Base_managerISt5_BindIFSt8functionIFvRKbEEbEEE10_M_managerERSt9_Any_dataRKSA_St18_Manager_operation+0x42>
	static _Functor*
	_M_get_pointer(const _Any_data& __source)
	{
	  const _Functor* __ptr =
	    __stored_locally? std::__addressof(__source._M_access<_Functor>())
	    /* have stored a pointer */ : __source._M_access<_Functor*>();
   d7034:	680b      	ldr	r3, [r1, #0]
	    case __get_type_info:
	      __dest._M_access<const type_info*>() = &typeid(_Functor);
	      break;
#endif
	    case __get_functor_ptr:
	      __dest._M_access<_Functor*>() = _M_get_pointer(__source);
   d7036:	6003      	str	r3, [r0, #0]
	      break;
   d7038:	e015      	b.n	d7066 <_ZNSt14_Function_base13_Base_managerISt5_BindIFSt8functionIFvRKbEEbEEE10_M_managerERSt9_Any_dataRKSA_St18_Manager_operation+0x42>
	// Clone a function object that is not location-invariant or
	// that cannot fit into an _Any_data structure.
	static void
	_M_clone(_Any_data& __dest, const _Any_data& __source, false_type)
	{
	  __dest._M_access<_Functor*>() =
   d703a:	2014      	movs	r0, #20
   d703c:	680e      	ldr	r6, [r1, #0]
   d703e:	f7fd f82c 	bl	d409a <_Znwj>
   d7042:	4605      	mov	r5, r0
   d7044:	b120      	cbz	r0, d7050 <_ZNSt14_Function_base13_Base_managerISt5_BindIFSt8functionIFvRKbEEbEEE10_M_managerERSt9_Any_dataRKSA_St18_Manager_operation+0x2c>
      template<typename... _Args>
	explicit _Bind(_Functor&& __f, _Args&&... __args)
	: _M_f(std::move(__f)), _M_bound_args(std::forward<_Args>(__args)...)
	{ }

      _Bind(const _Bind&) = default;
   d7046:	4631      	mov	r1, r6
   d7048:	f7ff ffdd 	bl	d7006 <_ZNSt8functionIFvRKbEEC1ERKS3_>
   d704c:	7c33      	ldrb	r3, [r6, #16]
   d704e:	742b      	strb	r3, [r5, #16]
	// Clone a function object that is not location-invariant or
	// that cannot fit into an _Any_data structure.
	static void
	_M_clone(_Any_data& __dest, const _Any_data& __source, false_type)
	{
	  __dest._M_access<_Functor*>() =
   d7050:	6025      	str	r5, [r4, #0]
   d7052:	e008      	b.n	d7066 <_ZNSt14_Function_base13_Base_managerISt5_BindIFSt8functionIFvRKbEEbEEE10_M_managerERSt9_Any_dataRKSA_St18_Manager_operation+0x42>

	// Destroying an object located on the heap.
	static void
	_M_destroy(_Any_data& __victim, false_type)
	{
	  delete __victim._M_access<_Functor*>();
   d7054:	6804      	ldr	r4, [r0, #0]
   d7056:	b134      	cbz	r4, d7066 <_ZNSt14_Function_base13_Base_managerISt5_BindIFSt8functionIFvRKbEEbEEE10_M_managerERSt9_Any_dataRKSA_St18_Manager_operation+0x42>
   *  @ingroup functors
   *
   *  Polymorphic function wrapper.
   */
  template<typename _Res, typename... _ArgTypes>
    class function<_Res(_ArgTypes...)>
   d7058:	4620      	mov	r0, r4
   d705a:	f7ff f979 	bl	d6350 <_ZNSt14_Function_baseD1Ev>

	// Destroying an object located on the heap.
	static void
	_M_destroy(_Any_data& __victim, false_type)
	{
	  delete __victim._M_access<_Functor*>();
   d705e:	2114      	movs	r1, #20
   d7060:	4620      	mov	r0, r4
   d7062:	f000 fcc9 	bl	d79f8 <_ZdlPvj>
	    case __destroy_functor:
	      _M_destroy(__dest, _Local_storage());
	      break;
	    }
	  return false;
	}
   d7066:	2000      	movs	r0, #0
   d7068:	bd70      	pop	{r4, r5, r6, pc}
	...

000d706c <_ZN8particle6detail14FutureImplBaseIbNS0_13FutureContextEE14invokeCallbackIFvRKbEIRbEEEvRSt6atomicIPSt8functionIT_EEDpOT0_>:
        delete callbackPtr; // Delete old callback
    }

    // Takes a callback from its atomic wrapper and invokes it
    template<typename FunctionT, typename... ArgsT>
    static void invokeCallback(std::atomic<std::function<FunctionT>*>& wrapper, ArgsT&&... args) {
   d706c:	b5f0      	push	{r4, r5, r6, r7, lr}

      _GLIBCXX_ALWAYS_INLINE __pointer_type
      exchange(__pointer_type __p,
	       memory_order __m = memory_order_seq_cst) noexcept
      {
	return __atomic_exchange_n(&_M_p, __p, __m);
   d706e:	2300      	movs	r3, #0
   d7070:	b087      	sub	sp, #28
   d7072:	460c      	mov	r4, r1
   d7074:	f3bf 8f5f 	dmb	sy
   d7078:	e850 6f00 	ldrex	r6, [r0]
   d707c:	e840 3200 	strex	r2, r3, [r0]
   d7080:	2a00      	cmp	r2, #0
   d7082:	d1f9      	bne.n	d7078 <_ZN8particle6detail14FutureImplBaseIbNS0_13FutureContextEE14invokeCallbackIFvRKbEIRbEEEvRSt6atomicIPSt8functionIT_EEDpOT0_+0xc>
   d7084:	f3bf 8f5f 	dmb	sy
        std::function<FunctionT>* callbackPtr = wrapper.exchange(nullptr, std::memory_order_acq_rel);
        if (callbackPtr) {
   d7088:	2e00      	cmp	r6, #0
   d708a:	d03f      	beq.n	d710c <_ZN8particle6detail14FutureImplBaseIbNS0_13FutureContextEE14invokeCallbackIFvRKbEIRbEEEvRSt6atomicIPSt8functionIT_EEDpOT0_+0xa0>
        return (application_thread_invoke(callback, data, nullptr) == 0);
    }

    // Returns true if current thread is the application thread
    static bool isApplicationThreadCurrent() {
        return (application_thread_current(nullptr) != 0);
   d708c:	4618      	mov	r0, r3
   d708e:	f7ff f8f1 	bl	d6274 <application_thread_current>
    }

    // Invokes std::function in the application context
    template<typename FunctionT, typename... ArgsT>
    static void invokeCallback(const std::function<FunctionT>& callback, ArgsT&&... args) {
        if (ContextT::isApplicationThreadCurrent()) {
   d7092:	4607      	mov	r7, r0
   d7094:	b120      	cbz	r0, d70a0 <_ZN8particle6detail14FutureImplBaseIbNS0_13FutureContextEE14invokeCallbackIFvRKbEIRbEEEvRSt6atomicIPSt8functionIT_EEDpOT0_+0x34>
            callback(std::forward<ArgsT>(args)...); // Synchronous call
   d7096:	4621      	mov	r1, r4
   d7098:	4630      	mov	r0, r6
   d709a:	f7ff fe53 	bl	d6d44 <_ZNKSt8functionIFvRKbEEclES1_>
   d709e:	e02e      	b.n	d70fe <_ZN8particle6detail14FutureImplBaseIbNS0_13FutureContextEE14invokeCallbackIFvRKbEIRbEEEvRSt6atomicIPSt8functionIT_EEDpOT0_+0x92>
	}

     public:
      template<typename... _Args>
	explicit _Bind(const _Functor& __f, _Args&&... __args)
	: _M_f(__f), _M_bound_args(std::forward<_Args>(__args)...)
   d70a0:	4631      	mov	r1, r6
   d70a2:	a801      	add	r0, sp, #4
   d70a4:	f7ff ffaf 	bl	d7006 <_ZNSt8functionIFvRKbEEC1ERKS3_>
      constexpr _Head_base(const _Head_base&) = default;
      constexpr _Head_base(_Head_base&&) = default;

      template<typename _UHead>
        constexpr _Head_base(_UHead&& __h)
	: _M_head_impl(std::forward<_UHead>(__h)) { }
   d70a8:	7823      	ldrb	r3, [r4, #0]
   d70aa:	f88d 3014 	strb.w	r3, [sp, #20]
        } else {
            // Bind all arguments and wrap resulting function into a pointer
            auto callbackPtr = new std::function<void()>(std::bind(callback, std::forward<ArgsT>(args)...));
   d70ae:	2010      	movs	r0, #16
   d70b0:	f7fc fff3 	bl	d409a <_Znwj>
   d70b4:	4605      	mov	r5, r0
   d70b6:	b1d0      	cbz	r0, d70ee <_ZN8particle6detail14FutureImplBaseIbNS0_13FutureContextEE14invokeCallbackIFvRKbEIRbEEEvRSt6atomicIPSt8functionIT_EEDpOT0_+0x82>
	{
	  _Base::_M_init_functor(__functor, std::__addressof(__f.get()));
	}
      };

    _Function_base() : _M_manager(nullptr) { }
   d70b8:	6087      	str	r7, [r0, #8]
	_M_init_functor(_Any_data& __functor, _Functor&& __f, true_type)
	{ new (__functor._M_access()) _Functor(std::move(__f)); }

	static void
	_M_init_functor(_Any_data& __functor, _Functor&& __f, false_type)
	{ __functor._M_access<_Functor*>() = new _Functor(std::move(__f)); }
   d70ba:	2014      	movs	r0, #20
   d70bc:	f7fc ffed 	bl	d409a <_Znwj>
   d70c0:	4604      	mov	r4, r0
   d70c2:	b178      	cbz	r0, d70e4 <_ZN8particle6detail14FutureImplBaseIbNS0_13FutureContextEE14invokeCallbackIFvRKbEIRbEEEvRSt6atomicIPSt8functionIT_EEDpOT0_+0x78>
	{
	  _Base::_M_init_functor(__functor, std::__addressof(__f.get()));
	}
      };

    _Function_base() : _M_manager(nullptr) { }
   d70c4:	6087      	str	r7, [r0, #8]
       *  Swap the targets of @c this function object and @a __f. This
       *  function will not throw an %exception.
       */
      void swap(function& __x)
      {
	std::swap(_M_functor, __x._M_functor);
   d70c6:	4601      	mov	r1, r0
   d70c8:	a801      	add	r0, sp, #4
   d70ca:	f7ff fe06 	bl	d6cda <_ZSt4swapISt9_Any_dataEvRT_S2_>
#endif
    {
      // concept requirements
      __glibcxx_function_requires(_SGIAssignableConcept<_Tp>)

      _Tp __tmp = _GLIBCXX_MOVE(__a);
   d70ce:	9b03      	ldr	r3, [sp, #12]
      __a = _GLIBCXX_MOVE(__b);
   d70d0:	68a2      	ldr	r2, [r4, #8]
      __b = _GLIBCXX_MOVE(__tmp);
   d70d2:	60a3      	str	r3, [r4, #8]
#endif
    {
      // concept requirements
      __glibcxx_function_requires(_SGIAssignableConcept<_Tp>)

      _Tp __tmp = _GLIBCXX_MOVE(__a);
   d70d4:	9b04      	ldr	r3, [sp, #16]
      __a = _GLIBCXX_MOVE(__b);
   d70d6:	9203      	str	r2, [sp, #12]
   d70d8:	68e2      	ldr	r2, [r4, #12]
      __b = _GLIBCXX_MOVE(__tmp);
   d70da:	60e3      	str	r3, [r4, #12]
   d70dc:	f89d 3014 	ldrb.w	r3, [sp, #20]
    {
      // concept requirements
      __glibcxx_function_requires(_SGIAssignableConcept<_Tp>)

      _Tp __tmp = _GLIBCXX_MOVE(__a);
      __a = _GLIBCXX_MOVE(__b);
   d70e0:	9204      	str	r2, [sp, #16]
   d70e2:	7423      	strb	r3, [r4, #16]
	typedef _Function_handler<_Signature_type, _Functor> _My_handler;

	if (_My_handler::_M_not_empty_function(__f))
	  {
	    _My_handler::_M_init_functor(_M_functor, std::move(__f));
	    _M_invoker = &_My_handler::_M_invoke;
   d70e4:	4b0a      	ldr	r3, [pc, #40]	; (d7110 <_ZN8particle6detail14FutureImplBaseIbNS0_13FutureContextEE14invokeCallbackIFvRKbEIRbEEEvRSt6atomicIPSt8functionIT_EEDpOT0_+0xa4>)
   d70e6:	60eb      	str	r3, [r5, #12]
	    _M_manager = &_My_handler::_M_manager;
   d70e8:	4b0a      	ldr	r3, [pc, #40]	; (d7114 <_ZN8particle6detail14FutureImplBaseIbNS0_13FutureContextEE14invokeCallbackIFvRKbEIRbEEEvRSt6atomicIPSt8functionIT_EEDpOT0_+0xa8>)
	_M_init_functor(_Any_data& __functor, _Functor&& __f, true_type)
	{ new (__functor._M_access()) _Functor(std::move(__f)); }

	static void
	_M_init_functor(_Any_data& __functor, _Functor&& __f, false_type)
	{ __functor._M_access<_Functor*>() = new _Functor(std::move(__f)); }
   d70ea:	602c      	str	r4, [r5, #0]

	if (_My_handler::_M_not_empty_function(__f))
	  {
	    _My_handler::_M_init_functor(_M_functor, std::move(__f));
	    _M_invoker = &_My_handler::_M_invoke;
	    _M_manager = &_My_handler::_M_manager;
   d70ec:	60ab      	str	r3, [r5, #8]
   *  @ingroup functors
   *
   *  Polymorphic function wrapper.
   */
  template<typename _Res, typename... _ArgTypes>
    class function<_Res(_ArgTypes...)>
   d70ee:	a801      	add	r0, sp, #4
   d70f0:	f7ff f92e 	bl	d6350 <_ZNSt14_Function_baseD1Ev>
        spark_process();
    }

    // Asynchronously invokes a callback in the application context
    static bool invokeApplicationCallback(void (*callback)(void* data), void* data) {
        return (application_thread_invoke(callback, data, nullptr) == 0);
   d70f4:	2200      	movs	r2, #0
   d70f6:	4629      	mov	r1, r5
   d70f8:	4807      	ldr	r0, [pc, #28]	; (d7118 <_ZN8particle6detail14FutureImplBaseIbNS0_13FutureContextEE14invokeCallbackIFvRKbEIRbEEEvRSt6atomicIPSt8functionIT_EEDpOT0_+0xac>)
   d70fa:	f7ff f8c3 	bl	d6284 <application_thread_invoke>
   d70fe:	4630      	mov	r0, r6
   d7100:	f7ff f926 	bl	d6350 <_ZNSt14_Function_baseD1Ev>
    template<typename FunctionT, typename... ArgsT>
    static void invokeCallback(std::atomic<std::function<FunctionT>*>& wrapper, ArgsT&&... args) {
        std::function<FunctionT>* callbackPtr = wrapper.exchange(nullptr, std::memory_order_acq_rel);
        if (callbackPtr) {
            invokeCallback(*callbackPtr, std::forward<ArgsT>(args)...);
            delete callbackPtr;
   d7104:	2110      	movs	r1, #16
   d7106:	4630      	mov	r0, r6
   d7108:	f000 fc76 	bl	d79f8 <_ZdlPvj>
        }
    }
   d710c:	b007      	add	sp, #28
   d710e:	bdf0      	pop	{r4, r5, r6, r7, pc}
   d7110:	000d6d57 	.word	0x000d6d57
   d7114:	000d7025 	.word	0x000d7025
   d7118:	000d68b3 	.word	0x000d68b3

000d711c <_ZN12_GLOBAL__N_125publishCompletionCallbackEiPKvPvS2_>:

namespace {

using namespace particle;

void publishCompletionCallback(int error, const void* data, void* callbackData, void* reserved) {
   d711c:	b530      	push	{r4, r5, lr}
   d711e:	b085      	sub	sp, #20
   d7120:	4604      	mov	r4, r0
   d7122:	460d      	mov	r5, r1
    auto p = Promise<bool>::fromDataPtr(callbackData);
   d7124:	4668      	mov	r0, sp
   d7126:	4611      	mov	r1, r2
   d7128:	f7ff fdb9 	bl	d6c9e <_ZN8particle11PromiseBaseIbNS_6detail13FutureContextEE11fromDataPtrEPv>
    if (error != Error::NONE) {
   d712c:	b17c      	cbz	r4, d714e <_ZN12_GLOBAL__N_125publishCompletionCallbackEiPKvPvS2_+0x32>
        p.setError(Error((Error::Type)error, (const char*)data));
   d712e:	b224      	sxth	r4, r4
   d7130:	4628      	mov	r0, r5
   d7132:	b10d      	cbz	r5, d7138 <_ZN12_GLOBAL__N_125publishCompletionCallbackEiPKvPvS2_+0x1c>
   d7134:	f001 fd62 	bl	d8bfc <strdup>
   d7138:	9002      	str	r0, [sp, #8]
   d713a:	a902      	add	r1, sp, #8
   d713c:	4668      	mov	r0, sp
   d713e:	f8ad 400c 	strh.w	r4, [sp, #12]
   d7142:	f7ff fe1f 	bl	d6d84 <_ZN8particle11PromiseBaseIbNS_6detail13FutureContextEE8setErrorENS_5ErrorE>
   d7146:	a802      	add	r0, sp, #8
   d7148:	f7ff fd6e 	bl	d6c28 <_ZN8particle5ErrorD1Ev>
   d714c:	e01d      	b.n	d718a <_ZN12_GLOBAL__N_125publishCompletionCallbackEiPKvPvS2_+0x6e>
   d714e:	9800      	ldr	r0, [sp, #0]
            onSuccess_(nullptr),
            onError_(nullptr) {
    }

    bool changeState(State state) {
        State s = State::RUNNING; // Expected state
   d7150:	f88d 4008 	strb.w	r4, [sp, #8]

      bool
      compare_exchange_strong(_Tp& __e, _Tp __i, memory_order __s, 
			      memory_order __f) noexcept
      {
	return __atomic_compare_exchange(&_M_i, &__e, &__i, false, __s, __f);
   d7154:	f04f 0201 	mov.w	r2, #1
   d7158:	e8d0 3f4f 	ldrexb	r3, [r0]
   d715c:	42a3      	cmp	r3, r4
   d715e:	d103      	bne.n	d7168 <_ZN12_GLOBAL__N_125publishCompletionCallbackEiPKvPvS2_+0x4c>
   d7160:	e8c0 2f41 	strexb	r1, r2, [r0]
   d7164:	2900      	cmp	r1, #0
   d7166:	d1f7      	bne.n	d7158 <_ZN12_GLOBAL__N_125publishCompletionCallbackEiPKvPvS2_+0x3c>
   d7168:	d002      	beq.n	d7170 <_ZN12_GLOBAL__N_125publishCompletionCallbackEiPKvPvS2_+0x54>
   d716a:	f88d 3008 	strb.w	r3, [sp, #8]
   d716e:	e00c      	b.n	d718a <_ZN12_GLOBAL__N_125publishCompletionCallbackEiPKvPvS2_+0x6e>
        }
    }

    void setResult(ResultT result) {
        if (this->changeState(State::SUCCEEDED)) {
            new(&result_) ResultT(std::move(result));
   d7170:	f110 010c 	adds.w	r1, r0, #12
   d7174:	f04f 0301 	mov.w	r3, #1
   d7178:	bf18      	it	ne
   d717a:	7303      	strbne	r3, [r0, #12]
        memory_order __b = __m & __memory_order_mask;
	__glibcxx_assert(__b != memory_order_acquire);
	__glibcxx_assert(__b != memory_order_acq_rel);
	__glibcxx_assert(__b != memory_order_consume);

	__atomic_store_n(&_M_i, __i, __m);
   d717c:	f3bf 8f5f 	dmb	sy
            this->releaseDone();
            this->invokeCallback(this->onSuccess_, result_);
   d7180:	3004      	adds	r0, #4
   d7182:	f800 3c03 	strb.w	r3, [r0, #-3]
   d7186:	f7ff ff71 	bl	d706c <_ZN8particle6detail14FutureImplBaseIbNS0_13FutureContextEE14invokeCallbackIFvRKbEIRbEEEvRSt6atomicIPSt8functionIT_EEDpOT0_>
   d718a:	a801      	add	r0, sp, #4
   d718c:	f7fd f8ee 	bl	d436c <_ZNSt14__shared_countILN9__gnu_cxx12_Lock_policyE0EED1Ev>
    } else {
        p.setResult(true);
    }
}
   d7190:	b005      	add	sp, #20
   d7192:	bd30      	pop	{r4, r5, pc}

000d7194 <serialEventRun>:

/**
 * Provides background processing of serial data.
 */
void serialEventRun()
{
   d7194:	b508      	push	{r3, lr}
    if (serialEvent && Serial.available()>0)
   d7196:	4b0c      	ldr	r3, [pc, #48]	; (d71c8 <serialEventRun+0x34>)
   d7198:	b133      	cbz	r3, d71a8 <serialEventRun+0x14>
   d719a:	f7ff fc8f 	bl	d6abc <_Z16_fetch_usbserialv>
   d719e:	6803      	ldr	r3, [r0, #0]
   d71a0:	691b      	ldr	r3, [r3, #16]
   d71a2:	4798      	blx	r3
   d71a4:	2800      	cmp	r0, #0
   d71a6:	dc09      	bgt.n	d71bc <serialEventRun+0x28>
        serialEvent();

    if (serialEvent1 && Serial1.available()>0)
   d71a8:	4b08      	ldr	r3, [pc, #32]	; (d71cc <serialEventRun+0x38>)
   d71aa:	b163      	cbz	r3, d71c6 <serialEventRun+0x32>
   d71ac:	f7ff fbf6 	bl	d699c <_Z22__fetch_global_Serial1v>
   d71b0:	6803      	ldr	r3, [r0, #0]
   d71b2:	691b      	ldr	r3, [r3, #16]
   d71b4:	4798      	blx	r3
   d71b6:	2800      	cmp	r0, #0
   d71b8:	dc03      	bgt.n	d71c2 <serialEventRun+0x2e>
   d71ba:	bd08      	pop	{r3, pc}
 * Provides background processing of serial data.
 */
void serialEventRun()
{
    if (serialEvent && Serial.available()>0)
        serialEvent();
   d71bc:	f3af 8000 	nop.w
   d71c0:	e7f2      	b.n	d71a8 <serialEventRun+0x14>

    if (serialEvent1 && Serial1.available()>0)
        serialEvent1();
   d71c2:	f3af 8000 	nop.w
   d71c6:	bd08      	pop	{r3, pc}
	...

000d71d0 <_post_loop>:
#if Wiring_Serial5
void serialEvent5() __attribute__((weak));
#endif

void _post_loop()
{
   d71d0:	b508      	push	{r3, lr}
	serialEventRun();
   d71d2:	f7ff ffdf 	bl	d7194 <serialEventRun>
		return !timeout_fn;
	}

	static inline system_tick_t current_time()
	{
		return HAL_Timer_Get_Milli_Seconds();
   d71d6:	f7fe ff0d 	bl	d5ff4 <HAL_Timer_Get_Milli_Seconds>
	/**
	 * Lifesign that the application is still working normally.
	 */
	static void checkin()
	{
		last_checkin = current_time();
   d71da:	4b01      	ldr	r3, [pc, #4]	; (d71e0 <_post_loop+0x10>)
   d71dc:	6018      	str	r0, [r3, #0]
   d71de:	bd08      	pop	{r3, pc}
   d71e0:	2003e73c 	.word	0x2003e73c

000d71e4 <_Z33system_initialize_user_backup_ramv>:
 * the dynamically linked application module.
 */
void system_initialize_user_backup_ram()
{
    size_t len = &link_global_retained_end-&link_global_retained_start;
    memcpy(&link_global_retained_start, &link_global_retained_initial_values, len);
   d71e4:	4802      	ldr	r0, [pc, #8]	; (d71f0 <_Z33system_initialize_user_backup_ramv+0xc>)
   d71e6:	4a03      	ldr	r2, [pc, #12]	; (d71f4 <_Z33system_initialize_user_backup_ramv+0x10>)
   d71e8:	4903      	ldr	r1, [pc, #12]	; (d71f8 <_Z33system_initialize_user_backup_ramv+0x14>)
   d71ea:	1a12      	subs	r2, r2, r0
   d71ec:	f001 bcc2 	b.w	d8b74 <memcpy>
   d71f0:	2003f400 	.word	0x2003f400
   d71f4:	2003f404 	.word	0x2003f404
   d71f8:	000d9720 	.word	0x000d9720

000d71fc <_Z27ctrl_request_custom_handlerP12ctrl_request>:
bool __backup_ram_was_valid() { return false; }

#endif

// Default handler for CTRL_REQUEST_APP_CUSTOM requests
void __attribute((weak)) ctrl_request_custom_handler(ctrl_request* req) {
   d71fc:	b507      	push	{r0, r1, r2, lr}
    system_ctrl_set_result(req, SYSTEM_ERROR_NOT_SUPPORTED, nullptr, nullptr, nullptr);
   d71fe:	2300      	movs	r3, #0
   d7200:	9300      	str	r3, [sp, #0]
   d7202:	461a      	mov	r2, r3
   d7204:	f06f 0177 	mvn.w	r1, #119	; 0x77
   d7208:	f7ff f84e 	bl	d62a8 <system_ctrl_set_result>
}
   d720c:	b003      	add	sp, #12
   d720e:	f85d fb04 	ldr.w	pc, [sp], #4
	...

000d7214 <_ZL20ctrl_request_handlerP12ctrl_request>:
// Callback invoked to process a logging configuration request
void(*log_process_ctrl_request_callback)(ctrl_request* req) = nullptr;
#endif

// Application handler for control requests
static void ctrl_request_handler(ctrl_request* req) {
   d7214:	b507      	push	{r0, r1, r2, lr}
    switch (req->type) {
   d7216:	8843      	ldrh	r3, [r0, #2]
   d7218:	2b0a      	cmp	r3, #10
   d721a:	d008      	beq.n	d722e <_ZL20ctrl_request_handlerP12ctrl_request+0x1a>
   d721c:	2b50      	cmp	r3, #80	; 0x50
   d721e:	d109      	bne.n	d7234 <_ZL20ctrl_request_handlerP12ctrl_request+0x20>
#if Wiring_LogConfig
    case CTRL_REQUEST_LOG_CONFIG: {
        if (log_process_ctrl_request_callback) {
   d7220:	4b09      	ldr	r3, [pc, #36]	; (d7248 <_ZL20ctrl_request_handlerP12ctrl_request+0x34>)
   d7222:	681b      	ldr	r3, [r3, #0]
   d7224:	b13b      	cbz	r3, d7236 <_ZL20ctrl_request_handlerP12ctrl_request+0x22>
    }
    default:
        system_ctrl_set_result(req, SYSTEM_ERROR_NOT_SUPPORTED, nullptr, nullptr, nullptr);
        break;
    }
}
   d7226:	b003      	add	sp, #12
   d7228:	f85d eb04 	ldr.w	lr, [sp], #4
static void ctrl_request_handler(ctrl_request* req) {
    switch (req->type) {
#if Wiring_LogConfig
    case CTRL_REQUEST_LOG_CONFIG: {
        if (log_process_ctrl_request_callback) {
            log_process_ctrl_request_callback(req);
   d722c:	4718      	bx	r3
        }
        break;
    }
#endif
    case CTRL_REQUEST_APP_CUSTOM: {
        ctrl_request_custom_handler(req);
   d722e:	f7ff ffe5 	bl	d71fc <_Z27ctrl_request_custom_handlerP12ctrl_request>
        break;
   d7232:	e006      	b.n	d7242 <_ZL20ctrl_request_handlerP12ctrl_request+0x2e>
    }
    default:
        system_ctrl_set_result(req, SYSTEM_ERROR_NOT_SUPPORTED, nullptr, nullptr, nullptr);
   d7234:	2300      	movs	r3, #0
   d7236:	9300      	str	r3, [sp, #0]
   d7238:	461a      	mov	r2, r3
   d723a:	f06f 0177 	mvn.w	r1, #119	; 0x77
   d723e:	f7ff f833 	bl	d62a8 <system_ctrl_set_result>
        break;
    }
}
   d7242:	b003      	add	sp, #12
   d7244:	f85d fb04 	ldr.w	pc, [sp], #4
   d7248:	2003e6ec 	.word	0x2003e6ec

000d724c <module_user_init_hook>:

void module_user_init_hook()
{
   d724c:	b538      	push	{r3, r4, r5, lr}
#if HAL_PLATFORM_BACKUP_RAM
    backup_ram_was_valid_ =  __backup_sram_signature==signature;
   d724e:	4c10      	ldr	r4, [pc, #64]	; (d7290 <module_user_init_hook+0x44>)
   d7250:	4d10      	ldr	r5, [pc, #64]	; (d7294 <module_user_init_hook+0x48>)
   d7252:	6823      	ldr	r3, [r4, #0]
   d7254:	42ab      	cmp	r3, r5
   d7256:	4b10      	ldr	r3, [pc, #64]	; (d7298 <module_user_init_hook+0x4c>)
   d7258:	bf0c      	ite	eq
   d725a:	2201      	moveq	r2, #1
   d725c:	2200      	movne	r2, #0
   d725e:	701a      	strb	r2, [r3, #0]
    if (!backup_ram_was_valid_) {
   d7260:	d002      	beq.n	d7268 <module_user_init_hook+0x1c>
        system_initialize_user_backup_ram();
   d7262:	f7ff ffbf 	bl	d71e4 <_Z33system_initialize_user_backup_ramv>
        __backup_sram_signature = signature;
   d7266:	6025      	str	r5, [r4, #0]
    }
#endif

#if HAL_PLATFORM_RNG
    // Initialize the default stdlib PRNG using hardware RNG as a seed
    const uint32_t seed = HAL_RNG_GetRandomNumber();
   d7268:	f7fe febc 	bl	d5fe4 <HAL_RNG_GetRandomNumber>
   d726c:	4604      	mov	r4, r0
    srand(seed);
   d726e:	f001 fc95 	bl	d8b9c <srand>

    // If the user defines random_seed_from_cloud, call it with a seed value
    // generated by a hardware RNG as well.
    if (random_seed_from_cloud) {
   d7272:	4b0a      	ldr	r3, [pc, #40]	; (d729c <module_user_init_hook+0x50>)
   d7274:	b113      	cbz	r3, d727c <module_user_init_hook+0x30>
        random_seed_from_cloud(seed);
   d7276:	4620      	mov	r0, r4
   d7278:	f3af 8000 	nop.w
    }
#endif
    // Register the random_seed_from_cloud handler
    spark_set_random_seed_from_cloud_handler(&random_seed_from_cloud, nullptr);
   d727c:	2100      	movs	r1, #0
   d727e:	4807      	ldr	r0, [pc, #28]	; (d729c <module_user_init_hook+0x50>)
   d7280:	f7fe ff90 	bl	d61a4 <spark_set_random_seed_from_cloud_handler>

    // Register application handler for the control requests
    system_ctrl_set_app_request_handler(ctrl_request_handler, nullptr);
   d7284:	2100      	movs	r1, #0
   d7286:	4806      	ldr	r0, [pc, #24]	; (d72a0 <module_user_init_hook+0x54>)
}
   d7288:	e8bd 4038 	ldmia.w	sp!, {r3, r4, r5, lr}
#endif
    // Register the random_seed_from_cloud handler
    spark_set_random_seed_from_cloud_handler(&random_seed_from_cloud, nullptr);

    // Register application handler for the control requests
    system_ctrl_set_app_request_handler(ctrl_request_handler, nullptr);
   d728c:	f7ff b802 	b.w	d6294 <system_ctrl_set_app_request_handler>
   d7290:	2003f400 	.word	0x2003f400
   d7294:	9a271c1e 	.word	0x9a271c1e
   d7298:	2003e6f0 	.word	0x2003e6f0
   d729c:	00000000 	.word	0x00000000
   d72a0:	000d7215 	.word	0x000d7215

000d72a4 <_ZN8RGBClassD1Ev>:
#include "rgbled.h"

typedef void (raw_rgb_change_handler_t)(uint8_t, uint8_t, uint8_t);
typedef std::function<raw_rgb_change_handler_t> wiring_rgb_change_handler_t;

class RGBClass {
   d72a4:	b510      	push	{r4, lr}
   d72a6:	4604      	mov	r4, r0
   d72a8:	f7ff f852 	bl	d6350 <_ZNSt14_Function_baseD1Ev>
   d72ac:	4620      	mov	r0, r4
   d72ae:	bd10      	pop	{r4, pc}

000d72b0 <_ZN8RGBClass7controlEb>:
{
    return LED_RGB_IsOverRidden();
}

void RGBClass::control(bool override)
{
   d72b0:	b510      	push	{r4, lr}
   d72b2:	4604      	mov	r4, r0

RGBClass RGB;

bool RGBClass::controlled(void)
{
    return LED_RGB_IsOverRidden();
   d72b4:	f7fe ff46 	bl	d6144 <LED_RGB_IsOverRidden>
}

void RGBClass::control(bool override)
{
    if (override == controlled()) {
   d72b8:	4284      	cmp	r4, r0
   d72ba:	d008      	beq.n	d72ce <_ZN8RGBClass7controlEb+0x1e>
        return;
    } else if (override) {
   d72bc:	b11c      	cbz	r4, d72c6 <_ZN8RGBClass7controlEb+0x16>
        LED_Signaling_Start();
    } else {
        LED_Signaling_Stop();
    }
}
   d72be:	e8bd 4010 	ldmia.w	sp!, {r4, lr}
void RGBClass::control(bool override)
{
    if (override == controlled()) {
        return;
    } else if (override) {
        LED_Signaling_Start();
   d72c2:	f7fe bf27 	b.w	d6114 <LED_Signaling_Start>
    } else {
        LED_Signaling_Stop();
    }
}
   d72c6:	e8bd 4010 	ldmia.w	sp!, {r4, lr}
    if (override == controlled()) {
        return;
    } else if (override) {
        LED_Signaling_Start();
    } else {
        LED_Signaling_Stop();
   d72ca:	f7fe bf2b 	b.w	d6124 <LED_Signaling_Stop>
   d72ce:	bd10      	pop	{r4, pc}

000d72d0 <_ZN8RGBClass5colorEiii>:
void RGBClass::color(uint32_t rgb) {
    color((rgb>>16)&0xFF, (rgb>>8)&0xFF, (rgb)&0xFF);
}

void RGBClass::color(int red, int green, int blue)
{
   d72d0:	b570      	push	{r4, r5, r6, lr}
   d72d2:	4605      	mov	r5, r0
   d72d4:	460e      	mov	r6, r1
   d72d6:	4614      	mov	r4, r2

RGBClass RGB;

bool RGBClass::controlled(void)
{
    return LED_RGB_IsOverRidden();
   d72d8:	f7fe ff34 	bl	d6144 <LED_RGB_IsOverRidden>
    color((rgb>>16)&0xFF, (rgb>>8)&0xFF, (rgb)&0xFF);
}

void RGBClass::color(int red, int green, int blue)
{
    if (!controlled()) {
   d72dc:	b150      	cbz	r0, d72f4 <_ZN8RGBClass5colorEiii+0x24>
        return;
    }
    LED_SetSignalingColor(red << 16 | green << 8 | blue);
   d72de:	ea44 2006 	orr.w	r0, r4, r6, lsl #8
   d72e2:	ea40 4005 	orr.w	r0, r0, r5, lsl #16
   d72e6:	f7fe ff0d 	bl	d6104 <LED_SetSignalingColor>
    LED_On(LED_RGB);
   d72ea:	20e7      	movs	r0, #231	; 0xe7
}
   d72ec:	e8bd 4070 	ldmia.w	sp!, {r4, r5, r6, lr}
{
    if (!controlled()) {
        return;
    }
    LED_SetSignalingColor(red << 16 | green << 8 | blue);
    LED_On(LED_RGB);
   d72f0:	f7fe bf30 	b.w	d6154 <LED_On>
   d72f4:	bd70      	pop	{r4, r5, r6, pc}

000d72f6 <_ZN8RGBClass10brightnessEhb>:
}

void RGBClass::brightness(uint8_t brightness, bool update)
{
   d72f6:	b510      	push	{r4, lr}
   d72f8:	460c      	mov	r4, r1
    LED_SetBrightness(brightness);
   d72fa:	f7fe ff1b 	bl	d6134 <LED_SetBrightness>

RGBClass RGB;

bool RGBClass::controlled(void)
{
    return LED_RGB_IsOverRidden();
   d72fe:	f7fe ff21 	bl	d6144 <LED_RGB_IsOverRidden>
}

void RGBClass::brightness(uint8_t brightness, bool update)
{
    LED_SetBrightness(brightness);
    if (controlled() && update) {
   d7302:	b128      	cbz	r0, d7310 <_ZN8RGBClass10brightnessEhb+0x1a>
   d7304:	b124      	cbz	r4, d7310 <_ZN8RGBClass10brightnessEhb+0x1a>
        LED_On(LED_RGB);
   d7306:	20e7      	movs	r0, #231	; 0xe7
    }
}
   d7308:	e8bd 4010 	ldmia.w	sp!, {r4, lr}

void RGBClass::brightness(uint8_t brightness, bool update)
{
    LED_SetBrightness(brightness);
    if (controlled() && update) {
        LED_On(LED_RGB);
   d730c:	f7fe bf22 	b.w	d6154 <LED_On>
   d7310:	bd10      	pop	{r4, pc}
	...

000d7314 <_GLOBAL__sub_I_RGB>:
	{
	  _Base::_M_init_functor(__functor, std::__addressof(__f.get()));
	}
      };

    _Function_base() : _M_manager(nullptr) { }
   d7314:	4803      	ldr	r0, [pc, #12]	; (d7324 <_GLOBAL__sub_I_RGB+0x10>)
#include "spark_wiring_rgb.h"
#include "spark_wiring_interrupts.h"

#include "core_hal.h"

RGBClass RGB;
   d7316:	4a04      	ldr	r2, [pc, #16]	; (d7328 <_GLOBAL__sub_I_RGB+0x14>)
   d7318:	4904      	ldr	r1, [pc, #16]	; (d732c <_GLOBAL__sub_I_RGB+0x18>)
   d731a:	2300      	movs	r3, #0
   d731c:	6083      	str	r3, [r0, #8]
   d731e:	f000 bb5e 	b.w	d79de <__aeabi_atexit>
   d7322:	bf00      	nop
   d7324:	2003e6f4 	.word	0x2003e6f4
   d7328:	2003d620 	.word	0x2003d620
   d732c:	000d72a5 	.word	0x000d72a5

000d7330 <delay>:
    return (value - fromStart) * (toEnd - toStart) / (fromEnd - fromStart) + toStart;
}

void delay(unsigned long ms)
{
    system_delay_ms(ms, false);
   d7330:	2100      	movs	r1, #0
   d7332:	f7fe bf97 	b.w	d6264 <system_delay_ms>
	...

000d7338 <_GLOBAL__sub_I_TIME_FORMAT_DEFAULT>:
            calendar_time_cache = Convert_UnixTime_To_CalendarTime(unix_time);
            unix_time_cache = unix_time;
    }
}

const char* TimeClass::format_spec = TIME_FORMAT_DEFAULT;
   d7338:	4b02      	ldr	r3, [pc, #8]	; (d7344 <_GLOBAL__sub_I_TIME_FORMAT_DEFAULT+0xc>)
   d733a:	681a      	ldr	r2, [r3, #0]
   d733c:	4b02      	ldr	r3, [pc, #8]	; (d7348 <_GLOBAL__sub_I_TIME_FORMAT_DEFAULT+0x10>)
   d733e:	601a      	str	r2, [r3, #0]
   d7340:	4770      	bx	lr
   d7342:	bf00      	nop
   d7344:	2003d5b4 	.word	0x2003d5b4
   d7348:	2003e704 	.word	0x2003e704

000d734c <_GLOBAL__sub_I__ZN5spark3LogE>:
    // This handler doesn't support direct logging
}

// spark::Logger
inline spark::Logger::Logger(const char *name) :
        name_(name) {
   d734c:	4b01      	ldr	r3, [pc, #4]	; (d7354 <_GLOBAL__sub_I__ZN5spark3LogE+0x8>)
   d734e:	4a02      	ldr	r2, [pc, #8]	; (d7358 <_GLOBAL__sub_I__ZN5spark3LogE+0xc>)
   d7350:	601a      	str	r2, [r3, #0]
   d7352:	4770      	bx	lr
   d7354:	2003e708 	.word	0x2003e708
   d7358:	000d95a2 	.word	0x000d95a2

000d735c <_ZN6Stream9timedReadEv>:
#define PARSE_TIMEOUT 1000  // default number of milli-seconds to wait
#define NO_SKIP_CHAR  1  // a magic char not found in a valid ASCII numeric field

// private method to read stream with timeout
int Stream::timedRead()
{
   d735c:	b510      	push	{r4, lr}
   d735e:	4604      	mov	r4, r0

#ifdef __cplusplus
extern "C" {
#endif

inline system_tick_t millis(void) { return HAL_Timer_Get_Milli_Seconds(); }
   d7360:	f7fe fe48 	bl	d5ff4 <HAL_Timer_Get_Milli_Seconds>
  int c;
  _startMillis = millis();
   d7364:	60e0      	str	r0, [r4, #12]
  do {
    c = read();
   d7366:	6823      	ldr	r3, [r4, #0]
   d7368:	4620      	mov	r0, r4
   d736a:	695b      	ldr	r3, [r3, #20]
   d736c:	4798      	blx	r3
    if (c >= 0) return c;
   d736e:	2800      	cmp	r0, #0
   d7370:	da08      	bge.n	d7384 <_ZN6Stream9timedReadEv+0x28>
   d7372:	f7fe fe3f 	bl	d5ff4 <HAL_Timer_Get_Milli_Seconds>
// private method to read stream with timeout
int Stream::timedRead()
{
  int c;
  _startMillis = millis();
  do {
   d7376:	68e3      	ldr	r3, [r4, #12]
   d7378:	1ac0      	subs	r0, r0, r3
   d737a:	68a3      	ldr	r3, [r4, #8]
   d737c:	4298      	cmp	r0, r3
   d737e:	d3f2      	bcc.n	d7366 <_ZN6Stream9timedReadEv+0xa>
    c = read();
    if (c >= 0) return c;
  } while(millis() - _startMillis < _timeout);
  return -1;     // -1 indicates timeout
   d7380:	f04f 30ff 	mov.w	r0, #4294967295
}
   d7384:	bd10      	pop	{r4, pc}

000d7386 <_ZN6Stream10setTimeoutEm>:
// Public Methods
//////////////////////////////////////////////////////////////

void Stream::setTimeout(system_tick_t timeout)  // sets the maximum number of milliseconds to wait
{
  _timeout = timeout;
   d7386:	6081      	str	r1, [r0, #8]
   d7388:	4770      	bx	lr
	...

000d738c <_ZN6Stream15readStringUntilEc>:
  }
  return ret;
}

String Stream::readStringUntil(char terminator)
{
   d738c:	b570      	push	{r4, r5, r6, lr}
   d738e:	460d      	mov	r5, r1
  String ret;
   d7390:	4909      	ldr	r1, [pc, #36]	; (d73b8 <_ZN6Stream15readStringUntilEc+0x2c>)
  }
  return ret;
}

String Stream::readStringUntil(char terminator)
{
   d7392:	4604      	mov	r4, r0
   d7394:	4616      	mov	r6, r2
  String ret;
   d7396:	f000 f912 	bl	d75be <_ZN6StringC1EPK19__FlashStringHelper>
  int c = timedRead();
   d739a:	4628      	mov	r0, r5
   d739c:	f7ff ffde 	bl	d735c <_ZN6Stream9timedReadEv>
  while (c >= 0 && c != terminator)
   d73a0:	2800      	cmp	r0, #0
   d73a2:	db06      	blt.n	d73b2 <_ZN6Stream15readStringUntilEc+0x26>
   d73a4:	42b0      	cmp	r0, r6
   d73a6:	d004      	beq.n	d73b2 <_ZN6Stream15readStringUntilEc+0x26>

	// if there's not enough memory for the concatenated value, the string
	// will be left unchanged (but this isn't signalled in any way)
	String & operator += (const String &rhs)	{concat(rhs); return (*this);}
	String & operator += (const char *cstr)		{concat(cstr); return (*this);}
	String & operator += (char c)			{concat(c); return (*this);}
   d73a8:	b2c1      	uxtb	r1, r0
   d73aa:	4620      	mov	r0, r4
   d73ac:	f000 f956 	bl	d765c <_ZN6String6concatEc>
   d73b0:	e7f3      	b.n	d739a <_ZN6Stream15readStringUntilEc+0xe>
  {
    ret += (char)c;
    c = timedRead();
  }
  return ret;
}
   d73b2:	4620      	mov	r0, r4
   d73b4:	bd70      	pop	{r4, r5, r6, pc}
   d73b6:	bf00      	nop
   d73b8:	000d8f7f 	.word	0x000d8f7f

000d73bc <_ZN5Print5writeEPKhj>:

// Public Methods //////////////////////////////////////////////////////////////

/* default implementation: may be overridden */
size_t Print::write(const uint8_t *buffer, size_t size)
{
   d73bc:	b5f8      	push	{r3, r4, r5, r6, r7, lr}
   d73be:	4606      	mov	r6, r0
   d73c0:	460d      	mov	r5, r1
   d73c2:	188f      	adds	r7, r1, r2
  size_t n = 0;
   d73c4:	2400      	movs	r4, #0
  while (size--) {
   d73c6:	42bd      	cmp	r5, r7
   d73c8:	d00c      	beq.n	d73e4 <_ZN5Print5writeEPKhj+0x28>
     int chunk = write(*buffer++);
   d73ca:	6833      	ldr	r3, [r6, #0]
   d73cc:	f815 1b01 	ldrb.w	r1, [r5], #1
   d73d0:	689b      	ldr	r3, [r3, #8]
   d73d2:	4630      	mov	r0, r6
   d73d4:	4798      	blx	r3
     if (chunk>=0)
   d73d6:	2800      	cmp	r0, #0
   d73d8:	db01      	blt.n	d73de <_ZN5Print5writeEPKhj+0x22>
         n += chunk;
   d73da:	4404      	add	r4, r0

/* default implementation: may be overridden */
size_t Print::write(const uint8_t *buffer, size_t size)
{
  size_t n = 0;
  while (size--) {
   d73dc:	e7f3      	b.n	d73c6 <_ZN5Print5writeEPKhj+0xa>
     int chunk = write(*buffer++);
   d73de:	2c00      	cmp	r4, #0
   d73e0:	bf08      	it	eq
   d73e2:	4604      	moveq	r4, r0
             n = chunk;
         break;
     }
  }
  return n;
}
   d73e4:	4620      	mov	r0, r4
   d73e6:	bdf8      	pop	{r3, r4, r5, r6, r7, pc}

000d73e8 <_ZN5Print5writeEPKc>:

    int getWriteError() { return write_error; }
    void clearWriteError() { setWriteError(0); }

    virtual size_t write(uint8_t) = 0;
    size_t write(const char *str) {
   d73e8:	b570      	push	{r4, r5, r6, lr}
   d73ea:	4605      	mov	r5, r0
      if (str == NULL) return 0;
   d73ec:	460c      	mov	r4, r1
      return write((const uint8_t *)str, strlen(str));
    }
   d73ee:	4608      	mov	r0, r1
    int getWriteError() { return write_error; }
    void clearWriteError() { setWriteError(0); }

    virtual size_t write(uint8_t) = 0;
    size_t write(const char *str) {
      if (str == NULL) return 0;
   d73f0:	b149      	cbz	r1, d7406 <_ZN5Print5writeEPKc+0x1e>
      return write((const uint8_t *)str, strlen(str));
   d73f2:	f001 fc1e 	bl	d8c32 <strlen>
   d73f6:	682b      	ldr	r3, [r5, #0]
   d73f8:	4602      	mov	r2, r0
   d73fa:	4621      	mov	r1, r4
   d73fc:	4628      	mov	r0, r5
   d73fe:	68db      	ldr	r3, [r3, #12]
    }
   d7400:	e8bd 4070 	ldmia.w	sp!, {r4, r5, r6, lr}
    void clearWriteError() { setWriteError(0); }

    virtual size_t write(uint8_t) = 0;
    size_t write(const char *str) {
      if (str == NULL) return 0;
      return write((const uint8_t *)str, strlen(str));
   d7404:	4718      	bx	r3
    }
   d7406:	bd70      	pop	{r4, r5, r6, pc}

000d7408 <_ZN5Print5printEPKc>:
   d7408:	b508      	push	{r3, lr}
   d740a:	f7ff ffed 	bl	d73e8 <_ZN5Print5writeEPKc>
   d740e:	bd08      	pop	{r3, pc}

000d7410 <_ZN5Print5printEc>:
  return write(str);
}

size_t Print::print(char c)
{
  return write(c);
   d7410:	6803      	ldr	r3, [r0, #0]
   d7412:	689b      	ldr	r3, [r3, #8]
   d7414:	4718      	bx	r3

000d7416 <_ZN5Print7printlnEv>:
{
  return print(reinterpret_cast<const char*>(str));
}

size_t Print::println(void)
{
   d7416:	b538      	push	{r3, r4, r5, lr}
  size_t n = print('\r');
   d7418:	210d      	movs	r1, #13
{
  return print(reinterpret_cast<const char*>(str));
}

size_t Print::println(void)
{
   d741a:	4605      	mov	r5, r0
  size_t n = print('\r');
   d741c:	f7ff fff8 	bl	d7410 <_ZN5Print5printEc>
  n += print('\n');
   d7420:	210a      	movs	r1, #10
  return print(reinterpret_cast<const char*>(str));
}

size_t Print::println(void)
{
  size_t n = print('\r');
   d7422:	4604      	mov	r4, r0
  n += print('\n');
   d7424:	4628      	mov	r0, r5
   d7426:	f7ff fff3 	bl	d7410 <_ZN5Print5printEc>
  return n;
}
   d742a:	4420      	add	r0, r4
   d742c:	bd38      	pop	{r3, r4, r5, pc}

000d742e <_ZN5Print7printlnEPKc>:

size_t Print::println(const char c[])
{
   d742e:	b538      	push	{r3, r4, r5, lr}
   d7430:	4605      	mov	r5, r0
  return n;
}

size_t Print::print(const char str[])
{
  return write(str);
   d7432:	f7ff ffd9 	bl	d73e8 <_ZN5Print5writeEPKc>
   d7436:	4604      	mov	r4, r0
}

size_t Print::println(const char c[])
{
  size_t n = print(c);
  n += println();
   d7438:	4628      	mov	r0, r5
   d743a:	f7ff ffec 	bl	d7416 <_ZN5Print7printlnEv>
  return n;
}
   d743e:	4420      	add	r0, r4
   d7440:	bd38      	pop	{r3, r4, r5, pc}

000d7442 <_ZN5Print11printNumberEmh>:
  return println(reinterpret_cast<const char*>(str));
}

// Private Methods /////////////////////////////////////////////////////////////

size_t Print::printNumber(unsigned long n, uint8_t base) {
   d7442:	b530      	push	{r4, r5, lr}
   d7444:	b08b      	sub	sp, #44	; 0x2c
   d7446:	460b      	mov	r3, r1
  char buf[8 * sizeof(n) + 1]; // Assumes 8-bit chars plus zero byte.
  char *str = &buf[sizeof(buf) - 1];

  *str = '\0';
   d7448:	2100      	movs	r1, #0
   d744a:	f88d 1024 	strb.w	r1, [sp, #36]	; 0x24

  // prevent crash if called with base == 1
  if (base < 2) base = 10;
   d744e:	2a01      	cmp	r2, #1
   d7450:	bf98      	it	ls
   d7452:	220a      	movls	r2, #10
   d7454:	f10d 0423 	add.w	r4, sp, #35	; 0x23

  do {
   decltype(n) m = n;
   n /= base;
   d7458:	fbb3 f5f2 	udiv	r5, r3, r2
   char c = m - base * n;
   d745c:	fb05 3312 	mls	r3, r5, r2, r3
   d7460:	f003 03ff 	and.w	r3, r3, #255	; 0xff
   *--str = c < 10 ? c + '0' : c + 'A' - 10;
   d7464:	2b09      	cmp	r3, #9
   d7466:	bf94      	ite	ls
   d7468:	3330      	addls	r3, #48	; 0x30
   d746a:	3337      	addhi	r3, #55	; 0x37
   d746c:	b2db      	uxtb	r3, r3
   d746e:	4621      	mov	r1, r4
   d7470:	f804 3901 	strb.w	r3, [r4], #-1
   d7474:	462b      	mov	r3, r5
  *str = '\0';

  // prevent crash if called with base == 1
  if (base < 2) base = 10;

  do {
   d7476:	2d00      	cmp	r5, #0
   d7478:	d1ee      	bne.n	d7458 <_ZN5Print11printNumberEmh+0x16>
   n /= base;
   char c = m - base * n;
   *--str = c < 10 ? c + '0' : c + 'A' - 10;
  } while(n);

  return write(str);
   d747a:	f7ff ffb5 	bl	d73e8 <_ZN5Print5writeEPKc>
}
   d747e:	b00b      	add	sp, #44	; 0x2c
   d7480:	bd30      	pop	{r4, r5, pc}

000d7482 <_ZN5Print11printf_implEbPKcz>:

  return n;
}

size_t Print::printf_impl(bool newline, const char* format, ...)
{
   d7482:	b40c      	push	{r2, r3}
   d7484:	e92d 43f0 	stmdb	sp!, {r4, r5, r6, r7, r8, r9, lr}
   d7488:	b087      	sub	sp, #28
   d748a:	af00      	add	r7, sp, #0
   d748c:	f107 0438 	add.w	r4, r7, #56	; 0x38
   d7490:	4605      	mov	r5, r0
   d7492:	f854 9b04 	ldr.w	r9, [r4], #4
    const int bufsize = 20;
    char test[bufsize];
    va_list marker;
    va_start(marker, format);
   d7496:	603c      	str	r4, [r7, #0]

  return n;
}

size_t Print::printf_impl(bool newline, const char* format, ...)
{
   d7498:	460e      	mov	r6, r1
    const int bufsize = 20;
    char test[bufsize];
    va_list marker;
    va_start(marker, format);
    size_t n = vsnprintf(test, bufsize, format, marker);
   d749a:	4623      	mov	r3, r4
   d749c:	464a      	mov	r2, r9
   d749e:	2114      	movs	r1, #20
   d74a0:	1d38      	adds	r0, r7, #4
   d74a2:	f7fe ff35 	bl	d6310 <vsnprintf>
    va_end(marker);

    if (n<bufsize)
   d74a6:	2813      	cmp	r0, #19
   d74a8:	d805      	bhi.n	d74b6 <_ZN5Print11printf_implEbPKcz+0x34>
  return n;
}

size_t Print::print(const char str[])
{
  return write(str);
   d74aa:	1d39      	adds	r1, r7, #4
   d74ac:	4628      	mov	r0, r5
   d74ae:	f7ff ff9b 	bl	d73e8 <_ZN5Print5writeEPKc>
   d74b2:	4604      	mov	r4, r0
   d74b4:	e013      	b.n	d74de <_ZN5Print11printf_implEbPKcz+0x5c>
    {
        n = print(test);
    }
    else
    {
        char bigger[n+1];
   d74b6:	f100 0308 	add.w	r3, r0, #8
   d74ba:	f023 0307 	bic.w	r3, r3, #7
        va_start(marker, format);
        n = vsnprintf(bigger, n+1, format, marker);
        va_end(marker);
        n = print(bigger);
   d74be:	46e8      	mov	r8, sp
    {
        n = print(test);
    }
    else
    {
        char bigger[n+1];
   d74c0:	ebad 0d03 	sub.w	sp, sp, r3
        va_start(marker, format);
        n = vsnprintf(bigger, n+1, format, marker);
   d74c4:	1c41      	adds	r1, r0, #1
   d74c6:	4623      	mov	r3, r4
   d74c8:	464a      	mov	r2, r9
   d74ca:	4668      	mov	r0, sp
        n = print(test);
    }
    else
    {
        char bigger[n+1];
        va_start(marker, format);
   d74cc:	603c      	str	r4, [r7, #0]
        n = vsnprintf(bigger, n+1, format, marker);
   d74ce:	f7fe ff1f 	bl	d6310 <vsnprintf>
  return n;
}

size_t Print::print(const char str[])
{
  return write(str);
   d74d2:	4669      	mov	r1, sp
   d74d4:	4628      	mov	r0, r5
   d74d6:	f7ff ff87 	bl	d73e8 <_ZN5Print5writeEPKc>
   d74da:	4604      	mov	r4, r0
   d74dc:	46c5      	mov	sp, r8
        va_start(marker, format);
        n = vsnprintf(bigger, n+1, format, marker);
        va_end(marker);
        n = print(bigger);
    }
    if (newline)
   d74de:	b11e      	cbz	r6, d74e8 <_ZN5Print11printf_implEbPKcz+0x66>
        n += println();
   d74e0:	4628      	mov	r0, r5
   d74e2:	f7ff ff98 	bl	d7416 <_ZN5Print7printlnEv>
   d74e6:	4404      	add	r4, r0
    return n;
}
   d74e8:	4620      	mov	r0, r4
   d74ea:	371c      	adds	r7, #28
   d74ec:	46bd      	mov	sp, r7
   d74ee:	e8bd 43f0 	ldmia.w	sp!, {r4, r5, r6, r7, r8, r9, lr}
   d74f2:	b002      	add	sp, #8
   d74f4:	4770      	bx	lr

000d74f6 <_ZN14RecursiveMutexD1Ev>:
    }

    ~RecursiveMutex() {
   d74f6:	b510      	push	{r4, lr}
   d74f8:	4604      	mov	r4, r0
        dispose();
    }

    void dispose()
    {
        if (handle_) {
   d74fa:	6800      	ldr	r0, [r0, #0]
   d74fc:	b108      	cbz	r0, d7502 <_ZN14RecursiveMutexD1Ev+0xc>
            os_mutex_recursive_destroy(handle_);
   d74fe:	f7fe fd61 	bl	d5fc4 <os_mutex_recursive_destroy>
        os_mutex_recursive_create(&handle_);
    }

    ~RecursiveMutex() {
        dispose();
    }
   d7502:	4620      	mov	r0, r4
   d7504:	bd10      	pop	{r4, pc}
	...

000d7508 <_GLOBAL__sub_I__ZN8particle3ble13WiringBleLock6mutex_E>:
BleCharacteristic BleLocalDevice::addCharacteristic(const String& desc, EnumFlags<BleCharacteristicProperty> properties, BleOnDataReceivedCallback callback, void* context) {
    WiringBleLock lk;
    return addCharacteristic(desc.c_str(), properties, callback, context);
}

} /* namespace particle */
   d7508:	b510      	push	{r4, lr}
    /**
     * Creates a shared mutex.
     */
    RecursiveMutex(os_mutex_recursive_t handle) : handle_(handle) {}

    RecursiveMutex() : handle_(nullptr)
   d750a:	4c06      	ldr	r4, [pc, #24]	; (d7524 <_GLOBAL__sub_I__ZN8particle3ble13WiringBleLock6mutex_E+0x1c>)
   d750c:	2300      	movs	r3, #0
    {
        os_mutex_recursive_create(&handle_);
   d750e:	4620      	mov	r0, r4
    /**
     * Creates a shared mutex.
     */
    RecursiveMutex(os_mutex_recursive_t handle) : handle_(handle) {}

    RecursiveMutex() : handle_(nullptr)
   d7510:	6023      	str	r3, [r4, #0]
    {
        os_mutex_recursive_create(&handle_);
   d7512:	f7fe fd4f 	bl	d5fb4 <os_mutex_recursive_create>
private:
    bool locked_;
    static RecursiveMutex mutex_;
};

RecursiveMutex WiringBleLock::mutex_;
   d7516:	4620      	mov	r0, r4
   d7518:	4a03      	ldr	r2, [pc, #12]	; (d7528 <_GLOBAL__sub_I__ZN8particle3ble13WiringBleLock6mutex_E+0x20>)
   d751a:	4904      	ldr	r1, [pc, #16]	; (d752c <_GLOBAL__sub_I__ZN8particle3ble13WiringBleLock6mutex_E+0x24>)
BleCharacteristic BleLocalDevice::addCharacteristic(const String& desc, EnumFlags<BleCharacteristicProperty> properties, BleOnDataReceivedCallback callback, void* context) {
    WiringBleLock lk;
    return addCharacteristic(desc.c_str(), properties, callback, context);
}

} /* namespace particle */
   d751c:	e8bd 4010 	ldmia.w	sp!, {r4, lr}
private:
    bool locked_;
    static RecursiveMutex mutex_;
};

RecursiveMutex WiringBleLock::mutex_;
   d7520:	f000 ba5d 	b.w	d79de <__aeabi_atexit>
   d7524:	2003e70c 	.word	0x2003e70c
   d7528:	2003d620 	.word	0x2003d620
   d752c:	000d74f7 	.word	0x000d74f7

000d7530 <_ZN6StringD1Ev>:
	init();
	char buf[33];
	dtoa(value, decimalPlaces, buf);
        *this = buf;
}
String::~String()
   d7530:	b510      	push	{r4, lr}
   d7532:	4604      	mov	r4, r0
{
	free(buffer);
   d7534:	6800      	ldr	r0, [r0, #0]
   d7536:	f7fe fed3 	bl	d62e0 <free>
}
   d753a:	4620      	mov	r0, r4
   d753c:	bd10      	pop	{r4, pc}

000d753e <_ZN6String10invalidateEv>:
	len = 0;
	flags = 0;
}

void String::invalidate(void)
{
   d753e:	b510      	push	{r4, lr}
   d7540:	4604      	mov	r4, r0
	if (buffer) free(buffer);
   d7542:	6800      	ldr	r0, [r0, #0]
   d7544:	b108      	cbz	r0, d754a <_ZN6String10invalidateEv+0xc>
   d7546:	f7fe fecb 	bl	d62e0 <free>
	buffer = NULL;
   d754a:	2300      	movs	r3, #0
   d754c:	6023      	str	r3, [r4, #0]
	capacity = len = 0;
   d754e:	60a3      	str	r3, [r4, #8]
   d7550:	6063      	str	r3, [r4, #4]
   d7552:	bd10      	pop	{r4, pc}

000d7554 <_ZN6String12changeBufferEj>:
	}
	return 0;
}

unsigned char String::changeBuffer(unsigned int maxStrLen)
{
   d7554:	b538      	push	{r3, r4, r5, lr}
   d7556:	4604      	mov	r4, r0
   d7558:	460d      	mov	r5, r1
	char *newbuffer = (char *)realloc(buffer, maxStrLen + 1);
   d755a:	6800      	ldr	r0, [r0, #0]
   d755c:	3101      	adds	r1, #1
   d755e:	f7fe fec7 	bl	d62f0 <realloc>
	if (newbuffer) {
   d7562:	b110      	cbz	r0, d756a <_ZN6String12changeBufferEj+0x16>
		buffer = newbuffer;
		capacity = maxStrLen;
   d7564:	e884 0021 	stmia.w	r4, {r0, r5}
		return 1;
   d7568:	2001      	movs	r0, #1
	}
	return 0;
}
   d756a:	bd38      	pop	{r3, r4, r5, pc}

000d756c <_ZN6String7reserveEj>:
	buffer = NULL;
	capacity = len = 0;
}

unsigned char String::reserve(unsigned int size)
{
   d756c:	b510      	push	{r4, lr}
	if (buffer && capacity >= size) return 1;
   d756e:	6803      	ldr	r3, [r0, #0]
	buffer = NULL;
	capacity = len = 0;
}

unsigned char String::reserve(unsigned int size)
{
   d7570:	4604      	mov	r4, r0
	if (buffer && capacity >= size) return 1;
   d7572:	b113      	cbz	r3, d757a <_ZN6String7reserveEj+0xe>
   d7574:	6843      	ldr	r3, [r0, #4]
   d7576:	428b      	cmp	r3, r1
   d7578:	d207      	bcs.n	d758a <_ZN6String7reserveEj+0x1e>
	if (changeBuffer(size)) {
   d757a:	4620      	mov	r0, r4
   d757c:	f7ff ffea 	bl	d7554 <_ZN6String12changeBufferEj>
   d7580:	b120      	cbz	r0, d758c <_ZN6String7reserveEj+0x20>
		if (len == 0) buffer[0] = 0;
   d7582:	68a3      	ldr	r3, [r4, #8]
   d7584:	b90b      	cbnz	r3, d758a <_ZN6String7reserveEj+0x1e>
   d7586:	6822      	ldr	r2, [r4, #0]
   d7588:	7013      	strb	r3, [r2, #0]
   d758a:	2001      	movs	r0, #1
		return 1;
	}
	return 0;
}
   d758c:	bd10      	pop	{r4, pc}

000d758e <_ZN6String4copyEPKcj>:
/*********************************************/
/*  Copy and Move                            */
/*********************************************/

String & String::copy(const char *cstr, unsigned int length)
{
   d758e:	b570      	push	{r4, r5, r6, lr}
   d7590:	460e      	mov	r6, r1
	if (!reserve(length)) {
   d7592:	4611      	mov	r1, r2
/*********************************************/
/*  Copy and Move                            */
/*********************************************/

String & String::copy(const char *cstr, unsigned int length)
{
   d7594:	4604      	mov	r4, r0
   d7596:	4615      	mov	r5, r2
	if (!reserve(length)) {
   d7598:	f7ff ffe8 	bl	d756c <_ZN6String7reserveEj>
   d759c:	b918      	cbnz	r0, d75a6 <_ZN6String4copyEPKcj+0x18>
		invalidate();
   d759e:	4620      	mov	r0, r4
   d75a0:	f7ff ffcd 	bl	d753e <_ZN6String10invalidateEv>
		return *this;
   d75a4:	e009      	b.n	d75ba <_ZN6String4copyEPKcj+0x2c>
	}
	len = length;
	memcpy(buffer, cstr, length);
   d75a6:	462a      	mov	r2, r5
   d75a8:	4631      	mov	r1, r6
{
	if (!reserve(length)) {
		invalidate();
		return *this;
	}
	len = length;
   d75aa:	60a5      	str	r5, [r4, #8]
	memcpy(buffer, cstr, length);
   d75ac:	6820      	ldr	r0, [r4, #0]
   d75ae:	f001 fae1 	bl	d8b74 <memcpy>
	buffer[len] = 0;
   d75b2:	6822      	ldr	r2, [r4, #0]
   d75b4:	68a3      	ldr	r3, [r4, #8]
   d75b6:	2100      	movs	r1, #0
   d75b8:	54d1      	strb	r1, [r2, r3]
	return *this;
}
   d75ba:	4620      	mov	r0, r4
   d75bc:	bd70      	pop	{r4, r5, r6, pc}

000d75be <_ZN6StringC1EPK19__FlashStringHelper>:
{
	init();
	*this = value;
}

String::String(const __FlashStringHelper *pstr)
   d75be:	b538      	push	{r3, r4, r5, lr}
/*  Memory Management                        */
/*********************************************/

inline void String::init(void)
{
	buffer = NULL;
   d75c0:	2300      	movs	r3, #0
{
	init();
	*this = value;
}

String::String(const __FlashStringHelper *pstr)
   d75c2:	4604      	mov	r4, r0
/*  Memory Management                        */
/*********************************************/

inline void String::init(void)
{
	buffer = NULL;
   d75c4:	6003      	str	r3, [r0, #0]
	capacity = 0;
   d75c6:	6043      	str	r3, [r0, #4]
	len = 0;
   d75c8:	6083      	str	r3, [r0, #8]
	flags = 0;
   d75ca:	7303      	strb	r3, [r0, #12]

String::String(const __FlashStringHelper *pstr)
{
	init();
	const char* cstr = reinterpret_cast<const char*>(pstr);
	if (cstr) copy(cstr, strlen(cstr));
   d75cc:	460d      	mov	r5, r1
   d75ce:	b139      	cbz	r1, d75e0 <_ZN6StringC1EPK19__FlashStringHelper+0x22>
   d75d0:	4608      	mov	r0, r1
   d75d2:	f001 fb2e 	bl	d8c32 <strlen>
   d75d6:	4629      	mov	r1, r5
   d75d8:	4602      	mov	r2, r0
   d75da:	4620      	mov	r0, r4
   d75dc:	f7ff ffd7 	bl	d758e <_ZN6String4copyEPKcj>
}
   d75e0:	4620      	mov	r0, r4
   d75e2:	bd38      	pop	{r3, r4, r5, pc}

000d75e4 <_ZN6String4moveERS_>:
    return copy(reinterpret_cast<const char*>(pstr), length);
}

#ifdef __GXX_EXPERIMENTAL_CXX0X__
void String::move(String &rhs)
{
   d75e4:	b538      	push	{r3, r4, r5, lr}
   d75e6:	4605      	mov	r5, r0
	if (buffer) {
   d75e8:	6800      	ldr	r0, [r0, #0]
    return copy(reinterpret_cast<const char*>(pstr), length);
}

#ifdef __GXX_EXPERIMENTAL_CXX0X__
void String::move(String &rhs)
{
   d75ea:	460c      	mov	r4, r1
	if (buffer) {
   d75ec:	b160      	cbz	r0, d7608 <_ZN6String4moveERS_+0x24>
		if (capacity >= rhs.len) {
   d75ee:	686a      	ldr	r2, [r5, #4]
   d75f0:	688b      	ldr	r3, [r1, #8]
   d75f2:	429a      	cmp	r2, r3
   d75f4:	d306      	bcc.n	d7604 <_ZN6String4moveERS_+0x20>
			strcpy(buffer, rhs.buffer);
   d75f6:	6809      	ldr	r1, [r1, #0]
   d75f8:	f001 faf8 	bl	d8bec <strcpy>
			len = rhs.len;
   d75fc:	68a3      	ldr	r3, [r4, #8]
   d75fe:	60ab      	str	r3, [r5, #8]
			rhs.len = 0;
   d7600:	2300      	movs	r3, #0
   d7602:	e00a      	b.n	d761a <_ZN6String4moveERS_+0x36>
			return;
		} else {
			free(buffer);
   d7604:	f7fe fe6c 	bl	d62e0 <free>
		}
	}
	buffer = rhs.buffer;
   d7608:	6823      	ldr	r3, [r4, #0]
   d760a:	602b      	str	r3, [r5, #0]
	capacity = rhs.capacity;
   d760c:	6863      	ldr	r3, [r4, #4]
   d760e:	606b      	str	r3, [r5, #4]
	len = rhs.len;
   d7610:	68a3      	ldr	r3, [r4, #8]
   d7612:	60ab      	str	r3, [r5, #8]
	rhs.buffer = NULL;
   d7614:	2300      	movs	r3, #0
   d7616:	6023      	str	r3, [r4, #0]
	rhs.capacity = 0;
   d7618:	6063      	str	r3, [r4, #4]
	rhs.len = 0;
   d761a:	60a3      	str	r3, [r4, #8]
   d761c:	bd38      	pop	{r3, r4, r5, pc}

000d761e <_ZN6StringaSEOS_>:
}

#ifdef __GXX_EXPERIMENTAL_CXX0X__
String & String::operator = (String &&rval)
{
	if (this != &rval) move(rval);
   d761e:	4288      	cmp	r0, r1
    return *this;
}

#ifdef __GXX_EXPERIMENTAL_CXX0X__
String & String::operator = (String &&rval)
{
   d7620:	b510      	push	{r4, lr}
   d7622:	4604      	mov	r4, r0
	if (this != &rval) move(rval);
   d7624:	d001      	beq.n	d762a <_ZN6StringaSEOS_+0xc>
   d7626:	f7ff ffdd 	bl	d75e4 <_ZN6String4moveERS_>
	return *this;
}
   d762a:	4620      	mov	r0, r4
   d762c:	bd10      	pop	{r4, pc}

000d762e <_ZN6String6concatEPKcj>:
{
	return concat(s.buffer, s.len);
}

unsigned char String::concat(const char *cstr, unsigned int length)
{
   d762e:	b570      	push	{r4, r5, r6, lr}
   d7630:	4604      	mov	r4, r0
	unsigned int newlen = len + length;
	if (!cstr) return 0;
   d7632:	460e      	mov	r6, r1
   d7634:	b909      	cbnz	r1, d763a <_ZN6String6concatEPKcj+0xc>
   d7636:	2000      	movs	r0, #0
   d7638:	bd70      	pop	{r4, r5, r6, pc}
	if (length == 0) return 1;
   d763a:	b16a      	cbz	r2, d7658 <_ZN6String6concatEPKcj+0x2a>
	return concat(s.buffer, s.len);
}

unsigned char String::concat(const char *cstr, unsigned int length)
{
	unsigned int newlen = len + length;
   d763c:	6883      	ldr	r3, [r0, #8]
   d763e:	18d5      	adds	r5, r2, r3
	if (!cstr) return 0;
	if (length == 0) return 1;
	if (!reserve(newlen)) return 0;
   d7640:	4629      	mov	r1, r5
   d7642:	f7ff ff93 	bl	d756c <_ZN6String7reserveEj>
   d7646:	2800      	cmp	r0, #0
   d7648:	d0f5      	beq.n	d7636 <_ZN6String6concatEPKcj+0x8>
	strcpy(buffer + len, cstr);
   d764a:	6820      	ldr	r0, [r4, #0]
   d764c:	68a3      	ldr	r3, [r4, #8]
   d764e:	4631      	mov	r1, r6
   d7650:	4418      	add	r0, r3
   d7652:	f001 facb 	bl	d8bec <strcpy>
	len = newlen;
   d7656:	60a5      	str	r5, [r4, #8]

unsigned char String::concat(const char *cstr, unsigned int length)
{
	unsigned int newlen = len + length;
	if (!cstr) return 0;
	if (length == 0) return 1;
   d7658:	2001      	movs	r0, #1
	if (!reserve(newlen)) return 0;
	strcpy(buffer + len, cstr);
	len = newlen;
	return 1;
}
   d765a:	bd70      	pop	{r4, r5, r6, pc}

000d765c <_ZN6String6concatEc>:
unsigned char String::concat(const __FlashStringHelper * str) {
	return concat(reinterpret_cast<const char*>(str));
}

unsigned char String::concat(char c)
{
   d765c:	b507      	push	{r0, r1, r2, lr}
	char buf[2];
	buf[0] = c;
	buf[1] = 0;
   d765e:	2300      	movs	r3, #0
}

unsigned char String::concat(char c)
{
	char buf[2];
	buf[0] = c;
   d7660:	f88d 1004 	strb.w	r1, [sp, #4]
	buf[1] = 0;
	return concat(buf, 1);
   d7664:	2201      	movs	r2, #1
   d7666:	a901      	add	r1, sp, #4

unsigned char String::concat(char c)
{
	char buf[2];
	buf[0] = c;
	buf[1] = 0;
   d7668:	f88d 3005 	strb.w	r3, [sp, #5]
	return concat(buf, 1);
   d766c:	f7ff ffdf 	bl	d762e <_ZN6String6concatEPKcj>
}
   d7670:	b003      	add	sp, #12
   d7672:	f85d fb04 	ldr.w	pc, [sp], #4

000d7676 <_ZN17SystemSleepResult22freeWakeupSourceMemoryEv.isra.2>:
    operator SleepResult() {
        return toSleepResult();
    }

private:
    void freeWakeupSourceMemory() {
   d7676:	b510      	push	{r4, lr}
   d7678:	4604      	mov	r4, r0
        if (wakeupSource_) {
   d767a:	6800      	ldr	r0, [r0, #0]
   d767c:	b118      	cbz	r0, d7686 <_ZN17SystemSleepResult22freeWakeupSourceMemoryEv.isra.2+0x10>
            free(wakeupSource_);
   d767e:	f7fe fe2f 	bl	d62e0 <free>
            wakeupSource_ = nullptr;
   d7682:	2300      	movs	r3, #0
   d7684:	6023      	str	r3, [r4, #0]
   d7686:	bd10      	pop	{r4, pc}

000d7688 <_ZN17SystemSleepResultaSEOS_>:
            wakeupSource_ = result.wakeupSource_;
            result.wakeupSource_ = nullptr;
        }
    }

    SystemSleepResult& operator=(SystemSleepResult&& result) {
   d7688:	b538      	push	{r3, r4, r5, lr}
        error_ = result.error_;
   d768a:	f9b1 3004 	ldrsh.w	r3, [r1, #4]
   d768e:	8083      	strh	r3, [r0, #4]
        compatResult_ = result.compatResult_;
   d7690:	460b      	mov	r3, r1
            wakeupSource_ = result.wakeupSource_;
            result.wakeupSource_ = nullptr;
        }
    }

    SystemSleepResult& operator=(SystemSleepResult&& result) {
   d7692:	460d      	mov	r5, r1
        error_ = result.error_;
        compatResult_ = result.compatResult_;
   d7694:	f853 2f06 	ldr.w	r2, [r3, #6]!
   d7698:	f8c0 2006 	str.w	r2, [r0, #6]
   d769c:	889b      	ldrh	r3, [r3, #4]
   d769e:	8143      	strh	r3, [r0, #10]
            wakeupSource_ = result.wakeupSource_;
            result.wakeupSource_ = nullptr;
        }
    }

    SystemSleepResult& operator=(SystemSleepResult&& result) {
   d76a0:	4604      	mov	r4, r0
        error_ = result.error_;
        compatResult_ = result.compatResult_;
        freeWakeupSourceMemory();
   d76a2:	f7ff ffe8 	bl	d7676 <_ZN17SystemSleepResult22freeWakeupSourceMemoryEv.isra.2>
        if (result.wakeupSource_) {
   d76a6:	682b      	ldr	r3, [r5, #0]
   d76a8:	b113      	cbz	r3, d76b0 <_ZN17SystemSleepResultaSEOS_+0x28>
            wakeupSource_ = result.wakeupSource_;
   d76aa:	6023      	str	r3, [r4, #0]
            result.wakeupSource_ = nullptr;
   d76ac:	2300      	movs	r3, #0
   d76ae:	602b      	str	r3, [r5, #0]
        }
        return *this;
    }
   d76b0:	4620      	mov	r0, r4
   d76b2:	bd38      	pop	{r3, r4, r5, pc}

000d76b4 <_ZN17SystemSleepResult16copyWakeupSourceEP24hal_wakeup_source_base_t>:
            free(wakeupSource_);
            wakeupSource_ = nullptr;
        }
    }

    int copyWakeupSource(hal_wakeup_source_base_t* source) {
   d76b4:	b538      	push	{r3, r4, r5, lr}
   d76b6:	460c      	mov	r4, r1
   d76b8:	4605      	mov	r5, r0
        freeWakeupSourceMemory();
   d76ba:	f7ff ffdc 	bl	d7676 <_ZN17SystemSleepResult22freeWakeupSourceMemoryEv.isra.2>
        if (source) {
   d76be:	b144      	cbz	r4, d76d2 <_ZN17SystemSleepResult16copyWakeupSourceEP24hal_wakeup_source_base_t+0x1e>
            wakeupSource_ = (hal_wakeup_source_base_t*)malloc(source->size);
   d76c0:	8820      	ldrh	r0, [r4, #0]
   d76c2:	f7fe fe05 	bl	d62d0 <malloc>
   d76c6:	6028      	str	r0, [r5, #0]
            if (wakeupSource_) {
   d76c8:	b128      	cbz	r0, d76d6 <_ZN17SystemSleepResult16copyWakeupSourceEP24hal_wakeup_source_base_t+0x22>
                memcpy(wakeupSource_, source, source->size);
   d76ca:	8822      	ldrh	r2, [r4, #0]
   d76cc:	4621      	mov	r1, r4
   d76ce:	f001 fa51 	bl	d8b74 <memcpy>
            } else {
                return SYSTEM_ERROR_NO_MEMORY;
            }
        }
        return SYSTEM_ERROR_NONE;
   d76d2:	2000      	movs	r0, #0
   d76d4:	bd38      	pop	{r3, r4, r5, pc}
        if (source) {
            wakeupSource_ = (hal_wakeup_source_base_t*)malloc(source->size);
            if (wakeupSource_) {
                memcpy(wakeupSource_, source, source->size);
            } else {
                return SYSTEM_ERROR_NO_MEMORY;
   d76d6:	4801      	ldr	r0, [pc, #4]	; (d76dc <_ZN17SystemSleepResult16copyWakeupSourceEP24hal_wakeup_source_base_t+0x28>)
            }
        }
        return SYSTEM_ERROR_NONE;
    }
   d76d8:	bd38      	pop	{r3, r4, r5, pc}
   d76da:	bf00      	nop
   d76dc:	fffffefc 	.word	0xfffffefc

000d76e0 <_ZN11SystemClass5resetEm>:
    reset(0);
}

void SystemClass::reset(uint32_t data)
{
    HAL_Core_System_Reset_Ex(RESET_REASON_USER, data, nullptr);
   d76e0:	4601      	mov	r1, r0
   d76e2:	2200      	movs	r2, #0
   d76e4:	208c      	movs	r0, #140	; 0x8c
   d76e6:	f7fe bc75 	b.w	d5fd4 <HAL_Core_System_Reset_Ex>

000d76ea <_ZN11SystemClass5resetEv>:
    HAL_Core_Enter_Bootloader(persist);
}

void SystemClass::reset(void)
{
    reset(0);
   d76ea:	2000      	movs	r0, #0
   d76ec:	f7ff bff8 	b.w	d76e0 <_ZN11SystemClass5resetEm>

000d76f0 <_ZN11SystemClass5sleepERK24SystemSleepConfiguration>:
void SystemClass::reset(uint32_t data)
{
    HAL_Core_System_Reset_Ex(RESET_REASON_USER, data, nullptr);
}

SystemSleepResult SystemClass::sleep(const SystemSleepConfiguration& config) {
   d76f0:	b5f0      	push	{r4, r5, r6, r7, lr}
   d76f2:	4d30      	ldr	r5, [pc, #192]	; (d77b4 <_ZN11SystemClass5sleepERK24SystemSleepConfiguration+0xc4>)
    }

    // It doesn't guarantee the combination of sleep mode and
    // wakeup sources that the platform supports.
    bool valid() const {
        if (!valid_) {
   d76f4:	7d0b      	ldrb	r3, [r1, #20]
   d76f6:	4604      	mov	r4, r0
   d76f8:	b08b      	sub	sp, #44	; 0x2c
   d76fa:	4608      	mov	r0, r1
   d76fc:	1daf      	adds	r7, r5, #6
   d76fe:	b313      	cbz	r3, d7746 <_ZN11SystemClass5sleepERK24SystemSleepConfiguration+0x56>
    particle::EnumFlags<SystemSleepFlag> sleepFlags() const {
        return particle::EnumFlags<SystemSleepFlag>::fromUnderlying(config_->flags);
    }

    SystemSleepMode sleepMode() const {
        return static_cast<SystemSleepMode>(config_->mode);
   d7700:	680b      	ldr	r3, [r1, #0]
    // wakeup sources that the platform supports.
    bool valid() const {
        if (!valid_) {
            return valid_;
        }
        if (sleepMode() == SystemSleepMode::NONE) {
   d7702:	791b      	ldrb	r3, [r3, #4]
   d7704:	b1fb      	cbz	r3, d7746 <_ZN11SystemClass5sleepERK24SystemSleepConfiguration+0x56>

class SystemSleepResult {
public:
    SystemSleepResult()
            : wakeupSource_(nullptr),
              error_(SYSTEM_ERROR_NONE) {
   d7706:	2200      	movs	r2, #0
    WAKEUP_REASON_PIN_OR_RTC = 3,
    WAKEUP_REASON_UNKNOWN = 4
};

struct SleepResult {
    SleepResult() {}
   d7708:	f64f 73ff 	movw	r3, #65535	; 0xffff
    if (!config.valid()) {
        LOG(ERROR, "System sleep configuration is invalid.");
        System.systemSleepResult_ = SystemSleepResult(SYSTEM_ERROR_INVALID_ARGUMENT);
    } else {
        SystemSleepResult result;
        int ret = system_sleep_ext(config.halConfig(), result.halWakeupSource(), nullptr);
   d770c:	a902      	add	r1, sp, #8
   d770e:	3004      	adds	r0, #4

class SystemSleepResult {
public:
    SystemSleepResult()
            : wakeupSource_(nullptr),
              error_(SYSTEM_ERROR_NONE) {
   d7710:	9202      	str	r2, [sp, #8]
   d7712:	f8ad 200c 	strh.w	r2, [sp, #12]
    WAKEUP_REASON_PIN_OR_RTC = 3,
    WAKEUP_REASON_UNKNOWN = 4
};

struct SleepResult {
    SleepResult() {}
   d7716:	f88d 200e 	strb.w	r2, [sp, #14]
   d771a:	f8ad 2010 	strh.w	r2, [sp, #16]
   d771e:	f8ad 3012 	strh.w	r3, [sp, #18]
   d7722:	f7fe fdcb 	bl	d62bc <system_sleep_ext>
        copyWakeupSource(result.wakeupSource_);
    }

    SystemSleepResult& operator=(const SystemSleepResult& result) {
        error_ = result.error_;
        compatResult_ = result.compatResult_;
   d7726:	ab0a      	add	r3, sp, #40	; 0x28
        result.setError(static_cast<system_error_t>(ret));
   d7728:	b200      	sxth	r0, r0
   d772a:	f853 2d1a 	ldr.w	r2, [r3, #-26]!
    ~SystemSleepResult() {
        freeWakeupSourceMemory();
    }

    void setError(system_error_t error, bool clear = false) {
        error_ = error;
   d772e:	f8ad 000c 	strh.w	r0, [sp, #12]
        copyWakeupSource(result.wakeupSource_);
    }

    SystemSleepResult& operator=(const SystemSleepResult& result) {
        error_ = result.error_;
        compatResult_ = result.compatResult_;
   d7732:	889b      	ldrh	r3, [r3, #4]
        compatResult_ = result.compatResult_;
        copyWakeupSource(result.wakeupSource_);
    }

    SystemSleepResult& operator=(const SystemSleepResult& result) {
        error_ = result.error_;
   d7734:	80a8      	strh	r0, [r5, #4]
        compatResult_ = result.compatResult_;
   d7736:	f8c5 2006 	str.w	r2, [r5, #6]
        copyWakeupSource(result.wakeupSource_);
   d773a:	9902      	ldr	r1, [sp, #8]
        copyWakeupSource(result.wakeupSource_);
    }

    SystemSleepResult& operator=(const SystemSleepResult& result) {
        error_ = result.error_;
        compatResult_ = result.compatResult_;
   d773c:	80bb      	strh	r3, [r7, #4]
        copyWakeupSource(result.wakeupSource_);
   d773e:	4628      	mov	r0, r5
   d7740:	f7ff ffb8 	bl	d76b4 <_ZN17SystemSleepResult16copyWakeupSourceEP24hal_wakeup_source_base_t>
   d7744:	e01c      	b.n	d7780 <_ZN11SystemClass5sleepERK24SystemSleepConfiguration+0x90>
    HAL_Core_System_Reset_Ex(RESET_REASON_USER, data, nullptr);
}

SystemSleepResult SystemClass::sleep(const SystemSleepConfiguration& config) {
    if (!config.valid()) {
        LOG(ERROR, "System sleep configuration is invalid.");
   d7746:	2320      	movs	r3, #32
   d7748:	2600      	movs	r6, #0
   d774a:	9302      	str	r3, [sp, #8]
   d774c:	4b1a      	ldr	r3, [pc, #104]	; (d77b8 <_ZN11SystemClass5sleepERK24SystemSleepConfiguration+0xc8>)
   d774e:	9300      	str	r3, [sp, #0]
   d7750:	491a      	ldr	r1, [pc, #104]	; (d77bc <_ZN11SystemClass5sleepERK24SystemSleepConfiguration+0xcc>)
   d7752:	9603      	str	r6, [sp, #12]
   d7754:	4633      	mov	r3, r6
   d7756:	2032      	movs	r0, #50	; 0x32
   d7758:	aa02      	add	r2, sp, #8
   d775a:	f7fe fd03 	bl	d6164 <log_message>
    WAKEUP_REASON_PIN_OR_RTC = 3,
    WAKEUP_REASON_UNKNOWN = 4
};

struct SleepResult {
    SleepResult() {}
   d775e:	f64f 73ff 	movw	r3, #65535	; 0xffff
   d7762:	f8ad 3012 	strh.w	r3, [sp, #18]
        System.systemSleepResult_ = SystemSleepResult(SYSTEM_ERROR_INVALID_ARGUMENT);
   d7766:	a902      	add	r1, sp, #8
        error_ = error;
    }

    SystemSleepResult(system_error_t error)
            : SystemSleepResult() {
        error_ = error;
   d7768:	f64f 63f2 	movw	r3, #65266	; 0xfef2
   d776c:	4811      	ldr	r0, [pc, #68]	; (d77b4 <_ZN11SystemClass5sleepERK24SystemSleepConfiguration+0xc4>)

class SystemSleepResult {
public:
    SystemSleepResult()
            : wakeupSource_(nullptr),
              error_(SYSTEM_ERROR_NONE) {
   d776e:	9602      	str	r6, [sp, #8]
    WAKEUP_REASON_PIN_OR_RTC = 3,
    WAKEUP_REASON_UNKNOWN = 4
};

struct SleepResult {
    SleepResult() {}
   d7770:	f88d 600e 	strb.w	r6, [sp, #14]
   d7774:	f8ad 6010 	strh.w	r6, [sp, #16]
        error_ = error;
    }

    SystemSleepResult(system_error_t error)
            : SystemSleepResult() {
        error_ = error;
   d7778:	f8ad 300c 	strh.w	r3, [sp, #12]
   d777c:	f7ff ff84 	bl	d7688 <_ZN17SystemSleepResultaSEOS_>
        }
        return *this;
    }

    ~SystemSleepResult() {
        freeWakeupSourceMemory();
   d7780:	a802      	add	r0, sp, #8
   d7782:	f7ff ff78 	bl	d7676 <_ZN17SystemSleepResult22freeWakeupSourceMemoryEv.isra.2>

class SystemSleepResult {
public:
    SystemSleepResult()
            : wakeupSource_(nullptr),
              error_(SYSTEM_ERROR_NONE) {
   d7786:	2300      	movs	r3, #0
   d7788:	6023      	str	r3, [r4, #0]
   d778a:	80a3      	strh	r3, [r4, #4]
    WAKEUP_REASON_PIN_OR_RTC = 3,
    WAKEUP_REASON_UNKNOWN = 4
};

struct SleepResult {
    SleepResult() {}
   d778c:	71a3      	strb	r3, [r4, #6]
   d778e:	8123      	strh	r3, [r4, #8]
   d7790:	f64f 73ff 	movw	r3, #65535	; 0xffff
   d7794:	8163      	strh	r3, [r4, #10]
    }

    // Copy constructor
    SystemSleepResult(const SystemSleepResult& result)
            : SystemSleepResult() {
        error_ = result.error_;
   d7796:	f9b5 3004 	ldrsh.w	r3, [r5, #4]
   d779a:	80a3      	strh	r3, [r4, #4]
        compatResult_ = result.compatResult_;
   d779c:	683b      	ldr	r3, [r7, #0]
   d779e:	f8c4 3006 	str.w	r3, [r4, #6]
   d77a2:	88bb      	ldrh	r3, [r7, #4]
   d77a4:	8163      	strh	r3, [r4, #10]
        copyWakeupSource(result.wakeupSource_);
   d77a6:	6829      	ldr	r1, [r5, #0]
   d77a8:	4620      	mov	r0, r4
   d77aa:	f7ff ff83 	bl	d76b4 <_ZN17SystemSleepResult16copyWakeupSourceEP24hal_wakeup_source_base_t>
        int ret = system_sleep_ext(config.halConfig(), result.halWakeupSource(), nullptr);
        result.setError(static_cast<system_error_t>(ret));
        System.systemSleepResult_ = result;
    }
    return System.systemSleepResult_;
}
   d77ae:	4620      	mov	r0, r4
   d77b0:	b00b      	add	sp, #44	; 0x2c
   d77b2:	bdf0      	pop	{r4, r5, r6, r7, pc}
   d77b4:	2003e710 	.word	0x2003e710
   d77b8:	000d9611 	.word	0x000d9611
   d77bc:	000d960a 	.word	0x000d960a

000d77c0 <_GLOBAL__sub_I_System>:
    return wokenUpByRtc();
}

system_error_t SleepResult::error() const {
    return err_;
   d77c0:	b510      	push	{r4, lr}

class SystemSleepResult {
public:
    SystemSleepResult()
            : wakeupSource_(nullptr),
              error_(SYSTEM_ERROR_NONE) {
   d77c2:	4c09      	ldr	r4, [pc, #36]	; (d77e8 <_GLOBAL__sub_I_System+0x28>)
   d77c4:	2000      	movs	r0, #0
    WAKEUP_REASON_PIN_OR_RTC = 3,
    WAKEUP_REASON_UNKNOWN = 4
};

struct SleepResult {
    SleepResult() {}
   d77c6:	f64f 73ff 	movw	r3, #65535	; 0xffff

class SystemSleepResult {
public:
    SystemSleepResult()
            : wakeupSource_(nullptr),
              error_(SYSTEM_ERROR_NONE) {
   d77ca:	6020      	str	r0, [r4, #0]
   d77cc:	80a0      	strh	r0, [r4, #4]
    WAKEUP_REASON_PIN_OR_RTC = 3,
    WAKEUP_REASON_UNKNOWN = 4
};

struct SleepResult {
    SleepResult() {}
   d77ce:	71a0      	strb	r0, [r4, #6]
   d77d0:	8120      	strh	r0, [r4, #8]
   d77d2:	8163      	strh	r3, [r4, #10]

class SystemClass {
public:

    SystemClass(System_Mode_TypeDef mode = DEFAULT) {
        set_system_mode(mode);
   d77d4:	f7fe fd3e 	bl	d6254 <set_system_mode>

#if Wiring_LogConfig
extern void(*log_process_ctrl_request_callback)(ctrl_request* req);
#endif

SystemClass System;
   d77d8:	4620      	mov	r0, r4
   d77da:	4a04      	ldr	r2, [pc, #16]	; (d77ec <_GLOBAL__sub_I_System+0x2c>)
   d77dc:	4904      	ldr	r1, [pc, #16]	; (d77f0 <_GLOBAL__sub_I_System+0x30>)
    return wokenUpByRtc();
}

system_error_t SleepResult::error() const {
    return err_;
   d77de:	e8bd 4010 	ldmia.w	sp!, {r4, lr}

#if Wiring_LogConfig
extern void(*log_process_ctrl_request_callback)(ctrl_request* req);
#endif

SystemClass System;
   d77e2:	f000 b8fc 	b.w	d79de <__aeabi_atexit>
   d77e6:	bf00      	nop
   d77e8:	2003e710 	.word	0x2003e710
   d77ec:	2003d620 	.word	0x2003d620
   d77f0:	000d40ed 	.word	0x000d40ed

000d77f4 <_ZN5spark13EthernetClass9listeningEv>:
    uint16_t getListenTimeout(void) {
        return network_get_listen_timeout(*this, 0, NULL);
    }

    bool listening(void) {
        return network_listening(*this, 0, NULL);
   d77f4:	2200      	movs	r2, #0
   d77f6:	4611      	mov	r1, r2
   d77f8:	6840      	ldr	r0, [r0, #4]
   d77fa:	f7fe bd13 	b.w	d6224 <network_listening>

000d77fe <_ZN5spark13EthernetClass16getListenTimeoutEv>:
    void setListenTimeout(uint16_t timeout) {
        network_set_listen_timeout(*this, timeout, NULL);
    }

    uint16_t getListenTimeout(void) {
        return network_get_listen_timeout(*this, 0, NULL);
   d77fe:	2200      	movs	r2, #0
   d7800:	4611      	mov	r1, r2
   d7802:	6840      	ldr	r0, [r0, #4]
   d7804:	f7fe bd1e 	b.w	d6244 <network_get_listen_timeout>

000d7808 <_ZN5spark13EthernetClass16setListenTimeoutEt>:
    void listen(bool begin=true) {
        network_listen(*this, begin ? 0 : 1, NULL);
    }

    void setListenTimeout(uint16_t timeout) {
        network_set_listen_timeout(*this, timeout, NULL);
   d7808:	2200      	movs	r2, #0
   d780a:	6840      	ldr	r0, [r0, #4]
   d780c:	f7fe bd12 	b.w	d6234 <network_set_listen_timeout>

000d7810 <_ZN5spark13EthernetClass6listenEb>:
    void disconnect() {
        network_disconnect(*this, NETWORK_DISCONNECT_REASON_USER, NULL);
    }

    void listen(bool begin=true) {
        network_listen(*this, begin ? 0 : 1, NULL);
   d7810:	2200      	movs	r2, #0
   d7812:	f081 0101 	eor.w	r1, r1, #1
   d7816:	6840      	ldr	r0, [r0, #4]
   d7818:	f7fe bcfc 	b.w	d6214 <network_listen>

000d781c <_ZN5spark13EthernetClass3offEv>:
    void on() {
        network_on(*this, 0, 0, NULL);
    }

    void off() {
        network_off(*this, 0, 0, NULL);
   d781c:	2300      	movs	r3, #0
   d781e:	461a      	mov	r2, r3
   d7820:	4619      	mov	r1, r3
   d7822:	6840      	ldr	r0, [r0, #4]
   d7824:	f7fe bcee 	b.w	d6204 <network_off>

000d7828 <_ZN5spark13EthernetClass2onEv>:
    EthernetClass() :
            NetworkClass(NETWORK_INTERFACE_ETHERNET) {
    }

    void on() {
        network_on(*this, 0, 0, NULL);
   d7828:	2300      	movs	r3, #0
   d782a:	461a      	mov	r2, r3
   d782c:	4619      	mov	r1, r3
   d782e:	6840      	ldr	r0, [r0, #4]
   d7830:	f7fe bce0 	b.w	d61f4 <network_on>

000d7834 <_ZN5spark13EthernetClass5readyEv>:
    bool listening(void) {
        return network_listening(*this, 0, NULL);
    }

    bool ready() {
        return network_ready(*this, 0,  NULL);
   d7834:	2200      	movs	r2, #0
   d7836:	4611      	mov	r1, r2
   d7838:	6840      	ldr	r0, [r0, #4]
   d783a:	f7fe bcd3 	b.w	d61e4 <network_ready>

000d783e <_ZN5spark13EthernetClass10connectingEv>:
    void connect(unsigned flags=0) {
        network_connect(*this, flags, 0, NULL);
    }

    bool connecting(void) {
        return network_connecting(*this, 0, NULL);
   d783e:	2200      	movs	r2, #0
   d7840:	4611      	mov	r1, r2
   d7842:	6840      	ldr	r0, [r0, #4]
   d7844:	f7fe bcbe 	b.w	d61c4 <network_connecting>

000d7848 <_ZN5spark13EthernetClass10disconnectEv>:
    }

    void disconnect() {
        network_disconnect(*this, NETWORK_DISCONNECT_REASON_USER, NULL);
   d7848:	2200      	movs	r2, #0
   d784a:	2102      	movs	r1, #2
   d784c:	6840      	ldr	r0, [r0, #4]
   d784e:	f7fe bcc1 	b.w	d61d4 <network_disconnect>

000d7852 <_ZN5spark13EthernetClass7connectEj>:
    void off() {
        network_off(*this, 0, 0, NULL);
    }

    void connect(unsigned flags=0) {
        network_connect(*this, flags, 0, NULL);
   d7852:	2300      	movs	r3, #0
   d7854:	461a      	mov	r2, r3
   d7856:	6840      	ldr	r0, [r0, #4]
   d7858:	f7fe bcac 	b.w	d61b4 <network_connect>

000d785c <_GLOBAL__sub_I__ZN5spark8EthernetE>:
   d785c:	4b02      	ldr	r3, [pc, #8]	; (d7868 <_GLOBAL__sub_I__ZN5spark8EthernetE+0xc>)
   d785e:	2203      	movs	r2, #3
   d7860:	605a      	str	r2, [r3, #4]
    }

class EthernetClass : public NetworkClass {
public:
    EthernetClass() :
            NetworkClass(NETWORK_INTERFACE_ETHERNET) {
   d7862:	4a02      	ldr	r2, [pc, #8]	; (d786c <_GLOBAL__sub_I__ZN5spark8EthernetE+0x10>)
   d7864:	601a      	str	r2, [r3, #0]
   d7866:	4770      	bx	lr
   d7868:	2003e71c 	.word	0x2003e71c
   d786c:	000d9640 	.word	0x000d9640

000d7870 <_Z17acquireWireBufferv>:
   d7870:	b570      	push	{r4, r5, r6, lr}
   d7872:	4604      	mov	r4, r0
   d7874:	2514      	movs	r5, #20
   d7876:	462a      	mov	r2, r5
   d7878:	4e09      	ldr	r6, [pc, #36]	; (d78a0 <_Z17acquireWireBufferv+0x30>)
   d787a:	2100      	movs	r1, #0
   d787c:	f001 f985 	bl	d8b8a <memset>
   d7880:	8025      	strh	r5, [r4, #0]
   d7882:	2520      	movs	r5, #32
   d7884:	4631      	mov	r1, r6
   d7886:	60a5      	str	r5, [r4, #8]
   d7888:	6125      	str	r5, [r4, #16]
   d788a:	4628      	mov	r0, r5
   d788c:	f000 f8b6 	bl	d79fc <_ZnajRKSt9nothrow_t>
   d7890:	4631      	mov	r1, r6
   d7892:	6060      	str	r0, [r4, #4]
   d7894:	4628      	mov	r0, r5
   d7896:	f000 f8b1 	bl	d79fc <_ZnajRKSt9nothrow_t>
   d789a:	60e0      	str	r0, [r4, #12]
   d789c:	4620      	mov	r0, r4
   d789e:	bd70      	pop	{r4, r5, r6, pc}
   d78a0:	000d966c 	.word	0x000d966c

000d78a4 <_Z19__fetch_global_Wirev>:
	return defaultWireConfig();
}
#endif

TwoWire& __fetch_global_Wire()
{
   d78a4:	b530      	push	{r4, r5, lr}
	static TwoWire wire(HAL_I2C_INTERFACE1, acquireWireBuffer());
   d78a6:	4d0e      	ldr	r5, [pc, #56]	; (d78e0 <_Z19__fetch_global_Wirev+0x3c>)
   d78a8:	6829      	ldr	r1, [r5, #0]
   d78aa:	f011 0401 	ands.w	r4, r1, #1
	return defaultWireConfig();
}
#endif

TwoWire& __fetch_global_Wire()
{
   d78ae:	b087      	sub	sp, #28
	static TwoWire wire(HAL_I2C_INTERFACE1, acquireWireBuffer());
   d78b0:	d113      	bne.n	d78da <_Z19__fetch_global_Wirev+0x36>
   d78b2:	4628      	mov	r0, r5
   d78b4:	f7fc fbf7 	bl	d40a6 <__cxa_guard_acquire>
   d78b8:	b178      	cbz	r0, d78da <_Z19__fetch_global_Wirev+0x36>
   d78ba:	a801      	add	r0, sp, #4
   d78bc:	f7ff ffd8 	bl	d7870 <_Z17acquireWireBufferv>
   d78c0:	aa01      	add	r2, sp, #4
   d78c2:	4621      	mov	r1, r4
   d78c4:	4807      	ldr	r0, [pc, #28]	; (d78e4 <_Z19__fetch_global_Wirev+0x40>)
   d78c6:	f7fe ffcd 	bl	d6864 <_ZN7TwoWireC1E17HAL_I2C_InterfaceRK14HAL_I2C_Config>
   d78ca:	4628      	mov	r0, r5
   d78cc:	f7fc fbf0 	bl	d40b0 <__cxa_guard_release>
   d78d0:	4a05      	ldr	r2, [pc, #20]	; (d78e8 <_Z19__fetch_global_Wirev+0x44>)
   d78d2:	4906      	ldr	r1, [pc, #24]	; (d78ec <_Z19__fetch_global_Wirev+0x48>)
   d78d4:	4803      	ldr	r0, [pc, #12]	; (d78e4 <_Z19__fetch_global_Wirev+0x40>)
   d78d6:	f000 f882 	bl	d79de <__aeabi_atexit>
	return wire;
}
   d78da:	4802      	ldr	r0, [pc, #8]	; (d78e4 <_Z19__fetch_global_Wirev+0x40>)
   d78dc:	b007      	add	sp, #28
   d78de:	bd30      	pop	{r4, r5, pc}
   d78e0:	2003e724 	.word	0x2003e724
   d78e4:	2003e728 	.word	0x2003e728
   d78e8:	2003d620 	.word	0x2003d620
   d78ec:	000d680b 	.word	0x000d680b

000d78f0 <pinAvailable>:

/*
 * @brief Perform safety check on desired pin to see if it's already
 * being used.  Return 0 if used, otherwise return 1 if available.
 */
bool pinAvailable(uint16_t pin) {
   d78f0:	b570      	push	{r4, r5, r6, lr}

template <HAL_SPI_Interface Interface>
class SpiProxy {
public:
    static SPIClass& instance() {
        static SPIClass instance(Interface);
   d78f2:	4e18      	ldr	r6, [pc, #96]	; (d7954 <pinAvailable+0x64>)
   d78f4:	6831      	ldr	r1, [r6, #0]
   d78f6:	f011 0501 	ands.w	r5, r1, #1
   d78fa:	4604      	mov	r4, r0
   d78fc:	d10a      	bne.n	d7914 <pinAvailable+0x24>
   d78fe:	4630      	mov	r0, r6
   d7900:	f7fc fbd1 	bl	d40a6 <__cxa_guard_acquire>
   d7904:	b130      	cbz	r0, d7914 <pinAvailable+0x24>
   d7906:	4629      	mov	r1, r5
   d7908:	4813      	ldr	r0, [pc, #76]	; (d7958 <pinAvailable+0x68>)
   d790a:	f7fe fed1 	bl	d66b0 <_ZN8SPIClassC1E17HAL_SPI_Interface>
   d790e:	4630      	mov	r0, r6
   d7910:	f7fc fbce 	bl	d40b0 <__cxa_guard_release>
    }
    void detachInterrupt() {
        instance().detachInterrupt();
    }
    bool isEnabled(void) {
        return instance().isEnabled();
   d7914:	4810      	ldr	r0, [pc, #64]	; (d7958 <pinAvailable+0x68>)
   d7916:	f7fe ff75 	bl	d6804 <_ZN8SPIClass9isEnabledEv>

  // SPI safety check
#ifndef SPARK_WIRING_NO_SPI
  if(SPI.isEnabled() == true && (pin == SCK || pin == MOSI || pin == MISO))
   d791a:	b128      	cbz	r0, d7928 <pinAvailable+0x38>
   d791c:	f1a4 030b 	sub.w	r3, r4, #11
   d7920:	2b02      	cmp	r3, #2
   d7922:	d801      	bhi.n	d7928 <pinAvailable+0x38>
  {
    return 0; // 'pin' is used
   d7924:	2000      	movs	r0, #0
   d7926:	bd70      	pop	{r4, r5, r6, pc}
  }
#endif
  // I2C safety check
#ifndef SPARK_WIRING_NO_I2C
  if(Wire.isEnabled() == true && (pin == SCL || pin == SDA))
   d7928:	f7ff ffbc 	bl	d78a4 <_Z19__fetch_global_Wirev>
   d792c:	f7fe ffbd 	bl	d68aa <_ZN7TwoWire9isEnabledEv>
   d7930:	b108      	cbz	r0, d7936 <pinAvailable+0x46>
   d7932:	2c01      	cmp	r4, #1
   d7934:	d9f6      	bls.n	d7924 <pinAvailable+0x34>
    return 0; // 'pin' is used
  }
#endif
#ifndef SPARK_WIRING_NO_USART_SERIAL
  // Serial1 safety check
  if(Serial1.isEnabled() == true && (pin == RX || pin == TX))
   d7936:	f7ff f831 	bl	d699c <_Z22__fetch_global_Serial1v>
   d793a:	f7ff f82c 	bl	d6996 <_ZN11USARTSerial9isEnabledEv>
   d793e:	b118      	cbz	r0, d7948 <pinAvailable+0x58>
   d7940:	f1a4 0309 	sub.w	r3, r4, #9
   d7944:	2b01      	cmp	r3, #1
   d7946:	d9ed      	bls.n	d7924 <pinAvailable+0x34>
  {
    return 0; // 'pin' is used
  }
#endif

  if (pin >= TOTAL_PINS)
   d7948:	2c23      	cmp	r4, #35	; 0x23
   d794a:	bf8c      	ite	hi
   d794c:	2000      	movhi	r0, #0
   d794e:	2001      	movls	r0, #1
    return 0;
  else
    return 1; // 'pin' is available
}
   d7950:	bd70      	pop	{r4, r5, r6, pc}
   d7952:	bf00      	nop
   d7954:	2003e740 	.word	0x2003e740
   d7958:	2003e744 	.word	0x2003e744

000d795c <pinMode>:
 * or INPUT_PULLDOWN
 */
void pinMode(uint16_t pin, PinMode setMode)
{

  if(pin >= TOTAL_PINS || setMode == PIN_MODE_NONE )
   d795c:	2823      	cmp	r0, #35	; 0x23
/*
 * @brief Set the mode of the pin to OUTPUT, INPUT, INPUT_PULLUP,
 * or INPUT_PULLDOWN
 */
void pinMode(uint16_t pin, PinMode setMode)
{
   d795e:	b538      	push	{r3, r4, r5, lr}
   d7960:	4604      	mov	r4, r0
   d7962:	460d      	mov	r5, r1

  if(pin >= TOTAL_PINS || setMode == PIN_MODE_NONE )
   d7964:	d80a      	bhi.n	d797c <pinMode+0x20>
   d7966:	29ff      	cmp	r1, #255	; 0xff
   d7968:	d008      	beq.n	d797c <pinMode+0x20>
  {
    return;
  }

  // Safety check
  if( !pinAvailable(pin) ) {
   d796a:	f7ff ffc1 	bl	d78f0 <pinAvailable>
   d796e:	b128      	cbz	r0, d797c <pinMode+0x20>
    return;
  }

  HAL_Pin_Mode(pin, setMode);
   d7970:	4629      	mov	r1, r5
   d7972:	4620      	mov	r0, r4
}
   d7974:	e8bd 4038 	ldmia.w	sp!, {r3, r4, r5, lr}
  // Safety check
  if( !pinAvailable(pin) ) {
    return;
  }

  HAL_Pin_Mode(pin, setMode);
   d7978:	f7fe bb94 	b.w	d60a4 <HAL_Pin_Mode>
   d797c:	bd38      	pop	{r3, r4, r5, pc}

000d797e <digitalWrite>:

/*
 * @brief Sets a GPIO pin to HIGH or LOW.
 */
void digitalWrite(pin_t pin, uint8_t value)
{
   d797e:	b538      	push	{r3, r4, r5, lr}
   d7980:	4604      	mov	r4, r0
   d7982:	460d      	mov	r5, r1
    PinMode mode = HAL_Get_Pin_Mode(pin);
   d7984:	f7fe fb96 	bl	d60b4 <HAL_Get_Pin_Mode>
    if (mode==PIN_MODE_NONE || is_input_mode(mode))
   d7988:	28ff      	cmp	r0, #255	; 0xff
   d798a:	d010      	beq.n	d79ae <digitalWrite+0x30>
}

inline bool is_input_mode(PinMode mode) {
    return  mode == INPUT ||
            mode == INPUT_PULLUP ||
            mode == INPUT_PULLDOWN ||
   d798c:	2806      	cmp	r0, #6
   d798e:	d804      	bhi.n	d799a <digitalWrite+0x1c>
   d7990:	234d      	movs	r3, #77	; 0x4d
   d7992:	fa23 f000 	lsr.w	r0, r3, r0
   d7996:	07c3      	lsls	r3, r0, #31
   d7998:	d409      	bmi.n	d79ae <digitalWrite+0x30>
{
    PinMode mode = HAL_Get_Pin_Mode(pin);
    if (mode==PIN_MODE_NONE || is_input_mode(mode))
        return;
  // Safety check
  if( !pinAvailable(pin) ) {
   d799a:	4620      	mov	r0, r4
   d799c:	f7ff ffa8 	bl	d78f0 <pinAvailable>
   d79a0:	b128      	cbz	r0, d79ae <digitalWrite+0x30>
    return;
  }

  HAL_GPIO_Write(pin, value);
   d79a2:	4629      	mov	r1, r5
   d79a4:	4620      	mov	r0, r4
}
   d79a6:	e8bd 4038 	ldmia.w	sp!, {r3, r4, r5, lr}
  // Safety check
  if( !pinAvailable(pin) ) {
    return;
  }

  HAL_GPIO_Write(pin, value);
   d79aa:	f7fe bb8b 	b.w	d60c4 <HAL_GPIO_Write>
   d79ae:	bd38      	pop	{r3, r4, r5, pc}

000d79b0 <analogRead>:
 * Note: ADC is 12-bit. Currently it returns 0-4095
 */
int32_t analogRead(pin_t pin)
{
  // Allow people to use 0-7 to define analog pins by checking to see if the values are too low.
  if(pin < FIRST_ANALOG_PIN)
   d79b0:	280d      	cmp	r0, #13
 * @brief Read the analog value of a pin.
 * Should return a 16-bit value, 0-65536 (0 = LOW, 65536 = HIGH)
 * Note: ADC is 12-bit. Currently it returns 0-4095
 */
int32_t analogRead(pin_t pin)
{
   d79b2:	b510      	push	{r4, lr}
   d79b4:	4604      	mov	r4, r0
  // Allow people to use 0-7 to define analog pins by checking to see if the values are too low.
  if(pin < FIRST_ANALOG_PIN)
  {
    pin = pin + FIRST_ANALOG_PIN;
   d79b6:	bf9c      	itt	ls
   d79b8:	340e      	addls	r4, #14
   d79ba:	b2a4      	uxthls	r4, r4
  }

  // Safety check
  if( !pinAvailable(pin) ) {
   d79bc:	4620      	mov	r0, r4
   d79be:	f7ff ff97 	bl	d78f0 <pinAvailable>
   d79c2:	b150      	cbz	r0, d79da <analogRead+0x2a>
    return LOW;
  }

  if(HAL_Validate_Pin_Function(pin, PF_ADC)!=PF_ADC)
   d79c4:	2103      	movs	r1, #3
   d79c6:	4620      	mov	r0, r4
   d79c8:	f7fe fb64 	bl	d6094 <HAL_Validate_Pin_Function>
   d79cc:	2803      	cmp	r0, #3
   d79ce:	d104      	bne.n	d79da <analogRead+0x2a>
  {
    return LOW;
  }

  return HAL_ADC_Read(pin);
   d79d0:	4620      	mov	r0, r4
}
   d79d2:	e8bd 4010 	ldmia.w	sp!, {r4, lr}
  if(HAL_Validate_Pin_Function(pin, PF_ADC)!=PF_ADC)
  {
    return LOW;
  }

  return HAL_ADC_Read(pin);
   d79d6:	f7fe bb7d 	b.w	d60d4 <HAL_ADC_Read>
}
   d79da:	2000      	movs	r0, #0
   d79dc:	bd10      	pop	{r4, pc}

000d79de <__aeabi_atexit>:
   d79de:	460b      	mov	r3, r1
   d79e0:	4601      	mov	r1, r0
   d79e2:	4618      	mov	r0, r3
   d79e4:	f001 b8b8 	b.w	d8b58 <__cxa_atexit>

000d79e8 <_ZSt15get_new_handlerv>:
   d79e8:	4b02      	ldr	r3, [pc, #8]	; (d79f4 <_ZSt15get_new_handlerv+0xc>)
   d79ea:	6818      	ldr	r0, [r3, #0]
   d79ec:	f3bf 8f5f 	dmb	sy
   d79f0:	4770      	bx	lr
   d79f2:	bf00      	nop
   d79f4:	2003e74c 	.word	0x2003e74c

000d79f8 <_ZdlPvj>:
   d79f8:	f7fc bb51 	b.w	d409e <_ZdlPv>

000d79fc <_ZnajRKSt9nothrow_t>:
   d79fc:	f000 b800 	b.w	d7a00 <_ZnwjRKSt9nothrow_t>

000d7a00 <_ZnwjRKSt9nothrow_t>:
   d7a00:	b510      	push	{r4, lr}
   d7a02:	2800      	cmp	r0, #0
   d7a04:	bf14      	ite	ne
   d7a06:	4604      	movne	r4, r0
   d7a08:	2401      	moveq	r4, #1
   d7a0a:	4620      	mov	r0, r4
   d7a0c:	f7fe fc60 	bl	d62d0 <malloc>
   d7a10:	b920      	cbnz	r0, d7a1c <_ZnwjRKSt9nothrow_t+0x1c>
   d7a12:	f7ff ffe9 	bl	d79e8 <_ZSt15get_new_handlerv>
   d7a16:	b108      	cbz	r0, d7a1c <_ZnwjRKSt9nothrow_t+0x1c>
   d7a18:	4780      	blx	r0
   d7a1a:	e7f6      	b.n	d7a0a <_ZnwjRKSt9nothrow_t+0xa>
   d7a1c:	bd10      	pop	{r4, pc}

000d7a1e <_ZSt25__throw_bad_function_callv>:
   d7a1e:	b508      	push	{r3, lr}
   d7a20:	f7fe fc7e 	bl	d6320 <abort>

000d7a24 <_GLOBAL__sub_I__ZNSt12ctype_bynameIcEC2ERKNSt7__cxx1112basic_stringIcSt11char_traitsIcESaIcEEEj>:
   d7a24:	4b18      	ldr	r3, [pc, #96]	; (d7a88 <_GLOBAL__sub_I__ZNSt12ctype_bynameIcEC2ERKNSt7__cxx1112basic_stringIcSt11char_traitsIcESaIcEEEj+0x64>)
   d7a26:	681a      	ldr	r2, [r3, #0]
   d7a28:	07d1      	lsls	r1, r2, #31
   d7a2a:	bf5c      	itt	pl
   d7a2c:	2201      	movpl	r2, #1
   d7a2e:	601a      	strpl	r2, [r3, #0]
   d7a30:	4b16      	ldr	r3, [pc, #88]	; (d7a8c <_GLOBAL__sub_I__ZNSt12ctype_bynameIcEC2ERKNSt7__cxx1112basic_stringIcSt11char_traitsIcESaIcEEEj+0x68>)
   d7a32:	681a      	ldr	r2, [r3, #0]
   d7a34:	07d2      	lsls	r2, r2, #31
   d7a36:	bf5c      	itt	pl
   d7a38:	2201      	movpl	r2, #1
   d7a3a:	601a      	strpl	r2, [r3, #0]
   d7a3c:	4b14      	ldr	r3, [pc, #80]	; (d7a90 <_GLOBAL__sub_I__ZNSt12ctype_bynameIcEC2ERKNSt7__cxx1112basic_stringIcSt11char_traitsIcESaIcEEEj+0x6c>)
   d7a3e:	681a      	ldr	r2, [r3, #0]
   d7a40:	07d0      	lsls	r0, r2, #31
   d7a42:	bf5c      	itt	pl
   d7a44:	2201      	movpl	r2, #1
   d7a46:	601a      	strpl	r2, [r3, #0]
   d7a48:	4b12      	ldr	r3, [pc, #72]	; (d7a94 <_GLOBAL__sub_I__ZNSt12ctype_bynameIcEC2ERKNSt7__cxx1112basic_stringIcSt11char_traitsIcESaIcEEEj+0x70>)
   d7a4a:	681a      	ldr	r2, [r3, #0]
   d7a4c:	07d1      	lsls	r1, r2, #31
   d7a4e:	bf5c      	itt	pl
   d7a50:	2201      	movpl	r2, #1
   d7a52:	601a      	strpl	r2, [r3, #0]
   d7a54:	4b10      	ldr	r3, [pc, #64]	; (d7a98 <_GLOBAL__sub_I__ZNSt12ctype_bynameIcEC2ERKNSt7__cxx1112basic_stringIcSt11char_traitsIcESaIcEEEj+0x74>)
   d7a56:	681a      	ldr	r2, [r3, #0]
   d7a58:	07d2      	lsls	r2, r2, #31
   d7a5a:	bf5c      	itt	pl
   d7a5c:	2201      	movpl	r2, #1
   d7a5e:	601a      	strpl	r2, [r3, #0]
   d7a60:	4b0e      	ldr	r3, [pc, #56]	; (d7a9c <_GLOBAL__sub_I__ZNSt12ctype_bynameIcEC2ERKNSt7__cxx1112basic_stringIcSt11char_traitsIcESaIcEEEj+0x78>)
   d7a62:	681a      	ldr	r2, [r3, #0]
   d7a64:	07d0      	lsls	r0, r2, #31
   d7a66:	bf5c      	itt	pl
   d7a68:	2201      	movpl	r2, #1
   d7a6a:	601a      	strpl	r2, [r3, #0]
   d7a6c:	4b0c      	ldr	r3, [pc, #48]	; (d7aa0 <_GLOBAL__sub_I__ZNSt12ctype_bynameIcEC2ERKNSt7__cxx1112basic_stringIcSt11char_traitsIcESaIcEEEj+0x7c>)
   d7a6e:	681a      	ldr	r2, [r3, #0]
   d7a70:	07d1      	lsls	r1, r2, #31
   d7a72:	bf5c      	itt	pl
   d7a74:	2201      	movpl	r2, #1
   d7a76:	601a      	strpl	r2, [r3, #0]
   d7a78:	4b0a      	ldr	r3, [pc, #40]	; (d7aa4 <_GLOBAL__sub_I__ZNSt12ctype_bynameIcEC2ERKNSt7__cxx1112basic_stringIcSt11char_traitsIcESaIcEEEj+0x80>)
   d7a7a:	681a      	ldr	r2, [r3, #0]
   d7a7c:	07d2      	lsls	r2, r2, #31
   d7a7e:	bf5c      	itt	pl
   d7a80:	2201      	movpl	r2, #1
   d7a82:	601a      	strpl	r2, [r3, #0]
   d7a84:	4770      	bx	lr
   d7a86:	bf00      	nop
   d7a88:	2003e76c 	.word	0x2003e76c
   d7a8c:	2003e768 	.word	0x2003e768
   d7a90:	2003e764 	.word	0x2003e764
   d7a94:	2003e760 	.word	0x2003e760
   d7a98:	2003e75c 	.word	0x2003e75c
   d7a9c:	2003e758 	.word	0x2003e758
   d7aa0:	2003e754 	.word	0x2003e754
   d7aa4:	2003e750 	.word	0x2003e750

000d7aa8 <_GLOBAL__sub_I__ZNSt12ctype_bynameIwEC2ERKSsj>:
   d7aa8:	4b24      	ldr	r3, [pc, #144]	; (d7b3c <_GLOBAL__sub_I__ZNSt12ctype_bynameIwEC2ERKSsj+0x94>)
   d7aaa:	681a      	ldr	r2, [r3, #0]
   d7aac:	07d0      	lsls	r0, r2, #31
   d7aae:	bf5c      	itt	pl
   d7ab0:	2201      	movpl	r2, #1
   d7ab2:	601a      	strpl	r2, [r3, #0]
   d7ab4:	4b22      	ldr	r3, [pc, #136]	; (d7b40 <_GLOBAL__sub_I__ZNSt12ctype_bynameIwEC2ERKSsj+0x98>)
   d7ab6:	681a      	ldr	r2, [r3, #0]
   d7ab8:	07d1      	lsls	r1, r2, #31
   d7aba:	bf5c      	itt	pl
   d7abc:	2201      	movpl	r2, #1
   d7abe:	601a      	strpl	r2, [r3, #0]
   d7ac0:	4b20      	ldr	r3, [pc, #128]	; (d7b44 <_GLOBAL__sub_I__ZNSt12ctype_bynameIwEC2ERKSsj+0x9c>)
   d7ac2:	681a      	ldr	r2, [r3, #0]
   d7ac4:	07d2      	lsls	r2, r2, #31
   d7ac6:	bf5c      	itt	pl
   d7ac8:	2201      	movpl	r2, #1
   d7aca:	601a      	strpl	r2, [r3, #0]
   d7acc:	4b1e      	ldr	r3, [pc, #120]	; (d7b48 <_GLOBAL__sub_I__ZNSt12ctype_bynameIwEC2ERKSsj+0xa0>)
   d7ace:	681a      	ldr	r2, [r3, #0]
   d7ad0:	07d0      	lsls	r0, r2, #31
   d7ad2:	bf5c      	itt	pl
   d7ad4:	2201      	movpl	r2, #1
   d7ad6:	601a      	strpl	r2, [r3, #0]
   d7ad8:	4b1c      	ldr	r3, [pc, #112]	; (d7b4c <_GLOBAL__sub_I__ZNSt12ctype_bynameIwEC2ERKSsj+0xa4>)
   d7ada:	681a      	ldr	r2, [r3, #0]
   d7adc:	07d1      	lsls	r1, r2, #31
   d7ade:	bf5c      	itt	pl
   d7ae0:	2201      	movpl	r2, #1
   d7ae2:	601a      	strpl	r2, [r3, #0]
   d7ae4:	4b1a      	ldr	r3, [pc, #104]	; (d7b50 <_GLOBAL__sub_I__ZNSt12ctype_bynameIwEC2ERKSsj+0xa8>)
   d7ae6:	681a      	ldr	r2, [r3, #0]
   d7ae8:	07d2      	lsls	r2, r2, #31
   d7aea:	bf5c      	itt	pl
   d7aec:	2201      	movpl	r2, #1
   d7aee:	601a      	strpl	r2, [r3, #0]
   d7af0:	4b18      	ldr	r3, [pc, #96]	; (d7b54 <_GLOBAL__sub_I__ZNSt12ctype_bynameIwEC2ERKSsj+0xac>)
   d7af2:	681a      	ldr	r2, [r3, #0]
   d7af4:	07d0      	lsls	r0, r2, #31
   d7af6:	bf5c      	itt	pl
   d7af8:	2201      	movpl	r2, #1
   d7afa:	601a      	strpl	r2, [r3, #0]
   d7afc:	4b16      	ldr	r3, [pc, #88]	; (d7b58 <_GLOBAL__sub_I__ZNSt12ctype_bynameIwEC2ERKSsj+0xb0>)
   d7afe:	681a      	ldr	r2, [r3, #0]
   d7b00:	07d1      	lsls	r1, r2, #31
   d7b02:	bf5c      	itt	pl
   d7b04:	2201      	movpl	r2, #1
   d7b06:	601a      	strpl	r2, [r3, #0]
   d7b08:	4b14      	ldr	r3, [pc, #80]	; (d7b5c <_GLOBAL__sub_I__ZNSt12ctype_bynameIwEC2ERKSsj+0xb4>)
   d7b0a:	681a      	ldr	r2, [r3, #0]
   d7b0c:	07d2      	lsls	r2, r2, #31
   d7b0e:	bf5c      	itt	pl
   d7b10:	2201      	movpl	r2, #1
   d7b12:	601a      	strpl	r2, [r3, #0]
   d7b14:	4b12      	ldr	r3, [pc, #72]	; (d7b60 <_GLOBAL__sub_I__ZNSt12ctype_bynameIwEC2ERKSsj+0xb8>)
   d7b16:	681a      	ldr	r2, [r3, #0]
   d7b18:	07d0      	lsls	r0, r2, #31
   d7b1a:	bf5c      	itt	pl
   d7b1c:	2201      	movpl	r2, #1
   d7b1e:	601a      	strpl	r2, [r3, #0]
   d7b20:	4b10      	ldr	r3, [pc, #64]	; (d7b64 <_GLOBAL__sub_I__ZNSt12ctype_bynameIwEC2ERKSsj+0xbc>)
   d7b22:	681a      	ldr	r2, [r3, #0]
   d7b24:	07d1      	lsls	r1, r2, #31
   d7b26:	bf5c      	itt	pl
   d7b28:	2201      	movpl	r2, #1
   d7b2a:	601a      	strpl	r2, [r3, #0]
   d7b2c:	4b0e      	ldr	r3, [pc, #56]	; (d7b68 <_GLOBAL__sub_I__ZNSt12ctype_bynameIwEC2ERKSsj+0xc0>)
   d7b2e:	681a      	ldr	r2, [r3, #0]
   d7b30:	07d2      	lsls	r2, r2, #31
   d7b32:	bf5c      	itt	pl
   d7b34:	2201      	movpl	r2, #1
   d7b36:	601a      	strpl	r2, [r3, #0]
   d7b38:	4770      	bx	lr
   d7b3a:	bf00      	nop
   d7b3c:	2003e79c 	.word	0x2003e79c
   d7b40:	2003e798 	.word	0x2003e798
   d7b44:	2003e794 	.word	0x2003e794
   d7b48:	2003e790 	.word	0x2003e790
   d7b4c:	2003e78c 	.word	0x2003e78c
   d7b50:	2003e788 	.word	0x2003e788
   d7b54:	2003e784 	.word	0x2003e784
   d7b58:	2003e780 	.word	0x2003e780
   d7b5c:	2003e77c 	.word	0x2003e77c
   d7b60:	2003e778 	.word	0x2003e778
   d7b64:	2003e774 	.word	0x2003e774
   d7b68:	2003e770 	.word	0x2003e770

000d7b6c <_GLOBAL__sub_I__ZNSt12ctype_bynameIcEC2ERKSsj>:
   d7b6c:	4b24      	ldr	r3, [pc, #144]	; (d7c00 <_GLOBAL__sub_I__ZNSt12ctype_bynameIcEC2ERKSsj+0x94>)
   d7b6e:	681a      	ldr	r2, [r3, #0]
   d7b70:	07d0      	lsls	r0, r2, #31
   d7b72:	bf5c      	itt	pl
   d7b74:	2201      	movpl	r2, #1
   d7b76:	601a      	strpl	r2, [r3, #0]
   d7b78:	4b22      	ldr	r3, [pc, #136]	; (d7c04 <_GLOBAL__sub_I__ZNSt12ctype_bynameIcEC2ERKSsj+0x98>)
   d7b7a:	681a      	ldr	r2, [r3, #0]
   d7b7c:	07d1      	lsls	r1, r2, #31
   d7b7e:	bf5c      	itt	pl
   d7b80:	2201      	movpl	r2, #1
   d7b82:	601a      	strpl	r2, [r3, #0]
   d7b84:	4b20      	ldr	r3, [pc, #128]	; (d7c08 <_GLOBAL__sub_I__ZNSt12ctype_bynameIcEC2ERKSsj+0x9c>)
   d7b86:	681a      	ldr	r2, [r3, #0]
   d7b88:	07d2      	lsls	r2, r2, #31
   d7b8a:	bf5c      	itt	pl
   d7b8c:	2201      	movpl	r2, #1
   d7b8e:	601a      	strpl	r2, [r3, #0]
   d7b90:	4b1e      	ldr	r3, [pc, #120]	; (d7c0c <_GLOBAL__sub_I__ZNSt12ctype_bynameIcEC2ERKSsj+0xa0>)
   d7b92:	681a      	ldr	r2, [r3, #0]
   d7b94:	07d0      	lsls	r0, r2, #31
   d7b96:	bf5c      	itt	pl
   d7b98:	2201      	movpl	r2, #1
   d7b9a:	601a      	strpl	r2, [r3, #0]
   d7b9c:	4b1c      	ldr	r3, [pc, #112]	; (d7c10 <_GLOBAL__sub_I__ZNSt12ctype_bynameIcEC2ERKSsj+0xa4>)
   d7b9e:	681a      	ldr	r2, [r3, #0]
   d7ba0:	07d1      	lsls	r1, r2, #31
   d7ba2:	bf5c      	itt	pl
   d7ba4:	2201      	movpl	r2, #1
   d7ba6:	601a      	strpl	r2, [r3, #0]
   d7ba8:	4b1a      	ldr	r3, [pc, #104]	; (d7c14 <_GLOBAL__sub_I__ZNSt12ctype_bynameIcEC2ERKSsj+0xa8>)
   d7baa:	681a      	ldr	r2, [r3, #0]
   d7bac:	07d2      	lsls	r2, r2, #31
   d7bae:	bf5c      	itt	pl
   d7bb0:	2201      	movpl	r2, #1
   d7bb2:	601a      	strpl	r2, [r3, #0]
   d7bb4:	4b18      	ldr	r3, [pc, #96]	; (d7c18 <_GLOBAL__sub_I__ZNSt12ctype_bynameIcEC2ERKSsj+0xac>)
   d7bb6:	681a      	ldr	r2, [r3, #0]
   d7bb8:	07d0      	lsls	r0, r2, #31
   d7bba:	bf5c      	itt	pl
   d7bbc:	2201      	movpl	r2, #1
   d7bbe:	601a      	strpl	r2, [r3, #0]
   d7bc0:	4b16      	ldr	r3, [pc, #88]	; (d7c1c <_GLOBAL__sub_I__ZNSt12ctype_bynameIcEC2ERKSsj+0xb0>)
   d7bc2:	681a      	ldr	r2, [r3, #0]
   d7bc4:	07d1      	lsls	r1, r2, #31
   d7bc6:	bf5c      	itt	pl
   d7bc8:	2201      	movpl	r2, #1
   d7bca:	601a      	strpl	r2, [r3, #0]
   d7bcc:	4b14      	ldr	r3, [pc, #80]	; (d7c20 <_GLOBAL__sub_I__ZNSt12ctype_bynameIcEC2ERKSsj+0xb4>)
   d7bce:	681a      	ldr	r2, [r3, #0]
   d7bd0:	07d2      	lsls	r2, r2, #31
   d7bd2:	bf5c      	itt	pl
   d7bd4:	2201      	movpl	r2, #1
   d7bd6:	601a      	strpl	r2, [r3, #0]
   d7bd8:	4b12      	ldr	r3, [pc, #72]	; (d7c24 <_GLOBAL__sub_I__ZNSt12ctype_bynameIcEC2ERKSsj+0xb8>)
   d7bda:	681a      	ldr	r2, [r3, #0]
   d7bdc:	07d0      	lsls	r0, r2, #31
   d7bde:	bf5c      	itt	pl
   d7be0:	2201      	movpl	r2, #1
   d7be2:	601a      	strpl	r2, [r3, #0]
   d7be4:	4b10      	ldr	r3, [pc, #64]	; (d7c28 <_GLOBAL__sub_I__ZNSt12ctype_bynameIcEC2ERKSsj+0xbc>)
   d7be6:	681a      	ldr	r2, [r3, #0]
   d7be8:	07d1      	lsls	r1, r2, #31
   d7bea:	bf5c      	itt	pl
   d7bec:	2201      	movpl	r2, #1
   d7bee:	601a      	strpl	r2, [r3, #0]
   d7bf0:	4b0e      	ldr	r3, [pc, #56]	; (d7c2c <_GLOBAL__sub_I__ZNSt12ctype_bynameIcEC2ERKSsj+0xc0>)
   d7bf2:	681a      	ldr	r2, [r3, #0]
   d7bf4:	07d2      	lsls	r2, r2, #31
   d7bf6:	bf5c      	itt	pl
   d7bf8:	2201      	movpl	r2, #1
   d7bfa:	601a      	strpl	r2, [r3, #0]
   d7bfc:	4770      	bx	lr
   d7bfe:	bf00      	nop
   d7c00:	2003e7cc 	.word	0x2003e7cc
   d7c04:	2003e7c8 	.word	0x2003e7c8
   d7c08:	2003e7c4 	.word	0x2003e7c4
   d7c0c:	2003e7c0 	.word	0x2003e7c0
   d7c10:	2003e7bc 	.word	0x2003e7bc
   d7c14:	2003e7b8 	.word	0x2003e7b8
   d7c18:	2003e7b4 	.word	0x2003e7b4
   d7c1c:	2003e7b0 	.word	0x2003e7b0
   d7c20:	2003e7ac 	.word	0x2003e7ac
   d7c24:	2003e7a8 	.word	0x2003e7a8
   d7c28:	2003e7a4 	.word	0x2003e7a4
   d7c2c:	2003e7a0 	.word	0x2003e7a0

000d7c30 <_GLOBAL__sub_I__ZNSt12ctype_bynameIwEC2ERKNSt7__cxx1112basic_stringIcSt11char_traitsIcESaIcEEEj>:
   d7c30:	4b18      	ldr	r3, [pc, #96]	; (d7c94 <_GLOBAL__sub_I__ZNSt12ctype_bynameIwEC2ERKNSt7__cxx1112basic_stringIcSt11char_traitsIcESaIcEEEj+0x64>)
   d7c32:	681a      	ldr	r2, [r3, #0]
   d7c34:	07d1      	lsls	r1, r2, #31
   d7c36:	bf5c      	itt	pl
   d7c38:	2201      	movpl	r2, #1
   d7c3a:	601a      	strpl	r2, [r3, #0]
   d7c3c:	4b16      	ldr	r3, [pc, #88]	; (d7c98 <_GLOBAL__sub_I__ZNSt12ctype_bynameIwEC2ERKNSt7__cxx1112basic_stringIcSt11char_traitsIcESaIcEEEj+0x68>)
   d7c3e:	681a      	ldr	r2, [r3, #0]
   d7c40:	07d2      	lsls	r2, r2, #31
   d7c42:	bf5c      	itt	pl
   d7c44:	2201      	movpl	r2, #1
   d7c46:	601a      	strpl	r2, [r3, #0]
   d7c48:	4b14      	ldr	r3, [pc, #80]	; (d7c9c <_GLOBAL__sub_I__ZNSt12ctype_bynameIwEC2ERKNSt7__cxx1112basic_stringIcSt11char_traitsIcESaIcEEEj+0x6c>)
   d7c4a:	681a      	ldr	r2, [r3, #0]
   d7c4c:	07d0      	lsls	r0, r2, #31
   d7c4e:	bf5c      	itt	pl
   d7c50:	2201      	movpl	r2, #1
   d7c52:	601a      	strpl	r2, [r3, #0]
   d7c54:	4b12      	ldr	r3, [pc, #72]	; (d7ca0 <_GLOBAL__sub_I__ZNSt12ctype_bynameIwEC2ERKNSt7__cxx1112basic_stringIcSt11char_traitsIcESaIcEEEj+0x70>)
   d7c56:	681a      	ldr	r2, [r3, #0]
   d7c58:	07d1      	lsls	r1, r2, #31
   d7c5a:	bf5c      	itt	pl
   d7c5c:	2201      	movpl	r2, #1
   d7c5e:	601a      	strpl	r2, [r3, #0]
   d7c60:	4b10      	ldr	r3, [pc, #64]	; (d7ca4 <_GLOBAL__sub_I__ZNSt12ctype_bynameIwEC2ERKNSt7__cxx1112basic_stringIcSt11char_traitsIcESaIcEEEj+0x74>)
   d7c62:	681a      	ldr	r2, [r3, #0]
   d7c64:	07d2      	lsls	r2, r2, #31
   d7c66:	bf5c      	itt	pl
   d7c68:	2201      	movpl	r2, #1
   d7c6a:	601a      	strpl	r2, [r3, #0]
   d7c6c:	4b0e      	ldr	r3, [pc, #56]	; (d7ca8 <_GLOBAL__sub_I__ZNSt12ctype_bynameIwEC2ERKNSt7__cxx1112basic_stringIcSt11char_traitsIcESaIcEEEj+0x78>)
   d7c6e:	681a      	ldr	r2, [r3, #0]
   d7c70:	07d0      	lsls	r0, r2, #31
   d7c72:	bf5c      	itt	pl
   d7c74:	2201      	movpl	r2, #1
   d7c76:	601a      	strpl	r2, [r3, #0]
   d7c78:	4b0c      	ldr	r3, [pc, #48]	; (d7cac <_GLOBAL__sub_I__ZNSt12ctype_bynameIwEC2ERKNSt7__cxx1112basic_stringIcSt11char_traitsIcESaIcEEEj+0x7c>)
   d7c7a:	681a      	ldr	r2, [r3, #0]
   d7c7c:	07d1      	lsls	r1, r2, #31
   d7c7e:	bf5c      	itt	pl
   d7c80:	2201      	movpl	r2, #1
   d7c82:	601a      	strpl	r2, [r3, #0]
   d7c84:	4b0a      	ldr	r3, [pc, #40]	; (d7cb0 <_GLOBAL__sub_I__ZNSt12ctype_bynameIwEC2ERKNSt7__cxx1112basic_stringIcSt11char_traitsIcESaIcEEEj+0x80>)
   d7c86:	681a      	ldr	r2, [r3, #0]
   d7c88:	07d2      	lsls	r2, r2, #31
   d7c8a:	bf5c      	itt	pl
   d7c8c:	2201      	movpl	r2, #1
   d7c8e:	601a      	strpl	r2, [r3, #0]
   d7c90:	4770      	bx	lr
   d7c92:	bf00      	nop
   d7c94:	2003e7ec 	.word	0x2003e7ec
   d7c98:	2003e7e8 	.word	0x2003e7e8
   d7c9c:	2003e7e4 	.word	0x2003e7e4
   d7ca0:	2003e7e0 	.word	0x2003e7e0
   d7ca4:	2003e7dc 	.word	0x2003e7dc
   d7ca8:	2003e7d8 	.word	0x2003e7d8
   d7cac:	2003e7d4 	.word	0x2003e7d4
   d7cb0:	2003e7d0 	.word	0x2003e7d0

000d7cb4 <log>:
   d7cb4:	e92d 43f0 	stmdb	sp!, {r4, r5, r6, r7, r8, r9, lr}
   d7cb8:	ed2d 8b02 	vpush	{d8}
   d7cbc:	b08b      	sub	sp, #44	; 0x2c
   d7cbe:	ec55 4b10 	vmov	r4, r5, d0
   d7cc2:	f000 f881 	bl	d7dc8 <__ieee754_log>
   d7cc6:	4b3a      	ldr	r3, [pc, #232]	; (d7db0 <log+0xfc>)
   d7cc8:	eeb0 8a40 	vmov.f32	s16, s0
   d7ccc:	eef0 8a60 	vmov.f32	s17, s1
   d7cd0:	f993 6000 	ldrsb.w	r6, [r3]
   d7cd4:	1c73      	adds	r3, r6, #1
   d7cd6:	d00d      	beq.n	d7cf4 <log+0x40>
   d7cd8:	4622      	mov	r2, r4
   d7cda:	462b      	mov	r3, r5
   d7cdc:	4620      	mov	r0, r4
   d7cde:	4629      	mov	r1, r5
   d7ce0:	f000 fed4 	bl	d8a8c <__aeabi_dcmpun>
   d7ce4:	b930      	cbnz	r0, d7cf4 <log+0x40>
   d7ce6:	2200      	movs	r2, #0
   d7ce8:	2300      	movs	r3, #0
   d7cea:	4620      	mov	r0, r4
   d7cec:	4629      	mov	r1, r5
   d7cee:	f000 fec3 	bl	d8a78 <__aeabi_dcmpgt>
   d7cf2:	b140      	cbz	r0, d7d06 <log+0x52>
   d7cf4:	eeb0 0a48 	vmov.f32	s0, s16
   d7cf8:	eef0 0a68 	vmov.f32	s1, s17
   d7cfc:	b00b      	add	sp, #44	; 0x2c
   d7cfe:	ecbd 8b02 	vpop	{d8}
   d7d02:	e8bd 83f0 	ldmia.w	sp!, {r4, r5, r6, r7, r8, r9, pc}
   d7d06:	4b2b      	ldr	r3, [pc, #172]	; (d7db4 <log+0x100>)
   d7d08:	9008      	str	r0, [sp, #32]
   d7d0a:	e9cd 4502 	strd	r4, r5, [sp, #8]
   d7d0e:	e9cd 4504 	strd	r4, r5, [sp, #16]
   d7d12:	9301      	str	r3, [sp, #4]
   d7d14:	b9de      	cbnz	r6, d7d4e <log+0x9a>
   d7d16:	4f28      	ldr	r7, [pc, #160]	; (d7db8 <log+0x104>)
   d7d18:	f04f 4660 	mov.w	r6, #3758096384	; 0xe0000000
   d7d1c:	4620      	mov	r0, r4
   d7d1e:	4629      	mov	r1, r5
   d7d20:	2200      	movs	r2, #0
   d7d22:	2300      	movs	r3, #0
   d7d24:	e9cd 6706 	strd	r6, r7, [sp, #24]
   d7d28:	f000 fe7e 	bl	d8a28 <__aeabi_dcmpeq>
   d7d2c:	2800      	cmp	r0, #0
   d7d2e:	d037      	beq.n	d7da0 <log+0xec>
   d7d30:	2302      	movs	r3, #2
   d7d32:	9300      	str	r3, [sp, #0]
   d7d34:	4668      	mov	r0, sp
   d7d36:	f000 fa4b 	bl	d81d0 <matherr>
   d7d3a:	b1c8      	cbz	r0, d7d70 <log+0xbc>
   d7d3c:	9b08      	ldr	r3, [sp, #32]
   d7d3e:	b9e3      	cbnz	r3, d7d7a <log+0xc6>
   d7d40:	ed9d 0b06 	vldr	d0, [sp, #24]
   d7d44:	b00b      	add	sp, #44	; 0x2c
   d7d46:	ecbd 8b02 	vpop	{d8}
   d7d4a:	e8bd 83f0 	ldmia.w	sp!, {r4, r5, r6, r7, r8, r9, pc}
   d7d4e:	f8df 9070 	ldr.w	r9, [pc, #112]	; d7dc0 <log+0x10c>
   d7d52:	f04f 0800 	mov.w	r8, #0
   d7d56:	4620      	mov	r0, r4
   d7d58:	4629      	mov	r1, r5
   d7d5a:	2200      	movs	r2, #0
   d7d5c:	2300      	movs	r3, #0
   d7d5e:	e9cd 8906 	strd	r8, r9, [sp, #24]
   d7d62:	f000 fe61 	bl	d8a28 <__aeabi_dcmpeq>
   d7d66:	b168      	cbz	r0, d7d84 <log+0xd0>
   d7d68:	2302      	movs	r3, #2
   d7d6a:	429e      	cmp	r6, r3
   d7d6c:	9300      	str	r3, [sp, #0]
   d7d6e:	d1e1      	bne.n	d7d34 <log+0x80>
   d7d70:	f7fe fae6 	bl	d6340 <__errno>
   d7d74:	2322      	movs	r3, #34	; 0x22
   d7d76:	6003      	str	r3, [r0, #0]
   d7d78:	e7e0      	b.n	d7d3c <log+0x88>
   d7d7a:	f7fe fae1 	bl	d6340 <__errno>
   d7d7e:	9b08      	ldr	r3, [sp, #32]
   d7d80:	6003      	str	r3, [r0, #0]
   d7d82:	e7dd      	b.n	d7d40 <log+0x8c>
   d7d84:	2301      	movs	r3, #1
   d7d86:	2e02      	cmp	r6, #2
   d7d88:	9300      	str	r3, [sp, #0]
   d7d8a:	d10b      	bne.n	d7da4 <log+0xf0>
   d7d8c:	f7fe fad8 	bl	d6340 <__errno>
   d7d90:	2321      	movs	r3, #33	; 0x21
   d7d92:	6003      	str	r3, [r0, #0]
   d7d94:	4809      	ldr	r0, [pc, #36]	; (d7dbc <log+0x108>)
   d7d96:	f000 fa1f 	bl	d81d8 <nan>
   d7d9a:	ed8d 0b06 	vstr	d0, [sp, #24]
   d7d9e:	e7cd      	b.n	d7d3c <log+0x88>
   d7da0:	2301      	movs	r3, #1
   d7da2:	9300      	str	r3, [sp, #0]
   d7da4:	4668      	mov	r0, sp
   d7da6:	f000 fa13 	bl	d81d0 <matherr>
   d7daa:	2800      	cmp	r0, #0
   d7dac:	d1f2      	bne.n	d7d94 <log+0xe0>
   d7dae:	e7ed      	b.n	d7d8c <log+0xd8>
   d7db0:	2003d5b8 	.word	0x2003d5b8
   d7db4:	000d9670 	.word	0x000d9670
   d7db8:	c7efffff 	.word	0xc7efffff
   d7dbc:	000d9674 	.word	0x000d9674
   d7dc0:	fff00000 	.word	0xfff00000
   d7dc4:	00000000 	.word	0x00000000

000d7dc8 <__ieee754_log>:
   d7dc8:	e92d 4ff0 	stmdb	sp!, {r4, r5, r6, r7, r8, r9, sl, fp, lr}
   d7dcc:	ec51 0b10 	vmov	r0, r1, d0
   d7dd0:	f5b1 1f80 	cmp.w	r1, #1048576	; 0x100000
   d7dd4:	b085      	sub	sp, #20
   d7dd6:	460b      	mov	r3, r1
   d7dd8:	da59      	bge.n	d7e8e <__ieee754_log+0xc6>
   d7dda:	ee10 2a10 	vmov	r2, s0
   d7dde:	f021 4400 	bic.w	r4, r1, #2147483648	; 0x80000000
   d7de2:	4322      	orrs	r2, r4
   d7de4:	f000 80f8 	beq.w	d7fd8 <__ieee754_log+0x210>
   d7de8:	2900      	cmp	r1, #0
   d7dea:	f2c0 8180 	blt.w	d80ee <__ieee754_log+0x326>
   d7dee:	2200      	movs	r2, #0
   d7df0:	4bdd      	ldr	r3, [pc, #884]	; (d8168 <__ieee754_log+0x3a0>)
   d7df2:	4cde      	ldr	r4, [pc, #888]	; (d816c <__ieee754_log+0x3a4>)
   d7df4:	f000 fbb0 	bl	d8558 <__aeabi_dmul>
   d7df8:	460b      	mov	r3, r1
   d7dfa:	42a3      	cmp	r3, r4
   d7dfc:	f06f 0235 	mvn.w	r2, #53	; 0x35
   d7e00:	dc4a      	bgt.n	d7e98 <__ieee754_log+0xd0>
   d7e02:	f3c3 0513 	ubfx	r5, r3, #0, #20
   d7e06:	f505 2415 	add.w	r4, r5, #610304	; 0x95000
   d7e0a:	f604 7464 	addw	r4, r4, #3940	; 0xf64
   d7e0e:	f404 1680 	and.w	r6, r4, #1048576	; 0x100000
   d7e12:	f086 547f 	eor.w	r4, r6, #1069547520	; 0x3fc00000
   d7e16:	151b      	asrs	r3, r3, #20
   d7e18:	f484 1440 	eor.w	r4, r4, #3145728	; 0x300000
   d7e1c:	f2a3 33ff 	subw	r3, r3, #1023	; 0x3ff
   d7e20:	ea44 0105 	orr.w	r1, r4, r5
   d7e24:	189c      	adds	r4, r3, r2
   d7e26:	2200      	movs	r2, #0
   d7e28:	4bd1      	ldr	r3, [pc, #836]	; (d8170 <__ieee754_log+0x3a8>)
   d7e2a:	f000 f9e1 	bl	d81f0 <__aeabi_dsub>
   d7e2e:	1cab      	adds	r3, r5, #2
   d7e30:	f3c3 0313 	ubfx	r3, r3, #0, #20
   d7e34:	2b02      	cmp	r3, #2
   d7e36:	eb04 5416 	add.w	r4, r4, r6, lsr #20
   d7e3a:	4682      	mov	sl, r0
   d7e3c:	468b      	mov	fp, r1
   d7e3e:	f04f 0200 	mov.w	r2, #0
   d7e42:	dc32      	bgt.n	d7eaa <__ieee754_log+0xe2>
   d7e44:	2300      	movs	r3, #0
   d7e46:	f000 fdef 	bl	d8a28 <__aeabi_dcmpeq>
   d7e4a:	2800      	cmp	r0, #0
   d7e4c:	f000 80cf 	beq.w	d7fee <__ieee754_log+0x226>
   d7e50:	2c00      	cmp	r4, #0
   d7e52:	f000 8158 	beq.w	d8106 <__ieee754_log+0x33e>
   d7e56:	4620      	mov	r0, r4
   d7e58:	f000 fb18 	bl	d848c <__aeabi_i2d>
   d7e5c:	a3ac      	add	r3, pc, #688	; (adr r3, d8110 <__ieee754_log+0x348>)
   d7e5e:	e9d3 2300 	ldrd	r2, r3, [r3]
   d7e62:	4606      	mov	r6, r0
   d7e64:	460f      	mov	r7, r1
   d7e66:	f000 fb77 	bl	d8558 <__aeabi_dmul>
   d7e6a:	a3ab      	add	r3, pc, #684	; (adr r3, d8118 <__ieee754_log+0x350>)
   d7e6c:	e9d3 2300 	ldrd	r2, r3, [r3]
   d7e70:	4604      	mov	r4, r0
   d7e72:	460d      	mov	r5, r1
   d7e74:	4630      	mov	r0, r6
   d7e76:	4639      	mov	r1, r7
   d7e78:	f000 fb6e 	bl	d8558 <__aeabi_dmul>
   d7e7c:	4602      	mov	r2, r0
   d7e7e:	460b      	mov	r3, r1
   d7e80:	4620      	mov	r0, r4
   d7e82:	4629      	mov	r1, r5
   d7e84:	f000 f9b6 	bl	d81f4 <__adddf3>
   d7e88:	ec41 0b10 	vmov	d0, r0, r1
   d7e8c:	e00a      	b.n	d7ea4 <__ieee754_log+0xdc>
   d7e8e:	4cb7      	ldr	r4, [pc, #732]	; (d816c <__ieee754_log+0x3a4>)
   d7e90:	42a3      	cmp	r3, r4
   d7e92:	f04f 0200 	mov.w	r2, #0
   d7e96:	ddb4      	ble.n	d7e02 <__ieee754_log+0x3a>
   d7e98:	4602      	mov	r2, r0
   d7e9a:	460b      	mov	r3, r1
   d7e9c:	f000 f9aa 	bl	d81f4 <__adddf3>
   d7ea0:	ec41 0b10 	vmov	d0, r0, r1
   d7ea4:	b005      	add	sp, #20
   d7ea6:	e8bd 8ff0 	ldmia.w	sp!, {r4, r5, r6, r7, r8, r9, sl, fp, pc}
   d7eaa:	f04f 4380 	mov.w	r3, #1073741824	; 0x40000000
   d7eae:	f000 f9a1 	bl	d81f4 <__adddf3>
   d7eb2:	4602      	mov	r2, r0
   d7eb4:	460b      	mov	r3, r1
   d7eb6:	4650      	mov	r0, sl
   d7eb8:	4659      	mov	r1, fp
   d7eba:	f000 fc77 	bl	d87ac <__aeabi_ddiv>
   d7ebe:	4606      	mov	r6, r0
   d7ec0:	4620      	mov	r0, r4
   d7ec2:	460f      	mov	r7, r1
   d7ec4:	f000 fae2 	bl	d848c <__aeabi_i2d>
   d7ec8:	4632      	mov	r2, r6
   d7eca:	e9cd 0100 	strd	r0, r1, [sp]
   d7ece:	463b      	mov	r3, r7
   d7ed0:	4630      	mov	r0, r6
   d7ed2:	4639      	mov	r1, r7
   d7ed4:	e9cd 6702 	strd	r6, r7, [sp, #8]
   d7ed8:	f000 fb3e 	bl	d8558 <__aeabi_dmul>
   d7edc:	4602      	mov	r2, r0
   d7ede:	460b      	mov	r3, r1
   d7ee0:	4680      	mov	r8, r0
   d7ee2:	4689      	mov	r9, r1
   d7ee4:	f000 fb38 	bl	d8558 <__aeabi_dmul>
   d7ee8:	a38d      	add	r3, pc, #564	; (adr r3, d8120 <__ieee754_log+0x358>)
   d7eea:	e9d3 2300 	ldrd	r2, r3, [r3]
   d7eee:	4606      	mov	r6, r0
   d7ef0:	460f      	mov	r7, r1
   d7ef2:	f000 fb31 	bl	d8558 <__aeabi_dmul>
   d7ef6:	a38c      	add	r3, pc, #560	; (adr r3, d8128 <__ieee754_log+0x360>)
   d7ef8:	e9d3 2300 	ldrd	r2, r3, [r3]
   d7efc:	f000 f97a 	bl	d81f4 <__adddf3>
   d7f00:	4632      	mov	r2, r6
   d7f02:	463b      	mov	r3, r7
   d7f04:	f000 fb28 	bl	d8558 <__aeabi_dmul>
   d7f08:	a389      	add	r3, pc, #548	; (adr r3, d8130 <__ieee754_log+0x368>)
   d7f0a:	e9d3 2300 	ldrd	r2, r3, [r3]
   d7f0e:	f000 f971 	bl	d81f4 <__adddf3>
   d7f12:	4632      	mov	r2, r6
   d7f14:	463b      	mov	r3, r7
   d7f16:	f000 fb1f 	bl	d8558 <__aeabi_dmul>
   d7f1a:	a387      	add	r3, pc, #540	; (adr r3, d8138 <__ieee754_log+0x370>)
   d7f1c:	e9d3 2300 	ldrd	r2, r3, [r3]
   d7f20:	f000 f968 	bl	d81f4 <__adddf3>
   d7f24:	4642      	mov	r2, r8
   d7f26:	464b      	mov	r3, r9
   d7f28:	f000 fb16 	bl	d8558 <__aeabi_dmul>
   d7f2c:	a384      	add	r3, pc, #528	; (adr r3, d8140 <__ieee754_log+0x378>)
   d7f2e:	e9d3 2300 	ldrd	r2, r3, [r3]
   d7f32:	4680      	mov	r8, r0
   d7f34:	4689      	mov	r9, r1
   d7f36:	4630      	mov	r0, r6
   d7f38:	4639      	mov	r1, r7
   d7f3a:	f000 fb0d 	bl	d8558 <__aeabi_dmul>
   d7f3e:	a382      	add	r3, pc, #520	; (adr r3, d8148 <__ieee754_log+0x380>)
   d7f40:	e9d3 2300 	ldrd	r2, r3, [r3]
   d7f44:	f000 f956 	bl	d81f4 <__adddf3>
   d7f48:	4632      	mov	r2, r6
   d7f4a:	463b      	mov	r3, r7
   d7f4c:	f000 fb04 	bl	d8558 <__aeabi_dmul>
   d7f50:	a37f      	add	r3, pc, #508	; (adr r3, d8150 <__ieee754_log+0x388>)
   d7f52:	e9d3 2300 	ldrd	r2, r3, [r3]
   d7f56:	f000 f94d 	bl	d81f4 <__adddf3>
   d7f5a:	4632      	mov	r2, r6
   d7f5c:	463b      	mov	r3, r7
   d7f5e:	f000 fafb 	bl	d8558 <__aeabi_dmul>
   d7f62:	460b      	mov	r3, r1
   d7f64:	4602      	mov	r2, r0
   d7f66:	4649      	mov	r1, r9
   d7f68:	4640      	mov	r0, r8
   d7f6a:	f000 f943 	bl	d81f4 <__adddf3>
   d7f6e:	f5a5 23c2 	sub.w	r3, r5, #397312	; 0x61000
   d7f72:	f5c5 25d7 	rsb	r5, r5, #440320	; 0x6b800
   d7f76:	f2a3 437a 	subw	r3, r3, #1146	; 0x47a
   d7f7a:	3551      	adds	r5, #81	; 0x51
   d7f7c:	431d      	orrs	r5, r3
   d7f7e:	2d00      	cmp	r5, #0
   d7f80:	4680      	mov	r8, r0
   d7f82:	4689      	mov	r9, r1
   d7f84:	dd5c      	ble.n	d8040 <__ieee754_log+0x278>
   d7f86:	2200      	movs	r2, #0
   d7f88:	4b7a      	ldr	r3, [pc, #488]	; (d8174 <__ieee754_log+0x3ac>)
   d7f8a:	4650      	mov	r0, sl
   d7f8c:	4659      	mov	r1, fp
   d7f8e:	f000 fae3 	bl	d8558 <__aeabi_dmul>
   d7f92:	4652      	mov	r2, sl
   d7f94:	465b      	mov	r3, fp
   d7f96:	f000 fadf 	bl	d8558 <__aeabi_dmul>
   d7f9a:	4606      	mov	r6, r0
   d7f9c:	460f      	mov	r7, r1
   d7f9e:	2c00      	cmp	r4, #0
   d7fa0:	d16e      	bne.n	d8080 <__ieee754_log+0x2b8>
   d7fa2:	4632      	mov	r2, r6
   d7fa4:	463b      	mov	r3, r7
   d7fa6:	4640      	mov	r0, r8
   d7fa8:	4649      	mov	r1, r9
   d7faa:	f000 f923 	bl	d81f4 <__adddf3>
   d7fae:	e9dd 2302 	ldrd	r2, r3, [sp, #8]
   d7fb2:	f000 fad1 	bl	d8558 <__aeabi_dmul>
   d7fb6:	4602      	mov	r2, r0
   d7fb8:	460b      	mov	r3, r1
   d7fba:	4630      	mov	r0, r6
   d7fbc:	4639      	mov	r1, r7
   d7fbe:	f000 f917 	bl	d81f0 <__aeabi_dsub>
   d7fc2:	4602      	mov	r2, r0
   d7fc4:	460b      	mov	r3, r1
   d7fc6:	4650      	mov	r0, sl
   d7fc8:	4659      	mov	r1, fp
   d7fca:	f000 f911 	bl	d81f0 <__aeabi_dsub>
   d7fce:	ec41 0b10 	vmov	d0, r0, r1
   d7fd2:	b005      	add	sp, #20
   d7fd4:	e8bd 8ff0 	ldmia.w	sp!, {r4, r5, r6, r7, r8, r9, sl, fp, pc}
   d7fd8:	2200      	movs	r2, #0
   d7fda:	2300      	movs	r3, #0
   d7fdc:	2000      	movs	r0, #0
   d7fde:	4966      	ldr	r1, [pc, #408]	; (d8178 <__ieee754_log+0x3b0>)
   d7fe0:	f000 fbe4 	bl	d87ac <__aeabi_ddiv>
   d7fe4:	ec41 0b10 	vmov	d0, r0, r1
   d7fe8:	b005      	add	sp, #20
   d7fea:	e8bd 8ff0 	ldmia.w	sp!, {r4, r5, r6, r7, r8, r9, sl, fp, pc}
   d7fee:	a35a      	add	r3, pc, #360	; (adr r3, d8158 <__ieee754_log+0x390>)
   d7ff0:	e9d3 2300 	ldrd	r2, r3, [r3]
   d7ff4:	4650      	mov	r0, sl
   d7ff6:	4659      	mov	r1, fp
   d7ff8:	f000 faae 	bl	d8558 <__aeabi_dmul>
   d7ffc:	4602      	mov	r2, r0
   d7ffe:	460b      	mov	r3, r1
   d8000:	2000      	movs	r0, #0
   d8002:	495c      	ldr	r1, [pc, #368]	; (d8174 <__ieee754_log+0x3ac>)
   d8004:	f000 f8f4 	bl	d81f0 <__aeabi_dsub>
   d8008:	4652      	mov	r2, sl
   d800a:	4606      	mov	r6, r0
   d800c:	460f      	mov	r7, r1
   d800e:	465b      	mov	r3, fp
   d8010:	4650      	mov	r0, sl
   d8012:	4659      	mov	r1, fp
   d8014:	f000 faa0 	bl	d8558 <__aeabi_dmul>
   d8018:	4602      	mov	r2, r0
   d801a:	460b      	mov	r3, r1
   d801c:	4630      	mov	r0, r6
   d801e:	4639      	mov	r1, r7
   d8020:	f000 fa9a 	bl	d8558 <__aeabi_dmul>
   d8024:	4606      	mov	r6, r0
   d8026:	460f      	mov	r7, r1
   d8028:	2c00      	cmp	r4, #0
   d802a:	f040 80a7 	bne.w	d817c <__ieee754_log+0x3b4>
   d802e:	4602      	mov	r2, r0
   d8030:	460b      	mov	r3, r1
   d8032:	4650      	mov	r0, sl
   d8034:	4659      	mov	r1, fp
   d8036:	f000 f8db 	bl	d81f0 <__aeabi_dsub>
   d803a:	ec41 0b10 	vmov	d0, r0, r1
   d803e:	e731      	b.n	d7ea4 <__ieee754_log+0xdc>
   d8040:	2c00      	cmp	r4, #0
   d8042:	f000 80af 	beq.w	d81a4 <__ieee754_log+0x3dc>
   d8046:	a332      	add	r3, pc, #200	; (adr r3, d8110 <__ieee754_log+0x348>)
   d8048:	e9d3 2300 	ldrd	r2, r3, [r3]
   d804c:	e9dd 0100 	ldrd	r0, r1, [sp]
   d8050:	f000 fa82 	bl	d8558 <__aeabi_dmul>
   d8054:	4642      	mov	r2, r8
   d8056:	464b      	mov	r3, r9
   d8058:	4604      	mov	r4, r0
   d805a:	460d      	mov	r5, r1
   d805c:	4650      	mov	r0, sl
   d805e:	4659      	mov	r1, fp
   d8060:	f000 f8c6 	bl	d81f0 <__aeabi_dsub>
   d8064:	e9dd 2302 	ldrd	r2, r3, [sp, #8]
   d8068:	f000 fa76 	bl	d8558 <__aeabi_dmul>
   d806c:	a32a      	add	r3, pc, #168	; (adr r3, d8118 <__ieee754_log+0x350>)
   d806e:	e9d3 2300 	ldrd	r2, r3, [r3]
   d8072:	4606      	mov	r6, r0
   d8074:	460f      	mov	r7, r1
   d8076:	e9dd 0100 	ldrd	r0, r1, [sp]
   d807a:	f000 fa6d 	bl	d8558 <__aeabi_dmul>
   d807e:	e021      	b.n	d80c4 <__ieee754_log+0x2fc>
   d8080:	a323      	add	r3, pc, #140	; (adr r3, d8110 <__ieee754_log+0x348>)
   d8082:	e9d3 2300 	ldrd	r2, r3, [r3]
   d8086:	e9dd 0100 	ldrd	r0, r1, [sp]
   d808a:	f000 fa65 	bl	d8558 <__aeabi_dmul>
   d808e:	4632      	mov	r2, r6
   d8090:	463b      	mov	r3, r7
   d8092:	4604      	mov	r4, r0
   d8094:	460d      	mov	r5, r1
   d8096:	4640      	mov	r0, r8
   d8098:	4649      	mov	r1, r9
   d809a:	f000 f8ab 	bl	d81f4 <__adddf3>
   d809e:	e9dd 2302 	ldrd	r2, r3, [sp, #8]
   d80a2:	f000 fa59 	bl	d8558 <__aeabi_dmul>
   d80a6:	a31c      	add	r3, pc, #112	; (adr r3, d8118 <__ieee754_log+0x350>)
   d80a8:	e9d3 2300 	ldrd	r2, r3, [r3]
   d80ac:	4680      	mov	r8, r0
   d80ae:	4689      	mov	r9, r1
   d80b0:	e9dd 0100 	ldrd	r0, r1, [sp]
   d80b4:	f000 fa50 	bl	d8558 <__aeabi_dmul>
   d80b8:	4602      	mov	r2, r0
   d80ba:	460b      	mov	r3, r1
   d80bc:	4640      	mov	r0, r8
   d80be:	4649      	mov	r1, r9
   d80c0:	f000 f898 	bl	d81f4 <__adddf3>
   d80c4:	4602      	mov	r2, r0
   d80c6:	460b      	mov	r3, r1
   d80c8:	4630      	mov	r0, r6
   d80ca:	4639      	mov	r1, r7
   d80cc:	f000 f890 	bl	d81f0 <__aeabi_dsub>
   d80d0:	4652      	mov	r2, sl
   d80d2:	465b      	mov	r3, fp
   d80d4:	f000 f88c 	bl	d81f0 <__aeabi_dsub>
   d80d8:	4602      	mov	r2, r0
   d80da:	460b      	mov	r3, r1
   d80dc:	4620      	mov	r0, r4
   d80de:	4629      	mov	r1, r5
   d80e0:	f000 f886 	bl	d81f0 <__aeabi_dsub>
   d80e4:	ec41 0b10 	vmov	d0, r0, r1
   d80e8:	b005      	add	sp, #20
   d80ea:	e8bd 8ff0 	ldmia.w	sp!, {r4, r5, r6, r7, r8, r9, sl, fp, pc}
   d80ee:	ee10 2a10 	vmov	r2, s0
   d80f2:	460b      	mov	r3, r1
   d80f4:	f000 f87c 	bl	d81f0 <__aeabi_dsub>
   d80f8:	2200      	movs	r2, #0
   d80fa:	2300      	movs	r3, #0
   d80fc:	f000 fb56 	bl	d87ac <__aeabi_ddiv>
   d8100:	ec41 0b10 	vmov	d0, r0, r1
   d8104:	e6ce      	b.n	d7ea4 <__ieee754_log+0xdc>
   d8106:	ed9f 0b16 	vldr	d0, [pc, #88]	; d8160 <__ieee754_log+0x398>
   d810a:	e6cb      	b.n	d7ea4 <__ieee754_log+0xdc>
   d810c:	f3af 8000 	nop.w
   d8110:	fee00000 	.word	0xfee00000
   d8114:	3fe62e42 	.word	0x3fe62e42
   d8118:	35793c76 	.word	0x35793c76
   d811c:	3dea39ef 	.word	0x3dea39ef
   d8120:	df3e5244 	.word	0xdf3e5244
   d8124:	3fc2f112 	.word	0x3fc2f112
   d8128:	96cb03de 	.word	0x96cb03de
   d812c:	3fc74664 	.word	0x3fc74664
   d8130:	94229359 	.word	0x94229359
   d8134:	3fd24924 	.word	0x3fd24924
   d8138:	55555593 	.word	0x55555593
   d813c:	3fe55555 	.word	0x3fe55555
   d8140:	d078c69f 	.word	0xd078c69f
   d8144:	3fc39a09 	.word	0x3fc39a09
   d8148:	1d8e78af 	.word	0x1d8e78af
   d814c:	3fcc71c5 	.word	0x3fcc71c5
   d8150:	9997fa04 	.word	0x9997fa04
   d8154:	3fd99999 	.word	0x3fd99999
   d8158:	55555555 	.word	0x55555555
   d815c:	3fd55555 	.word	0x3fd55555
	...
   d8168:	43500000 	.word	0x43500000
   d816c:	7fefffff 	.word	0x7fefffff
   d8170:	3ff00000 	.word	0x3ff00000
   d8174:	3fe00000 	.word	0x3fe00000
   d8178:	c3500000 	.word	0xc3500000
   d817c:	4620      	mov	r0, r4
   d817e:	f000 f985 	bl	d848c <__aeabi_i2d>
   d8182:	a30f      	add	r3, pc, #60	; (adr r3, d81c0 <__ieee754_log+0x3f8>)
   d8184:	e9d3 2300 	ldrd	r2, r3, [r3]
   d8188:	4680      	mov	r8, r0
   d818a:	4689      	mov	r9, r1
   d818c:	f000 f9e4 	bl	d8558 <__aeabi_dmul>
   d8190:	a30d      	add	r3, pc, #52	; (adr r3, d81c8 <__ieee754_log+0x400>)
   d8192:	e9d3 2300 	ldrd	r2, r3, [r3]
   d8196:	4604      	mov	r4, r0
   d8198:	460d      	mov	r5, r1
   d819a:	4640      	mov	r0, r8
   d819c:	4649      	mov	r1, r9
   d819e:	f000 f9db 	bl	d8558 <__aeabi_dmul>
   d81a2:	e78f      	b.n	d80c4 <__ieee754_log+0x2fc>
   d81a4:	4602      	mov	r2, r0
   d81a6:	460b      	mov	r3, r1
   d81a8:	4650      	mov	r0, sl
   d81aa:	4659      	mov	r1, fp
   d81ac:	f000 f820 	bl	d81f0 <__aeabi_dsub>
   d81b0:	e9dd 2302 	ldrd	r2, r3, [sp, #8]
   d81b4:	f000 f9d0 	bl	d8558 <__aeabi_dmul>
   d81b8:	e703      	b.n	d7fc2 <__ieee754_log+0x1fa>
   d81ba:	bf00      	nop
   d81bc:	f3af 8000 	nop.w
   d81c0:	fee00000 	.word	0xfee00000
   d81c4:	3fe62e42 	.word	0x3fe62e42
   d81c8:	35793c76 	.word	0x35793c76
   d81cc:	3dea39ef 	.word	0x3dea39ef

000d81d0 <matherr>:
   d81d0:	2000      	movs	r0, #0
   d81d2:	4770      	bx	lr
   d81d4:	0000      	movs	r0, r0
	...

000d81d8 <nan>:
   d81d8:	ed9f 0b01 	vldr	d0, [pc, #4]	; d81e0 <nan+0x8>
   d81dc:	4770      	bx	lr
   d81de:	bf00      	nop
   d81e0:	00000000 	.word	0x00000000
   d81e4:	7ff80000 	.word	0x7ff80000

000d81e8 <__aeabi_drsub>:
   d81e8:	f081 4100 	eor.w	r1, r1, #2147483648	; 0x80000000
   d81ec:	e002      	b.n	d81f4 <__adddf3>
   d81ee:	bf00      	nop

000d81f0 <__aeabi_dsub>:
   d81f0:	f083 4300 	eor.w	r3, r3, #2147483648	; 0x80000000

000d81f4 <__adddf3>:
   d81f4:	b530      	push	{r4, r5, lr}
   d81f6:	ea4f 0441 	mov.w	r4, r1, lsl #1
   d81fa:	ea4f 0543 	mov.w	r5, r3, lsl #1
   d81fe:	ea94 0f05 	teq	r4, r5
   d8202:	bf08      	it	eq
   d8204:	ea90 0f02 	teqeq	r0, r2
   d8208:	bf1f      	itttt	ne
   d820a:	ea54 0c00 	orrsne.w	ip, r4, r0
   d820e:	ea55 0c02 	orrsne.w	ip, r5, r2
   d8212:	ea7f 5c64 	mvnsne.w	ip, r4, asr #21
   d8216:	ea7f 5c65 	mvnsne.w	ip, r5, asr #21
   d821a:	f000 80e2 	beq.w	d83e2 <__adddf3+0x1ee>
   d821e:	ea4f 5454 	mov.w	r4, r4, lsr #21
   d8222:	ebd4 5555 	rsbs	r5, r4, r5, lsr #21
   d8226:	bfb8      	it	lt
   d8228:	426d      	neglt	r5, r5
   d822a:	dd0c      	ble.n	d8246 <__adddf3+0x52>
   d822c:	442c      	add	r4, r5
   d822e:	ea80 0202 	eor.w	r2, r0, r2
   d8232:	ea81 0303 	eor.w	r3, r1, r3
   d8236:	ea82 0000 	eor.w	r0, r2, r0
   d823a:	ea83 0101 	eor.w	r1, r3, r1
   d823e:	ea80 0202 	eor.w	r2, r0, r2
   d8242:	ea81 0303 	eor.w	r3, r1, r3
   d8246:	2d36      	cmp	r5, #54	; 0x36
   d8248:	bf88      	it	hi
   d824a:	bd30      	pophi	{r4, r5, pc}
   d824c:	f011 4f00 	tst.w	r1, #2147483648	; 0x80000000
   d8250:	ea4f 3101 	mov.w	r1, r1, lsl #12
   d8254:	f44f 1c80 	mov.w	ip, #1048576	; 0x100000
   d8258:	ea4c 3111 	orr.w	r1, ip, r1, lsr #12
   d825c:	d002      	beq.n	d8264 <__adddf3+0x70>
   d825e:	4240      	negs	r0, r0
   d8260:	eb61 0141 	sbc.w	r1, r1, r1, lsl #1
   d8264:	f013 4f00 	tst.w	r3, #2147483648	; 0x80000000
   d8268:	ea4f 3303 	mov.w	r3, r3, lsl #12
   d826c:	ea4c 3313 	orr.w	r3, ip, r3, lsr #12
   d8270:	d002      	beq.n	d8278 <__adddf3+0x84>
   d8272:	4252      	negs	r2, r2
   d8274:	eb63 0343 	sbc.w	r3, r3, r3, lsl #1
   d8278:	ea94 0f05 	teq	r4, r5
   d827c:	f000 80a7 	beq.w	d83ce <__adddf3+0x1da>
   d8280:	f1a4 0401 	sub.w	r4, r4, #1
   d8284:	f1d5 0e20 	rsbs	lr, r5, #32
   d8288:	db0d      	blt.n	d82a6 <__adddf3+0xb2>
   d828a:	fa02 fc0e 	lsl.w	ip, r2, lr
   d828e:	fa22 f205 	lsr.w	r2, r2, r5
   d8292:	1880      	adds	r0, r0, r2
   d8294:	f141 0100 	adc.w	r1, r1, #0
   d8298:	fa03 f20e 	lsl.w	r2, r3, lr
   d829c:	1880      	adds	r0, r0, r2
   d829e:	fa43 f305 	asr.w	r3, r3, r5
   d82a2:	4159      	adcs	r1, r3
   d82a4:	e00e      	b.n	d82c4 <__adddf3+0xd0>
   d82a6:	f1a5 0520 	sub.w	r5, r5, #32
   d82aa:	f10e 0e20 	add.w	lr, lr, #32
   d82ae:	2a01      	cmp	r2, #1
   d82b0:	fa03 fc0e 	lsl.w	ip, r3, lr
   d82b4:	bf28      	it	cs
   d82b6:	f04c 0c02 	orrcs.w	ip, ip, #2
   d82ba:	fa43 f305 	asr.w	r3, r3, r5
   d82be:	18c0      	adds	r0, r0, r3
   d82c0:	eb51 71e3 	adcs.w	r1, r1, r3, asr #31
   d82c4:	f001 4500 	and.w	r5, r1, #2147483648	; 0x80000000
   d82c8:	d507      	bpl.n	d82da <__adddf3+0xe6>
   d82ca:	f04f 0e00 	mov.w	lr, #0
   d82ce:	f1dc 0c00 	rsbs	ip, ip, #0
   d82d2:	eb7e 0000 	sbcs.w	r0, lr, r0
   d82d6:	eb6e 0101 	sbc.w	r1, lr, r1
   d82da:	f5b1 1f80 	cmp.w	r1, #1048576	; 0x100000
   d82de:	d31b      	bcc.n	d8318 <__adddf3+0x124>
   d82e0:	f5b1 1f00 	cmp.w	r1, #2097152	; 0x200000
   d82e4:	d30c      	bcc.n	d8300 <__adddf3+0x10c>
   d82e6:	0849      	lsrs	r1, r1, #1
   d82e8:	ea5f 0030 	movs.w	r0, r0, rrx
   d82ec:	ea4f 0c3c 	mov.w	ip, ip, rrx
   d82f0:	f104 0401 	add.w	r4, r4, #1
   d82f4:	ea4f 5244 	mov.w	r2, r4, lsl #21
   d82f8:	f512 0f80 	cmn.w	r2, #4194304	; 0x400000
   d82fc:	f080 809a 	bcs.w	d8434 <__adddf3+0x240>
   d8300:	f1bc 4f00 	cmp.w	ip, #2147483648	; 0x80000000
   d8304:	bf08      	it	eq
   d8306:	ea5f 0c50 	movseq.w	ip, r0, lsr #1
   d830a:	f150 0000 	adcs.w	r0, r0, #0
   d830e:	eb41 5104 	adc.w	r1, r1, r4, lsl #20
   d8312:	ea41 0105 	orr.w	r1, r1, r5
   d8316:	bd30      	pop	{r4, r5, pc}
   d8318:	ea5f 0c4c 	movs.w	ip, ip, lsl #1
   d831c:	4140      	adcs	r0, r0
   d831e:	eb41 0101 	adc.w	r1, r1, r1
   d8322:	f411 1f80 	tst.w	r1, #1048576	; 0x100000
   d8326:	f1a4 0401 	sub.w	r4, r4, #1
   d832a:	d1e9      	bne.n	d8300 <__adddf3+0x10c>
   d832c:	f091 0f00 	teq	r1, #0
   d8330:	bf04      	itt	eq
   d8332:	4601      	moveq	r1, r0
   d8334:	2000      	moveq	r0, #0
   d8336:	fab1 f381 	clz	r3, r1
   d833a:	bf08      	it	eq
   d833c:	3320      	addeq	r3, #32
   d833e:	f1a3 030b 	sub.w	r3, r3, #11
   d8342:	f1b3 0220 	subs.w	r2, r3, #32
   d8346:	da0c      	bge.n	d8362 <__adddf3+0x16e>
   d8348:	320c      	adds	r2, #12
   d834a:	dd08      	ble.n	d835e <__adddf3+0x16a>
   d834c:	f102 0c14 	add.w	ip, r2, #20
   d8350:	f1c2 020c 	rsb	r2, r2, #12
   d8354:	fa01 f00c 	lsl.w	r0, r1, ip
   d8358:	fa21 f102 	lsr.w	r1, r1, r2
   d835c:	e00c      	b.n	d8378 <__adddf3+0x184>
   d835e:	f102 0214 	add.w	r2, r2, #20
   d8362:	bfd8      	it	le
   d8364:	f1c2 0c20 	rsble	ip, r2, #32
   d8368:	fa01 f102 	lsl.w	r1, r1, r2
   d836c:	fa20 fc0c 	lsr.w	ip, r0, ip
   d8370:	bfdc      	itt	le
   d8372:	ea41 010c 	orrle.w	r1, r1, ip
   d8376:	4090      	lslle	r0, r2
   d8378:	1ae4      	subs	r4, r4, r3
   d837a:	bfa2      	ittt	ge
   d837c:	eb01 5104 	addge.w	r1, r1, r4, lsl #20
   d8380:	4329      	orrge	r1, r5
   d8382:	bd30      	popge	{r4, r5, pc}
   d8384:	ea6f 0404 	mvn.w	r4, r4
   d8388:	3c1f      	subs	r4, #31
   d838a:	da1c      	bge.n	d83c6 <__adddf3+0x1d2>
   d838c:	340c      	adds	r4, #12
   d838e:	dc0e      	bgt.n	d83ae <__adddf3+0x1ba>
   d8390:	f104 0414 	add.w	r4, r4, #20
   d8394:	f1c4 0220 	rsb	r2, r4, #32
   d8398:	fa20 f004 	lsr.w	r0, r0, r4
   d839c:	fa01 f302 	lsl.w	r3, r1, r2
   d83a0:	ea40 0003 	orr.w	r0, r0, r3
   d83a4:	fa21 f304 	lsr.w	r3, r1, r4
   d83a8:	ea45 0103 	orr.w	r1, r5, r3
   d83ac:	bd30      	pop	{r4, r5, pc}
   d83ae:	f1c4 040c 	rsb	r4, r4, #12
   d83b2:	f1c4 0220 	rsb	r2, r4, #32
   d83b6:	fa20 f002 	lsr.w	r0, r0, r2
   d83ba:	fa01 f304 	lsl.w	r3, r1, r4
   d83be:	ea40 0003 	orr.w	r0, r0, r3
   d83c2:	4629      	mov	r1, r5
   d83c4:	bd30      	pop	{r4, r5, pc}
   d83c6:	fa21 f004 	lsr.w	r0, r1, r4
   d83ca:	4629      	mov	r1, r5
   d83cc:	bd30      	pop	{r4, r5, pc}
   d83ce:	f094 0f00 	teq	r4, #0
   d83d2:	f483 1380 	eor.w	r3, r3, #1048576	; 0x100000
   d83d6:	bf06      	itte	eq
   d83d8:	f481 1180 	eoreq.w	r1, r1, #1048576	; 0x100000
   d83dc:	3401      	addeq	r4, #1
   d83de:	3d01      	subne	r5, #1
   d83e0:	e74e      	b.n	d8280 <__adddf3+0x8c>
   d83e2:	ea7f 5c64 	mvns.w	ip, r4, asr #21
   d83e6:	bf18      	it	ne
   d83e8:	ea7f 5c65 	mvnsne.w	ip, r5, asr #21
   d83ec:	d029      	beq.n	d8442 <__adddf3+0x24e>
   d83ee:	ea94 0f05 	teq	r4, r5
   d83f2:	bf08      	it	eq
   d83f4:	ea90 0f02 	teqeq	r0, r2
   d83f8:	d005      	beq.n	d8406 <__adddf3+0x212>
   d83fa:	ea54 0c00 	orrs.w	ip, r4, r0
   d83fe:	bf04      	itt	eq
   d8400:	4619      	moveq	r1, r3
   d8402:	4610      	moveq	r0, r2
   d8404:	bd30      	pop	{r4, r5, pc}
   d8406:	ea91 0f03 	teq	r1, r3
   d840a:	bf1e      	ittt	ne
   d840c:	2100      	movne	r1, #0
   d840e:	2000      	movne	r0, #0
   d8410:	bd30      	popne	{r4, r5, pc}
   d8412:	ea5f 5c54 	movs.w	ip, r4, lsr #21
   d8416:	d105      	bne.n	d8424 <__adddf3+0x230>
   d8418:	0040      	lsls	r0, r0, #1
   d841a:	4149      	adcs	r1, r1
   d841c:	bf28      	it	cs
   d841e:	f041 4100 	orrcs.w	r1, r1, #2147483648	; 0x80000000
   d8422:	bd30      	pop	{r4, r5, pc}
   d8424:	f514 0480 	adds.w	r4, r4, #4194304	; 0x400000
   d8428:	bf3c      	itt	cc
   d842a:	f501 1180 	addcc.w	r1, r1, #1048576	; 0x100000
   d842e:	bd30      	popcc	{r4, r5, pc}
   d8430:	f001 4500 	and.w	r5, r1, #2147483648	; 0x80000000
   d8434:	f045 41fe 	orr.w	r1, r5, #2130706432	; 0x7f000000
   d8438:	f441 0170 	orr.w	r1, r1, #15728640	; 0xf00000
   d843c:	f04f 0000 	mov.w	r0, #0
   d8440:	bd30      	pop	{r4, r5, pc}
   d8442:	ea7f 5c64 	mvns.w	ip, r4, asr #21
   d8446:	bf1a      	itte	ne
   d8448:	4619      	movne	r1, r3
   d844a:	4610      	movne	r0, r2
   d844c:	ea7f 5c65 	mvnseq.w	ip, r5, asr #21
   d8450:	bf1c      	itt	ne
   d8452:	460b      	movne	r3, r1
   d8454:	4602      	movne	r2, r0
   d8456:	ea50 3401 	orrs.w	r4, r0, r1, lsl #12
   d845a:	bf06      	itte	eq
   d845c:	ea52 3503 	orrseq.w	r5, r2, r3, lsl #12
   d8460:	ea91 0f03 	teqeq	r1, r3
   d8464:	f441 2100 	orrne.w	r1, r1, #524288	; 0x80000
   d8468:	bd30      	pop	{r4, r5, pc}
   d846a:	bf00      	nop

000d846c <__aeabi_ui2d>:
   d846c:	f090 0f00 	teq	r0, #0
   d8470:	bf04      	itt	eq
   d8472:	2100      	moveq	r1, #0
   d8474:	4770      	bxeq	lr
   d8476:	b530      	push	{r4, r5, lr}
   d8478:	f44f 6480 	mov.w	r4, #1024	; 0x400
   d847c:	f104 0432 	add.w	r4, r4, #50	; 0x32
   d8480:	f04f 0500 	mov.w	r5, #0
   d8484:	f04f 0100 	mov.w	r1, #0
   d8488:	e750      	b.n	d832c <__adddf3+0x138>
   d848a:	bf00      	nop

000d848c <__aeabi_i2d>:
   d848c:	f090 0f00 	teq	r0, #0
   d8490:	bf04      	itt	eq
   d8492:	2100      	moveq	r1, #0
   d8494:	4770      	bxeq	lr
   d8496:	b530      	push	{r4, r5, lr}
   d8498:	f44f 6480 	mov.w	r4, #1024	; 0x400
   d849c:	f104 0432 	add.w	r4, r4, #50	; 0x32
   d84a0:	f010 4500 	ands.w	r5, r0, #2147483648	; 0x80000000
   d84a4:	bf48      	it	mi
   d84a6:	4240      	negmi	r0, r0
   d84a8:	f04f 0100 	mov.w	r1, #0
   d84ac:	e73e      	b.n	d832c <__adddf3+0x138>
   d84ae:	bf00      	nop

000d84b0 <__aeabi_f2d>:
   d84b0:	0042      	lsls	r2, r0, #1
   d84b2:	ea4f 01e2 	mov.w	r1, r2, asr #3
   d84b6:	ea4f 0131 	mov.w	r1, r1, rrx
   d84ba:	ea4f 7002 	mov.w	r0, r2, lsl #28
   d84be:	bf1f      	itttt	ne
   d84c0:	f012 437f 	andsne.w	r3, r2, #4278190080	; 0xff000000
   d84c4:	f093 4f7f 	teqne	r3, #4278190080	; 0xff000000
   d84c8:	f081 5160 	eorne.w	r1, r1, #939524096	; 0x38000000
   d84cc:	4770      	bxne	lr
   d84ce:	f092 0f00 	teq	r2, #0
   d84d2:	bf14      	ite	ne
   d84d4:	f093 4f7f 	teqne	r3, #4278190080	; 0xff000000
   d84d8:	4770      	bxeq	lr
   d84da:	b530      	push	{r4, r5, lr}
   d84dc:	f44f 7460 	mov.w	r4, #896	; 0x380
   d84e0:	f001 4500 	and.w	r5, r1, #2147483648	; 0x80000000
   d84e4:	f021 4100 	bic.w	r1, r1, #2147483648	; 0x80000000
   d84e8:	e720      	b.n	d832c <__adddf3+0x138>
   d84ea:	bf00      	nop

000d84ec <__aeabi_ul2d>:
   d84ec:	ea50 0201 	orrs.w	r2, r0, r1
   d84f0:	bf08      	it	eq
   d84f2:	4770      	bxeq	lr
   d84f4:	b530      	push	{r4, r5, lr}
   d84f6:	f04f 0500 	mov.w	r5, #0
   d84fa:	e00a      	b.n	d8512 <__aeabi_l2d+0x16>

000d84fc <__aeabi_l2d>:
   d84fc:	ea50 0201 	orrs.w	r2, r0, r1
   d8500:	bf08      	it	eq
   d8502:	4770      	bxeq	lr
   d8504:	b530      	push	{r4, r5, lr}
   d8506:	f011 4500 	ands.w	r5, r1, #2147483648	; 0x80000000
   d850a:	d502      	bpl.n	d8512 <__aeabi_l2d+0x16>
   d850c:	4240      	negs	r0, r0
   d850e:	eb61 0141 	sbc.w	r1, r1, r1, lsl #1
   d8512:	f44f 6480 	mov.w	r4, #1024	; 0x400
   d8516:	f104 0432 	add.w	r4, r4, #50	; 0x32
   d851a:	ea5f 5c91 	movs.w	ip, r1, lsr #22
   d851e:	f43f aedc 	beq.w	d82da <__adddf3+0xe6>
   d8522:	f04f 0203 	mov.w	r2, #3
   d8526:	ea5f 0cdc 	movs.w	ip, ip, lsr #3
   d852a:	bf18      	it	ne
   d852c:	3203      	addne	r2, #3
   d852e:	ea5f 0cdc 	movs.w	ip, ip, lsr #3
   d8532:	bf18      	it	ne
   d8534:	3203      	addne	r2, #3
   d8536:	eb02 02dc 	add.w	r2, r2, ip, lsr #3
   d853a:	f1c2 0320 	rsb	r3, r2, #32
   d853e:	fa00 fc03 	lsl.w	ip, r0, r3
   d8542:	fa20 f002 	lsr.w	r0, r0, r2
   d8546:	fa01 fe03 	lsl.w	lr, r1, r3
   d854a:	ea40 000e 	orr.w	r0, r0, lr
   d854e:	fa21 f102 	lsr.w	r1, r1, r2
   d8552:	4414      	add	r4, r2
   d8554:	e6c1      	b.n	d82da <__adddf3+0xe6>
   d8556:	bf00      	nop

000d8558 <__aeabi_dmul>:
   d8558:	b570      	push	{r4, r5, r6, lr}
   d855a:	f04f 0cff 	mov.w	ip, #255	; 0xff
   d855e:	f44c 6ce0 	orr.w	ip, ip, #1792	; 0x700
   d8562:	ea1c 5411 	ands.w	r4, ip, r1, lsr #20
   d8566:	bf1d      	ittte	ne
   d8568:	ea1c 5513 	andsne.w	r5, ip, r3, lsr #20
   d856c:	ea94 0f0c 	teqne	r4, ip
   d8570:	ea95 0f0c 	teqne	r5, ip
   d8574:	f000 f8de 	bleq	d8734 <__aeabi_dmul+0x1dc>
   d8578:	442c      	add	r4, r5
   d857a:	ea81 0603 	eor.w	r6, r1, r3
   d857e:	ea21 514c 	bic.w	r1, r1, ip, lsl #21
   d8582:	ea23 534c 	bic.w	r3, r3, ip, lsl #21
   d8586:	ea50 3501 	orrs.w	r5, r0, r1, lsl #12
   d858a:	bf18      	it	ne
   d858c:	ea52 3503 	orrsne.w	r5, r2, r3, lsl #12
   d8590:	f441 1180 	orr.w	r1, r1, #1048576	; 0x100000
   d8594:	f443 1380 	orr.w	r3, r3, #1048576	; 0x100000
   d8598:	d038      	beq.n	d860c <__aeabi_dmul+0xb4>
   d859a:	fba0 ce02 	umull	ip, lr, r0, r2
   d859e:	f04f 0500 	mov.w	r5, #0
   d85a2:	fbe1 e502 	umlal	lr, r5, r1, r2
   d85a6:	f006 4200 	and.w	r2, r6, #2147483648	; 0x80000000
   d85aa:	fbe0 e503 	umlal	lr, r5, r0, r3
   d85ae:	f04f 0600 	mov.w	r6, #0
   d85b2:	fbe1 5603 	umlal	r5, r6, r1, r3
   d85b6:	f09c 0f00 	teq	ip, #0
   d85ba:	bf18      	it	ne
   d85bc:	f04e 0e01 	orrne.w	lr, lr, #1
   d85c0:	f1a4 04ff 	sub.w	r4, r4, #255	; 0xff
   d85c4:	f5b6 7f00 	cmp.w	r6, #512	; 0x200
   d85c8:	f564 7440 	sbc.w	r4, r4, #768	; 0x300
   d85cc:	d204      	bcs.n	d85d8 <__aeabi_dmul+0x80>
   d85ce:	ea5f 0e4e 	movs.w	lr, lr, lsl #1
   d85d2:	416d      	adcs	r5, r5
   d85d4:	eb46 0606 	adc.w	r6, r6, r6
   d85d8:	ea42 21c6 	orr.w	r1, r2, r6, lsl #11
   d85dc:	ea41 5155 	orr.w	r1, r1, r5, lsr #21
   d85e0:	ea4f 20c5 	mov.w	r0, r5, lsl #11
   d85e4:	ea40 505e 	orr.w	r0, r0, lr, lsr #21
   d85e8:	ea4f 2ece 	mov.w	lr, lr, lsl #11
   d85ec:	f1b4 0cfd 	subs.w	ip, r4, #253	; 0xfd
   d85f0:	bf88      	it	hi
   d85f2:	f5bc 6fe0 	cmphi.w	ip, #1792	; 0x700
   d85f6:	d81e      	bhi.n	d8636 <__aeabi_dmul+0xde>
   d85f8:	f1be 4f00 	cmp.w	lr, #2147483648	; 0x80000000
   d85fc:	bf08      	it	eq
   d85fe:	ea5f 0e50 	movseq.w	lr, r0, lsr #1
   d8602:	f150 0000 	adcs.w	r0, r0, #0
   d8606:	eb41 5104 	adc.w	r1, r1, r4, lsl #20
   d860a:	bd70      	pop	{r4, r5, r6, pc}
   d860c:	f006 4600 	and.w	r6, r6, #2147483648	; 0x80000000
   d8610:	ea46 0101 	orr.w	r1, r6, r1
   d8614:	ea40 0002 	orr.w	r0, r0, r2
   d8618:	ea81 0103 	eor.w	r1, r1, r3
   d861c:	ebb4 045c 	subs.w	r4, r4, ip, lsr #1
   d8620:	bfc2      	ittt	gt
   d8622:	ebd4 050c 	rsbsgt	r5, r4, ip
   d8626:	ea41 5104 	orrgt.w	r1, r1, r4, lsl #20
   d862a:	bd70      	popgt	{r4, r5, r6, pc}
   d862c:	f441 1180 	orr.w	r1, r1, #1048576	; 0x100000
   d8630:	f04f 0e00 	mov.w	lr, #0
   d8634:	3c01      	subs	r4, #1
   d8636:	f300 80ab 	bgt.w	d8790 <__aeabi_dmul+0x238>
   d863a:	f114 0f36 	cmn.w	r4, #54	; 0x36
   d863e:	bfde      	ittt	le
   d8640:	2000      	movle	r0, #0
   d8642:	f001 4100 	andle.w	r1, r1, #2147483648	; 0x80000000
   d8646:	bd70      	pople	{r4, r5, r6, pc}
   d8648:	f1c4 0400 	rsb	r4, r4, #0
   d864c:	3c20      	subs	r4, #32
   d864e:	da35      	bge.n	d86bc <__aeabi_dmul+0x164>
   d8650:	340c      	adds	r4, #12
   d8652:	dc1b      	bgt.n	d868c <__aeabi_dmul+0x134>
   d8654:	f104 0414 	add.w	r4, r4, #20
   d8658:	f1c4 0520 	rsb	r5, r4, #32
   d865c:	fa00 f305 	lsl.w	r3, r0, r5
   d8660:	fa20 f004 	lsr.w	r0, r0, r4
   d8664:	fa01 f205 	lsl.w	r2, r1, r5
   d8668:	ea40 0002 	orr.w	r0, r0, r2
   d866c:	f001 4200 	and.w	r2, r1, #2147483648	; 0x80000000
   d8670:	f021 4100 	bic.w	r1, r1, #2147483648	; 0x80000000
   d8674:	eb10 70d3 	adds.w	r0, r0, r3, lsr #31
   d8678:	fa21 f604 	lsr.w	r6, r1, r4
   d867c:	eb42 0106 	adc.w	r1, r2, r6
   d8680:	ea5e 0e43 	orrs.w	lr, lr, r3, lsl #1
   d8684:	bf08      	it	eq
   d8686:	ea20 70d3 	biceq.w	r0, r0, r3, lsr #31
   d868a:	bd70      	pop	{r4, r5, r6, pc}
   d868c:	f1c4 040c 	rsb	r4, r4, #12
   d8690:	f1c4 0520 	rsb	r5, r4, #32
   d8694:	fa00 f304 	lsl.w	r3, r0, r4
   d8698:	fa20 f005 	lsr.w	r0, r0, r5
   d869c:	fa01 f204 	lsl.w	r2, r1, r4
   d86a0:	ea40 0002 	orr.w	r0, r0, r2
   d86a4:	f001 4100 	and.w	r1, r1, #2147483648	; 0x80000000
   d86a8:	eb10 70d3 	adds.w	r0, r0, r3, lsr #31
   d86ac:	f141 0100 	adc.w	r1, r1, #0
   d86b0:	ea5e 0e43 	orrs.w	lr, lr, r3, lsl #1
   d86b4:	bf08      	it	eq
   d86b6:	ea20 70d3 	biceq.w	r0, r0, r3, lsr #31
   d86ba:	bd70      	pop	{r4, r5, r6, pc}
   d86bc:	f1c4 0520 	rsb	r5, r4, #32
   d86c0:	fa00 f205 	lsl.w	r2, r0, r5
   d86c4:	ea4e 0e02 	orr.w	lr, lr, r2
   d86c8:	fa20 f304 	lsr.w	r3, r0, r4
   d86cc:	fa01 f205 	lsl.w	r2, r1, r5
   d86d0:	ea43 0302 	orr.w	r3, r3, r2
   d86d4:	fa21 f004 	lsr.w	r0, r1, r4
   d86d8:	f001 4100 	and.w	r1, r1, #2147483648	; 0x80000000
   d86dc:	fa21 f204 	lsr.w	r2, r1, r4
   d86e0:	ea20 0002 	bic.w	r0, r0, r2
   d86e4:	eb00 70d3 	add.w	r0, r0, r3, lsr #31
   d86e8:	ea5e 0e43 	orrs.w	lr, lr, r3, lsl #1
   d86ec:	bf08      	it	eq
   d86ee:	ea20 70d3 	biceq.w	r0, r0, r3, lsr #31
   d86f2:	bd70      	pop	{r4, r5, r6, pc}
   d86f4:	f094 0f00 	teq	r4, #0
   d86f8:	d10f      	bne.n	d871a <__aeabi_dmul+0x1c2>
   d86fa:	f001 4600 	and.w	r6, r1, #2147483648	; 0x80000000
   d86fe:	0040      	lsls	r0, r0, #1
   d8700:	eb41 0101 	adc.w	r1, r1, r1
   d8704:	f411 1f80 	tst.w	r1, #1048576	; 0x100000
   d8708:	bf08      	it	eq
   d870a:	3c01      	subeq	r4, #1
   d870c:	d0f7      	beq.n	d86fe <__aeabi_dmul+0x1a6>
   d870e:	ea41 0106 	orr.w	r1, r1, r6
   d8712:	f095 0f00 	teq	r5, #0
   d8716:	bf18      	it	ne
   d8718:	4770      	bxne	lr
   d871a:	f003 4600 	and.w	r6, r3, #2147483648	; 0x80000000
   d871e:	0052      	lsls	r2, r2, #1
   d8720:	eb43 0303 	adc.w	r3, r3, r3
   d8724:	f413 1f80 	tst.w	r3, #1048576	; 0x100000
   d8728:	bf08      	it	eq
   d872a:	3d01      	subeq	r5, #1
   d872c:	d0f7      	beq.n	d871e <__aeabi_dmul+0x1c6>
   d872e:	ea43 0306 	orr.w	r3, r3, r6
   d8732:	4770      	bx	lr
   d8734:	ea94 0f0c 	teq	r4, ip
   d8738:	ea0c 5513 	and.w	r5, ip, r3, lsr #20
   d873c:	bf18      	it	ne
   d873e:	ea95 0f0c 	teqne	r5, ip
   d8742:	d00c      	beq.n	d875e <__aeabi_dmul+0x206>
   d8744:	ea50 0641 	orrs.w	r6, r0, r1, lsl #1
   d8748:	bf18      	it	ne
   d874a:	ea52 0643 	orrsne.w	r6, r2, r3, lsl #1
   d874e:	d1d1      	bne.n	d86f4 <__aeabi_dmul+0x19c>
   d8750:	ea81 0103 	eor.w	r1, r1, r3
   d8754:	f001 4100 	and.w	r1, r1, #2147483648	; 0x80000000
   d8758:	f04f 0000 	mov.w	r0, #0
   d875c:	bd70      	pop	{r4, r5, r6, pc}
   d875e:	ea50 0641 	orrs.w	r6, r0, r1, lsl #1
   d8762:	bf06      	itte	eq
   d8764:	4610      	moveq	r0, r2
   d8766:	4619      	moveq	r1, r3
   d8768:	ea52 0643 	orrsne.w	r6, r2, r3, lsl #1
   d876c:	d019      	beq.n	d87a2 <__aeabi_dmul+0x24a>
   d876e:	ea94 0f0c 	teq	r4, ip
   d8772:	d102      	bne.n	d877a <__aeabi_dmul+0x222>
   d8774:	ea50 3601 	orrs.w	r6, r0, r1, lsl #12
   d8778:	d113      	bne.n	d87a2 <__aeabi_dmul+0x24a>
   d877a:	ea95 0f0c 	teq	r5, ip
   d877e:	d105      	bne.n	d878c <__aeabi_dmul+0x234>
   d8780:	ea52 3603 	orrs.w	r6, r2, r3, lsl #12
   d8784:	bf1c      	itt	ne
   d8786:	4610      	movne	r0, r2
   d8788:	4619      	movne	r1, r3
   d878a:	d10a      	bne.n	d87a2 <__aeabi_dmul+0x24a>
   d878c:	ea81 0103 	eor.w	r1, r1, r3
   d8790:	f001 4100 	and.w	r1, r1, #2147483648	; 0x80000000
   d8794:	f041 41fe 	orr.w	r1, r1, #2130706432	; 0x7f000000
   d8798:	f441 0170 	orr.w	r1, r1, #15728640	; 0xf00000
   d879c:	f04f 0000 	mov.w	r0, #0
   d87a0:	bd70      	pop	{r4, r5, r6, pc}
   d87a2:	f041 41fe 	orr.w	r1, r1, #2130706432	; 0x7f000000
   d87a6:	f441 0178 	orr.w	r1, r1, #16252928	; 0xf80000
   d87aa:	bd70      	pop	{r4, r5, r6, pc}

000d87ac <__aeabi_ddiv>:
   d87ac:	b570      	push	{r4, r5, r6, lr}
   d87ae:	f04f 0cff 	mov.w	ip, #255	; 0xff
   d87b2:	f44c 6ce0 	orr.w	ip, ip, #1792	; 0x700
   d87b6:	ea1c 5411 	ands.w	r4, ip, r1, lsr #20
   d87ba:	bf1d      	ittte	ne
   d87bc:	ea1c 5513 	andsne.w	r5, ip, r3, lsr #20
   d87c0:	ea94 0f0c 	teqne	r4, ip
   d87c4:	ea95 0f0c 	teqne	r5, ip
   d87c8:	f000 f8a7 	bleq	d891a <__aeabi_ddiv+0x16e>
   d87cc:	eba4 0405 	sub.w	r4, r4, r5
   d87d0:	ea81 0e03 	eor.w	lr, r1, r3
   d87d4:	ea52 3503 	orrs.w	r5, r2, r3, lsl #12
   d87d8:	ea4f 3101 	mov.w	r1, r1, lsl #12
   d87dc:	f000 8088 	beq.w	d88f0 <__aeabi_ddiv+0x144>
   d87e0:	ea4f 3303 	mov.w	r3, r3, lsl #12
   d87e4:	f04f 5580 	mov.w	r5, #268435456	; 0x10000000
   d87e8:	ea45 1313 	orr.w	r3, r5, r3, lsr #4
   d87ec:	ea43 6312 	orr.w	r3, r3, r2, lsr #24
   d87f0:	ea4f 2202 	mov.w	r2, r2, lsl #8
   d87f4:	ea45 1511 	orr.w	r5, r5, r1, lsr #4
   d87f8:	ea45 6510 	orr.w	r5, r5, r0, lsr #24
   d87fc:	ea4f 2600 	mov.w	r6, r0, lsl #8
   d8800:	f00e 4100 	and.w	r1, lr, #2147483648	; 0x80000000
   d8804:	429d      	cmp	r5, r3
   d8806:	bf08      	it	eq
   d8808:	4296      	cmpeq	r6, r2
   d880a:	f144 04fd 	adc.w	r4, r4, #253	; 0xfd
   d880e:	f504 7440 	add.w	r4, r4, #768	; 0x300
   d8812:	d202      	bcs.n	d881a <__aeabi_ddiv+0x6e>
   d8814:	085b      	lsrs	r3, r3, #1
   d8816:	ea4f 0232 	mov.w	r2, r2, rrx
   d881a:	1ab6      	subs	r6, r6, r2
   d881c:	eb65 0503 	sbc.w	r5, r5, r3
   d8820:	085b      	lsrs	r3, r3, #1
   d8822:	ea4f 0232 	mov.w	r2, r2, rrx
   d8826:	f44f 1080 	mov.w	r0, #1048576	; 0x100000
   d882a:	f44f 2c00 	mov.w	ip, #524288	; 0x80000
   d882e:	ebb6 0e02 	subs.w	lr, r6, r2
   d8832:	eb75 0e03 	sbcs.w	lr, r5, r3
   d8836:	bf22      	ittt	cs
   d8838:	1ab6      	subcs	r6, r6, r2
   d883a:	4675      	movcs	r5, lr
   d883c:	ea40 000c 	orrcs.w	r0, r0, ip
   d8840:	085b      	lsrs	r3, r3, #1
   d8842:	ea4f 0232 	mov.w	r2, r2, rrx
   d8846:	ebb6 0e02 	subs.w	lr, r6, r2
   d884a:	eb75 0e03 	sbcs.w	lr, r5, r3
   d884e:	bf22      	ittt	cs
   d8850:	1ab6      	subcs	r6, r6, r2
   d8852:	4675      	movcs	r5, lr
   d8854:	ea40 005c 	orrcs.w	r0, r0, ip, lsr #1
   d8858:	085b      	lsrs	r3, r3, #1
   d885a:	ea4f 0232 	mov.w	r2, r2, rrx
   d885e:	ebb6 0e02 	subs.w	lr, r6, r2
   d8862:	eb75 0e03 	sbcs.w	lr, r5, r3
   d8866:	bf22      	ittt	cs
   d8868:	1ab6      	subcs	r6, r6, r2
   d886a:	4675      	movcs	r5, lr
   d886c:	ea40 009c 	orrcs.w	r0, r0, ip, lsr #2
   d8870:	085b      	lsrs	r3, r3, #1
   d8872:	ea4f 0232 	mov.w	r2, r2, rrx
   d8876:	ebb6 0e02 	subs.w	lr, r6, r2
   d887a:	eb75 0e03 	sbcs.w	lr, r5, r3
   d887e:	bf22      	ittt	cs
   d8880:	1ab6      	subcs	r6, r6, r2
   d8882:	4675      	movcs	r5, lr
   d8884:	ea40 00dc 	orrcs.w	r0, r0, ip, lsr #3
   d8888:	ea55 0e06 	orrs.w	lr, r5, r6
   d888c:	d018      	beq.n	d88c0 <__aeabi_ddiv+0x114>
   d888e:	ea4f 1505 	mov.w	r5, r5, lsl #4
   d8892:	ea45 7516 	orr.w	r5, r5, r6, lsr #28
   d8896:	ea4f 1606 	mov.w	r6, r6, lsl #4
   d889a:	ea4f 03c3 	mov.w	r3, r3, lsl #3
   d889e:	ea43 7352 	orr.w	r3, r3, r2, lsr #29
   d88a2:	ea4f 02c2 	mov.w	r2, r2, lsl #3
   d88a6:	ea5f 1c1c 	movs.w	ip, ip, lsr #4
   d88aa:	d1c0      	bne.n	d882e <__aeabi_ddiv+0x82>
   d88ac:	f411 1f80 	tst.w	r1, #1048576	; 0x100000
   d88b0:	d10b      	bne.n	d88ca <__aeabi_ddiv+0x11e>
   d88b2:	ea41 0100 	orr.w	r1, r1, r0
   d88b6:	f04f 0000 	mov.w	r0, #0
   d88ba:	f04f 4c00 	mov.w	ip, #2147483648	; 0x80000000
   d88be:	e7b6      	b.n	d882e <__aeabi_ddiv+0x82>
   d88c0:	f411 1f80 	tst.w	r1, #1048576	; 0x100000
   d88c4:	bf04      	itt	eq
   d88c6:	4301      	orreq	r1, r0
   d88c8:	2000      	moveq	r0, #0
   d88ca:	f1b4 0cfd 	subs.w	ip, r4, #253	; 0xfd
   d88ce:	bf88      	it	hi
   d88d0:	f5bc 6fe0 	cmphi.w	ip, #1792	; 0x700
   d88d4:	f63f aeaf 	bhi.w	d8636 <__aeabi_dmul+0xde>
   d88d8:	ebb5 0c03 	subs.w	ip, r5, r3
   d88dc:	bf04      	itt	eq
   d88de:	ebb6 0c02 	subseq.w	ip, r6, r2
   d88e2:	ea5f 0c50 	movseq.w	ip, r0, lsr #1
   d88e6:	f150 0000 	adcs.w	r0, r0, #0
   d88ea:	eb41 5104 	adc.w	r1, r1, r4, lsl #20
   d88ee:	bd70      	pop	{r4, r5, r6, pc}
   d88f0:	f00e 4e00 	and.w	lr, lr, #2147483648	; 0x80000000
   d88f4:	ea4e 3111 	orr.w	r1, lr, r1, lsr #12
   d88f8:	eb14 045c 	adds.w	r4, r4, ip, lsr #1
   d88fc:	bfc2      	ittt	gt
   d88fe:	ebd4 050c 	rsbsgt	r5, r4, ip
   d8902:	ea41 5104 	orrgt.w	r1, r1, r4, lsl #20
   d8906:	bd70      	popgt	{r4, r5, r6, pc}
   d8908:	f441 1180 	orr.w	r1, r1, #1048576	; 0x100000
   d890c:	f04f 0e00 	mov.w	lr, #0
   d8910:	3c01      	subs	r4, #1
   d8912:	e690      	b.n	d8636 <__aeabi_dmul+0xde>
   d8914:	ea45 0e06 	orr.w	lr, r5, r6
   d8918:	e68d      	b.n	d8636 <__aeabi_dmul+0xde>
   d891a:	ea0c 5513 	and.w	r5, ip, r3, lsr #20
   d891e:	ea94 0f0c 	teq	r4, ip
   d8922:	bf08      	it	eq
   d8924:	ea95 0f0c 	teqeq	r5, ip
   d8928:	f43f af3b 	beq.w	d87a2 <__aeabi_dmul+0x24a>
   d892c:	ea94 0f0c 	teq	r4, ip
   d8930:	d10a      	bne.n	d8948 <__aeabi_ddiv+0x19c>
   d8932:	ea50 3401 	orrs.w	r4, r0, r1, lsl #12
   d8936:	f47f af34 	bne.w	d87a2 <__aeabi_dmul+0x24a>
   d893a:	ea95 0f0c 	teq	r5, ip
   d893e:	f47f af25 	bne.w	d878c <__aeabi_dmul+0x234>
   d8942:	4610      	mov	r0, r2
   d8944:	4619      	mov	r1, r3
   d8946:	e72c      	b.n	d87a2 <__aeabi_dmul+0x24a>
   d8948:	ea95 0f0c 	teq	r5, ip
   d894c:	d106      	bne.n	d895c <__aeabi_ddiv+0x1b0>
   d894e:	ea52 3503 	orrs.w	r5, r2, r3, lsl #12
   d8952:	f43f aefd 	beq.w	d8750 <__aeabi_dmul+0x1f8>
   d8956:	4610      	mov	r0, r2
   d8958:	4619      	mov	r1, r3
   d895a:	e722      	b.n	d87a2 <__aeabi_dmul+0x24a>
   d895c:	ea50 0641 	orrs.w	r6, r0, r1, lsl #1
   d8960:	bf18      	it	ne
   d8962:	ea52 0643 	orrsne.w	r6, r2, r3, lsl #1
   d8966:	f47f aec5 	bne.w	d86f4 <__aeabi_dmul+0x19c>
   d896a:	ea50 0441 	orrs.w	r4, r0, r1, lsl #1
   d896e:	f47f af0d 	bne.w	d878c <__aeabi_dmul+0x234>
   d8972:	ea52 0543 	orrs.w	r5, r2, r3, lsl #1
   d8976:	f47f aeeb 	bne.w	d8750 <__aeabi_dmul+0x1f8>
   d897a:	e712      	b.n	d87a2 <__aeabi_dmul+0x24a>

000d897c <__gedf2>:
   d897c:	f04f 3cff 	mov.w	ip, #4294967295
   d8980:	e006      	b.n	d8990 <__cmpdf2+0x4>
   d8982:	bf00      	nop

000d8984 <__ledf2>:
   d8984:	f04f 0c01 	mov.w	ip, #1
   d8988:	e002      	b.n	d8990 <__cmpdf2+0x4>
   d898a:	bf00      	nop

000d898c <__cmpdf2>:
   d898c:	f04f 0c01 	mov.w	ip, #1
   d8990:	f84d cd04 	str.w	ip, [sp, #-4]!
   d8994:	ea4f 0c41 	mov.w	ip, r1, lsl #1
   d8998:	ea7f 5c6c 	mvns.w	ip, ip, asr #21
   d899c:	ea4f 0c43 	mov.w	ip, r3, lsl #1
   d89a0:	bf18      	it	ne
   d89a2:	ea7f 5c6c 	mvnsne.w	ip, ip, asr #21
   d89a6:	d01b      	beq.n	d89e0 <__cmpdf2+0x54>
   d89a8:	b001      	add	sp, #4
   d89aa:	ea50 0c41 	orrs.w	ip, r0, r1, lsl #1
   d89ae:	bf0c      	ite	eq
   d89b0:	ea52 0c43 	orrseq.w	ip, r2, r3, lsl #1
   d89b4:	ea91 0f03 	teqne	r1, r3
   d89b8:	bf02      	ittt	eq
   d89ba:	ea90 0f02 	teqeq	r0, r2
   d89be:	2000      	moveq	r0, #0
   d89c0:	4770      	bxeq	lr
   d89c2:	f110 0f00 	cmn.w	r0, #0
   d89c6:	ea91 0f03 	teq	r1, r3
   d89ca:	bf58      	it	pl
   d89cc:	4299      	cmppl	r1, r3
   d89ce:	bf08      	it	eq
   d89d0:	4290      	cmpeq	r0, r2
   d89d2:	bf2c      	ite	cs
   d89d4:	17d8      	asrcs	r0, r3, #31
   d89d6:	ea6f 70e3 	mvncc.w	r0, r3, asr #31
   d89da:	f040 0001 	orr.w	r0, r0, #1
   d89de:	4770      	bx	lr
   d89e0:	ea4f 0c41 	mov.w	ip, r1, lsl #1
   d89e4:	ea7f 5c6c 	mvns.w	ip, ip, asr #21
   d89e8:	d102      	bne.n	d89f0 <__cmpdf2+0x64>
   d89ea:	ea50 3c01 	orrs.w	ip, r0, r1, lsl #12
   d89ee:	d107      	bne.n	d8a00 <__cmpdf2+0x74>
   d89f0:	ea4f 0c43 	mov.w	ip, r3, lsl #1
   d89f4:	ea7f 5c6c 	mvns.w	ip, ip, asr #21
   d89f8:	d1d6      	bne.n	d89a8 <__cmpdf2+0x1c>
   d89fa:	ea52 3c03 	orrs.w	ip, r2, r3, lsl #12
   d89fe:	d0d3      	beq.n	d89a8 <__cmpdf2+0x1c>
   d8a00:	f85d 0b04 	ldr.w	r0, [sp], #4
   d8a04:	4770      	bx	lr
   d8a06:	bf00      	nop

000d8a08 <__aeabi_cdrcmple>:
   d8a08:	4684      	mov	ip, r0
   d8a0a:	4610      	mov	r0, r2
   d8a0c:	4662      	mov	r2, ip
   d8a0e:	468c      	mov	ip, r1
   d8a10:	4619      	mov	r1, r3
   d8a12:	4663      	mov	r3, ip
   d8a14:	e000      	b.n	d8a18 <__aeabi_cdcmpeq>
   d8a16:	bf00      	nop

000d8a18 <__aeabi_cdcmpeq>:
   d8a18:	b501      	push	{r0, lr}
   d8a1a:	f7ff ffb7 	bl	d898c <__cmpdf2>
   d8a1e:	2800      	cmp	r0, #0
   d8a20:	bf48      	it	mi
   d8a22:	f110 0f00 	cmnmi.w	r0, #0
   d8a26:	bd01      	pop	{r0, pc}

000d8a28 <__aeabi_dcmpeq>:
   d8a28:	f84d ed08 	str.w	lr, [sp, #-8]!
   d8a2c:	f7ff fff4 	bl	d8a18 <__aeabi_cdcmpeq>
   d8a30:	bf0c      	ite	eq
   d8a32:	2001      	moveq	r0, #1
   d8a34:	2000      	movne	r0, #0
   d8a36:	f85d fb08 	ldr.w	pc, [sp], #8
   d8a3a:	bf00      	nop

000d8a3c <__aeabi_dcmplt>:
   d8a3c:	f84d ed08 	str.w	lr, [sp, #-8]!
   d8a40:	f7ff ffea 	bl	d8a18 <__aeabi_cdcmpeq>
   d8a44:	bf34      	ite	cc
   d8a46:	2001      	movcc	r0, #1
   d8a48:	2000      	movcs	r0, #0
   d8a4a:	f85d fb08 	ldr.w	pc, [sp], #8
   d8a4e:	bf00      	nop

000d8a50 <__aeabi_dcmple>:
   d8a50:	f84d ed08 	str.w	lr, [sp, #-8]!
   d8a54:	f7ff ffe0 	bl	d8a18 <__aeabi_cdcmpeq>
   d8a58:	bf94      	ite	ls
   d8a5a:	2001      	movls	r0, #1
   d8a5c:	2000      	movhi	r0, #0
   d8a5e:	f85d fb08 	ldr.w	pc, [sp], #8
   d8a62:	bf00      	nop

000d8a64 <__aeabi_dcmpge>:
   d8a64:	f84d ed08 	str.w	lr, [sp, #-8]!
   d8a68:	f7ff ffce 	bl	d8a08 <__aeabi_cdrcmple>
   d8a6c:	bf94      	ite	ls
   d8a6e:	2001      	movls	r0, #1
   d8a70:	2000      	movhi	r0, #0
   d8a72:	f85d fb08 	ldr.w	pc, [sp], #8
   d8a76:	bf00      	nop

000d8a78 <__aeabi_dcmpgt>:
   d8a78:	f84d ed08 	str.w	lr, [sp, #-8]!
   d8a7c:	f7ff ffc4 	bl	d8a08 <__aeabi_cdrcmple>
   d8a80:	bf34      	ite	cc
   d8a82:	2001      	movcc	r0, #1
   d8a84:	2000      	movcs	r0, #0
   d8a86:	f85d fb08 	ldr.w	pc, [sp], #8
   d8a8a:	bf00      	nop

000d8a8c <__aeabi_dcmpun>:
   d8a8c:	ea4f 0c41 	mov.w	ip, r1, lsl #1
   d8a90:	ea7f 5c6c 	mvns.w	ip, ip, asr #21
   d8a94:	d102      	bne.n	d8a9c <__aeabi_dcmpun+0x10>
   d8a96:	ea50 3c01 	orrs.w	ip, r0, r1, lsl #12
   d8a9a:	d10a      	bne.n	d8ab2 <__aeabi_dcmpun+0x26>
   d8a9c:	ea4f 0c43 	mov.w	ip, r3, lsl #1
   d8aa0:	ea7f 5c6c 	mvns.w	ip, ip, asr #21
   d8aa4:	d102      	bne.n	d8aac <__aeabi_dcmpun+0x20>
   d8aa6:	ea52 3c03 	orrs.w	ip, r2, r3, lsl #12
   d8aaa:	d102      	bne.n	d8ab2 <__aeabi_dcmpun+0x26>
   d8aac:	f04f 0000 	mov.w	r0, #0
   d8ab0:	4770      	bx	lr
   d8ab2:	f04f 0001 	mov.w	r0, #1
   d8ab6:	4770      	bx	lr

000d8ab8 <__aeabi_d2f>:
   d8ab8:	ea4f 0241 	mov.w	r2, r1, lsl #1
   d8abc:	f1b2 43e0 	subs.w	r3, r2, #1879048192	; 0x70000000
   d8ac0:	bf24      	itt	cs
   d8ac2:	f5b3 1c00 	subscs.w	ip, r3, #2097152	; 0x200000
   d8ac6:	f1dc 5cfe 	rsbscs	ip, ip, #532676608	; 0x1fc00000
   d8aca:	d90d      	bls.n	d8ae8 <__aeabi_d2f+0x30>
   d8acc:	f001 4c00 	and.w	ip, r1, #2147483648	; 0x80000000
   d8ad0:	ea4f 02c0 	mov.w	r2, r0, lsl #3
   d8ad4:	ea4c 7050 	orr.w	r0, ip, r0, lsr #29
   d8ad8:	f1b2 4f00 	cmp.w	r2, #2147483648	; 0x80000000
   d8adc:	eb40 0083 	adc.w	r0, r0, r3, lsl #2
   d8ae0:	bf08      	it	eq
   d8ae2:	f020 0001 	biceq.w	r0, r0, #1
   d8ae6:	4770      	bx	lr
   d8ae8:	f011 4f80 	tst.w	r1, #1073741824	; 0x40000000
   d8aec:	d121      	bne.n	d8b32 <__aeabi_d2f+0x7a>
   d8aee:	f113 7238 	adds.w	r2, r3, #48234496	; 0x2e00000
   d8af2:	bfbc      	itt	lt
   d8af4:	f001 4000 	andlt.w	r0, r1, #2147483648	; 0x80000000
   d8af8:	4770      	bxlt	lr
   d8afa:	f441 1180 	orr.w	r1, r1, #1048576	; 0x100000
   d8afe:	ea4f 5252 	mov.w	r2, r2, lsr #21
   d8b02:	f1c2 0218 	rsb	r2, r2, #24
   d8b06:	f1c2 0c20 	rsb	ip, r2, #32
   d8b0a:	fa10 f30c 	lsls.w	r3, r0, ip
   d8b0e:	fa20 f002 	lsr.w	r0, r0, r2
   d8b12:	bf18      	it	ne
   d8b14:	f040 0001 	orrne.w	r0, r0, #1
   d8b18:	ea4f 23c1 	mov.w	r3, r1, lsl #11
   d8b1c:	ea4f 23d3 	mov.w	r3, r3, lsr #11
   d8b20:	fa03 fc0c 	lsl.w	ip, r3, ip
   d8b24:	ea40 000c 	orr.w	r0, r0, ip
   d8b28:	fa23 f302 	lsr.w	r3, r3, r2
   d8b2c:	ea4f 0343 	mov.w	r3, r3, lsl #1
   d8b30:	e7cc      	b.n	d8acc <__aeabi_d2f+0x14>
   d8b32:	ea7f 5362 	mvns.w	r3, r2, asr #21
   d8b36:	d107      	bne.n	d8b48 <__aeabi_d2f+0x90>
   d8b38:	ea50 3301 	orrs.w	r3, r0, r1, lsl #12
   d8b3c:	bf1e      	ittt	ne
   d8b3e:	f04f 40fe 	movne.w	r0, #2130706432	; 0x7f000000
   d8b42:	f440 0040 	orrne.w	r0, r0, #12582912	; 0xc00000
   d8b46:	4770      	bxne	lr
   d8b48:	f001 4000 	and.w	r0, r1, #2147483648	; 0x80000000
   d8b4c:	f040 40fe 	orr.w	r0, r0, #2130706432	; 0x7f000000
   d8b50:	f440 0000 	orr.w	r0, r0, #8388608	; 0x800000
   d8b54:	4770      	bx	lr
   d8b56:	bf00      	nop

000d8b58 <__cxa_atexit>:
   d8b58:	b510      	push	{r4, lr}
   d8b5a:	4c05      	ldr	r4, [pc, #20]	; (d8b70 <__cxa_atexit+0x18>)
   d8b5c:	4613      	mov	r3, r2
   d8b5e:	b12c      	cbz	r4, d8b6c <__cxa_atexit+0x14>
   d8b60:	460a      	mov	r2, r1
   d8b62:	4601      	mov	r1, r0
   d8b64:	2002      	movs	r0, #2
   d8b66:	f3af 8000 	nop.w
   d8b6a:	bd10      	pop	{r4, pc}
   d8b6c:	4620      	mov	r0, r4
   d8b6e:	bd10      	pop	{r4, pc}
   d8b70:	00000000 	.word	0x00000000

000d8b74 <memcpy>:
   d8b74:	b510      	push	{r4, lr}
   d8b76:	1e43      	subs	r3, r0, #1
   d8b78:	440a      	add	r2, r1
   d8b7a:	4291      	cmp	r1, r2
   d8b7c:	d004      	beq.n	d8b88 <memcpy+0x14>
   d8b7e:	f811 4b01 	ldrb.w	r4, [r1], #1
   d8b82:	f803 4f01 	strb.w	r4, [r3, #1]!
   d8b86:	e7f8      	b.n	d8b7a <memcpy+0x6>
   d8b88:	bd10      	pop	{r4, pc}

000d8b8a <memset>:
   d8b8a:	4402      	add	r2, r0
   d8b8c:	4603      	mov	r3, r0
   d8b8e:	4293      	cmp	r3, r2
   d8b90:	d002      	beq.n	d8b98 <memset+0xe>
   d8b92:	f803 1b01 	strb.w	r1, [r3], #1
   d8b96:	e7fa      	b.n	d8b8e <memset+0x4>
   d8b98:	4770      	bx	lr
	...

000d8b9c <srand>:
   d8b9c:	b538      	push	{r3, r4, r5, lr}
   d8b9e:	4b12      	ldr	r3, [pc, #72]	; (d8be8 <srand+0x4c>)
   d8ba0:	681c      	ldr	r4, [r3, #0]
   d8ba2:	6ba3      	ldr	r3, [r4, #56]	; 0x38
   d8ba4:	4605      	mov	r5, r0
   d8ba6:	b9d3      	cbnz	r3, d8bde <srand+0x42>
   d8ba8:	2018      	movs	r0, #24
   d8baa:	f7fd fb91 	bl	d62d0 <malloc>
   d8bae:	f243 330e 	movw	r3, #13070	; 0x330e
   d8bb2:	63a0      	str	r0, [r4, #56]	; 0x38
   d8bb4:	8003      	strh	r3, [r0, #0]
   d8bb6:	f64a 33cd 	movw	r3, #43981	; 0xabcd
   d8bba:	8043      	strh	r3, [r0, #2]
   d8bbc:	f241 2334 	movw	r3, #4660	; 0x1234
   d8bc0:	8083      	strh	r3, [r0, #4]
   d8bc2:	f24e 636d 	movw	r3, #58989	; 0xe66d
   d8bc6:	80c3      	strh	r3, [r0, #6]
   d8bc8:	f64d 63ec 	movw	r3, #57068	; 0xdeec
   d8bcc:	8103      	strh	r3, [r0, #8]
   d8bce:	2305      	movs	r3, #5
   d8bd0:	8143      	strh	r3, [r0, #10]
   d8bd2:	230b      	movs	r3, #11
   d8bd4:	8183      	strh	r3, [r0, #12]
   d8bd6:	2201      	movs	r2, #1
   d8bd8:	2300      	movs	r3, #0
   d8bda:	e9c0 2304 	strd	r2, r3, [r0, #16]
   d8bde:	6ba3      	ldr	r3, [r4, #56]	; 0x38
   d8be0:	2200      	movs	r2, #0
   d8be2:	611d      	str	r5, [r3, #16]
   d8be4:	615a      	str	r2, [r3, #20]
   d8be6:	bd38      	pop	{r3, r4, r5, pc}
   d8be8:	2003d61c 	.word	0x2003d61c

000d8bec <strcpy>:
   d8bec:	4603      	mov	r3, r0
   d8bee:	f811 2b01 	ldrb.w	r2, [r1], #1
   d8bf2:	f803 2b01 	strb.w	r2, [r3], #1
   d8bf6:	2a00      	cmp	r2, #0
   d8bf8:	d1f9      	bne.n	d8bee <strcpy+0x2>
   d8bfa:	4770      	bx	lr

000d8bfc <strdup>:
   d8bfc:	4b02      	ldr	r3, [pc, #8]	; (d8c08 <strdup+0xc>)
   d8bfe:	4601      	mov	r1, r0
   d8c00:	6818      	ldr	r0, [r3, #0]
   d8c02:	f000 b803 	b.w	d8c0c <_strdup_r>
   d8c06:	bf00      	nop
   d8c08:	2003d61c 	.word	0x2003d61c

000d8c0c <_strdup_r>:
   d8c0c:	b570      	push	{r4, r5, r6, lr}
   d8c0e:	4606      	mov	r6, r0
   d8c10:	4608      	mov	r0, r1
   d8c12:	460c      	mov	r4, r1
   d8c14:	f000 f80d 	bl	d8c32 <strlen>
   d8c18:	1c45      	adds	r5, r0, #1
   d8c1a:	4629      	mov	r1, r5
   d8c1c:	4630      	mov	r0, r6
   d8c1e:	f7fd fb87 	bl	d6330 <_malloc_r>
   d8c22:	4606      	mov	r6, r0
   d8c24:	b118      	cbz	r0, d8c2e <_strdup_r+0x22>
   d8c26:	462a      	mov	r2, r5
   d8c28:	4621      	mov	r1, r4
   d8c2a:	f7ff ffa3 	bl	d8b74 <memcpy>
   d8c2e:	4630      	mov	r0, r6
   d8c30:	bd70      	pop	{r4, r5, r6, pc}

000d8c32 <strlen>:
   d8c32:	4603      	mov	r3, r0
   d8c34:	f813 2b01 	ldrb.w	r2, [r3], #1
   d8c38:	2a00      	cmp	r2, #0
   d8c3a:	d1fb      	bne.n	d8c34 <strlen+0x2>
   d8c3c:	1a18      	subs	r0, r3, r0
   d8c3e:	3801      	subs	r0, #1
   d8c40:	4770      	bx	lr

000d8c42 <link_code_end>:
	...

000d8c44 <dynalib_user>:
   d8c44:	4021 000d 405d 000d 4089 000d 408d 000d     !@..]@...@...@..
   d8c54:	0000 0000 6954 656d 203a 3025 6932 253a     ....Time: %02i:%
   d8c64:	3230 3a69 3025 6932 253a 3330 0a69 4400     02i:%02i:%03i..D
   d8c74:	7461 7365 203a 3025 6932 252d 3230 2d69     ates: %02i-%02i-
   d8c84:	3025 6932 000a 6946 3a78 2520 2c69 5120     %02i..Fix: %i, Q
   d8c94:	6175 696c 7974 203a 6925 7400 6d65 4370     uality: %i.tempC
   d8ca4:	203a 6625 7420 6d65 4670 203a 6625 6320     : %f tempF: %f c
   d8cb4:	756f 746e 7265 203a 6925 6420 7665 6369     ounter: %i devic
   d8cc4:	4965 3a44 2520 0a73 7600 6c6f 6174 6567     eID: %s..voltage
   d8cd4:	203a 6625 000a 6573 646e 7220 7065 796c     : %f..send reply
   d8ce4:	203a 7325 000a 6573 646e 6144 6174 2928     : %s..sendData()
   d8cf4:	4100 2b54 4553 444e 253d 2c69 6925 252c     .AT+SEND=%i,%i,%
   d8d04:	2e30 6632 252c 2e30 6632 252c 0d69 000a     0.2f,%0.2f,%i...
   d8d14:	7263 6165 6574 7542 6666 7265 203a 7325     createBuffer: %s
   d8d24:	6300 6572 7461 4265 6675 6566 2872 0029     .createBuffer().
   d8d34:	5441 532b 4e45 3d44 6925 362c 2c30 6625     AT+SEND=%i,60,%f
   d8d44:	252c 2c66 6925 0a0d 5300 6e65 2064 6572     ,%f,%i...Send re
   d8d54:	6c70 3a79 2520 0a73 4100 2b54 4f4d 4544     ply: %s..AT+MODE
   d8d64:	303d 0a0d 4100 6177 7469 6e69 2067 6552     =0...Awaiting Re
   d8d74:	6c70 2079 7266 6d6f 7220 7965 7861 6e4f     ply from reyaxOn
   d8d84:	2928 000a 6552 6c70 3a79 2520 0a73 4100     ()..Reply: %s..A
   d8d94:	2b54 4f4d 4544 0d3f 000a 7741 6961 6974     T+MODE?...Awaiti
   d8da4:	676e 5220 7065 796c 6620 6f72 206d 6f6d     ng Reply from mo
   d8db4:	6564 0a3f 4100 2b54 4f4d 4544 313d 0a0d     de?..AT+MODE=1..
   d8dc4:	5000 776f 7265 6e69 2067 6f64 6e77 2e2e     .Powering down..
   d8dd4:	0a2e 5300 6174 7472 6e69 2067 6353 6e61     ...Starting Scan
   d8de4:	203a 2d0a 2d2d 2d2d 2d2d 2d2d 2d2d 2d2d     : .-------------
   d8df4:	202d 000a 3249 2043 6564 6976 6563 6620     - ..I2C device f
   d8e04:	756f 646e 6120 2074 6461 7264 7365 2073     ound at address 
   d8e14:	7830 3025 7832 0a20 5500 6b6e 6f6e 6e77     0x%02x ..Unknown
   d8e24:	6520 7272 726f 6120 2074 6461 7264 7365      error at addres
   d8e34:	2073 7830 3025 7832 0a20 4e00 206f 3249     s 0x%02x ..No I2
   d8e44:	2043 6564 6976 6563 2073 6f66 6e75 0a64     C devices found.
   d8e54:	2d00 2d2d 2d2d 2d2d 2d2d 2d2d 2d2d 202d     .-------------- 
   d8e64:	530a 6163 206e 6f43 706d 656c 6574 0a21     .Scan Complete!.
   d8e74:	4100 0d54 000a 7461 6554 7473 7220 7065     .AT...atTest rep
   d8e84:	796c 203a 7325 000a 7461 6554 7473 2928     ly: %s..atTest()
   d8e94:	4100 2b54 4552 4553 0d54 000a 6f73 7466     .AT+RESET...soft
   d8ea4:	6177 6572 6552 6573 2874 0029 6f73 7466     wareReset().soft
   d8eb4:	6177 6572 6552 6573 2874 3229 6100 4d74     wareReset()2.atM
   d8ec4:	646f 2065 6572 6c70 3a79 2520 2073 6572     ode reply: %s re
   d8ed4:	6c70 3279 203a 7325 000a 7461 6f4d 6564     ply2: %s..atMode
   d8ee4:	2928 4100 6177 7469 6e69 2067 6552 6c70     ().Awaiting Repl
   d8ef4:	0a79 5200 7065 796c 4120 2b54 4f4d 4544     y..Reply AT+MODE
   d8f04:	3a3f 2520 0a73 4100 2b54 4f4d 4544 003f     ?: %s..AT+MODE?.
   d8f14:	5441 502b 5241 4d41 5445 5245 313d 2c32     AT+PARAMETER=12,
   d8f24:	2c37 2c31 0d37 000a 6573 5274 6461 6f69     7,1,7...setRadio
   d8f34:	4100 2b54 4150 4152 454d 4554 3f52 0a0d     .AT+PARAMETER?..
   d8f44:	5200 7065 796c 4120 2b54 4150 4152 454d     .Reply AT+PARAME
   d8f54:	4554 3f52 203a 7325 000a 6573 5074 7261     TER?: %s..setPar
   d8f64:	6d61 7465 7265 003f 5441 422b 4e41 3d44     ameter?.AT+BAND=
   d8f74:	3139 3035 3030 3030 0d30 000a 5441 422b     915000000...AT+B
   d8f84:	4e41 3d44 3638 3538 3030 3030 0d30 000a     AND=868500000...
   d8f94:	6573 4274 6e61 0064 5441 422b 4e41 3f44     setBand.AT+BAND?
   d8fa4:	0a0d 5200 7065 796c 4120 2b54 4142 444e     ...Reply AT+BAND
   d8fb4:	3a3f 2520 0a73 4100 2b54 4142 444e 003f     ?: %s..AT+BAND?.
   d8fc4:	4142 3134 3430 3330 3932 3836 4142 3131     BA4104032968BA11
   d8fd4:	3431 3932 3039 3937 3230 3531 3439 4141     14299079021594AA
   d8fe4:	4100 2b54 5043 4e49 253d 0d73 000a 6573     .AT+CPIN=%s...se
   d8ff4:	4374 4950 004e 5441 432b 4950 3f4e 0a0d     tCPIN.AT+CPIN?..
   d9004:	5200 7065 796c 4320 4950 3a4e 2520 0a73     .Reply CPIN: %s.
   d9014:	4100 2b54 5043 4e49 003f 5441 532b 4e45     .AT+CPIN?.AT+SEN
   d9024:	0044 5441 532b 4e45 3f44 0a0d 5200 7065     D.AT+SEND?...Rep
   d9034:	796c 4120 2b54 4553 444e 3a3f 2520 0a73     ly AT+SEND?: %s.
   d9044:	4100 2b54 4553 444e 003f 7441 562b 5245     .AT+SEND?.At+VER
   d9054:	0d3f 000a 6572 6c70 2079 7361 566b 5245     ?...reply askVER
   d9064:	2928 203a 7325 000a 7361 566b 5245 4100     (): %s..askVER.A
   d9074:	2b74 4955 3f44 0a0d 7200 7065 796c 6120     t+UID?...reply a
   d9084:	6b73 4955 2844 3a29 2520 0a73 6100 6b73     skUID(): %s..ask
   d9094:	4955 0044 5441 462b 4341 4f54 5952 0a0d     UID.AT+FACTORY..
   d90a4:	7200 7065 796c 4120 2b54 4146 5443 524f     .reply AT+FACTOR
   d90b4:	3a59 2520 0a73 4100 2b54 4146 5443 524f     Y: %s..AT+FACTOR
   d90c4:	0059 5441 492b 5250 253d 0d69 000a 6573     Y.AT+IPR=%i...se
   d90d4:	4974 5250 4100 2b54 5049 3f52 0a0d 5200     tIPR.AT+IPR?...R
   d90e4:	7065 796c 4120 2b54 5049 3f52 203a 7325     eply AT+IPR?: %s
   d90f4:	000a 5441 492b 5250 003f 5441 412b 4444     ..AT+IPR?.AT+ADD
   d9104:	4552 5353 253d 0d69 000a 6573 4174 6464     RESS=%i...setAdd
   d9114:	6572 7373 4100 2b54 4441 5244 5345 3f53     ress.AT+ADDRESS?
   d9124:	0a0d 5200 7065 796c 6720 7465 6120 6464     ...Reply get add
   d9134:	6572 7373 203a 7325 000a 5441 412b 4444     ress: %s..AT+ADD
   d9144:	4552 5353 003f 5441 4e2b 5445 4f57 4b52     RESS?.AT+NETWORK
   d9154:	4449 253d 0d69 000a 5441 4e2b 5445 4f57     ID=%i...AT+NETWO
   d9164:	4b52 4449 0d3f 000a 6552 6c70 2079 5441     RKID?...Reply AT
   d9174:	4e2b 5445 4f57 4b52 4449 203f 7325 000a     +NETWORKID? %s..
   d9184:	5441 4e2b 5445 4f57 4b52 4449 003f 5441     AT+NETWORKID?.AT
   d9194:	432b 4652 504f 253d 0d69 000a 5441 432b     +CRFOP=%i...AT+C
   d91a4:	4652 504f 4100 2b54 5243 4f46 3f50 0a0d     RFOP.AT+CRFOP?..
   d91b4:	5200 7065 796c 4120 2b54 5243 4f46 3f50     .Reply AT+CRFOP?
   d91c4:	203a 7325 000a 5441 432b 4652 504f 003f     : %s..AT+CRFOP?.
   d91d4:	7047 2073 7473 7461 7375 6920 2073 6925     Gps status is %i
   d91e4:	000a 5024 544d 334b 3431 302c 312c 302c     ..$PMTK314,0,1,0
   d91f4:	312c 302c 302c 302c 302c 302c 302c 302c     ,1,0,0,0,0,0,0,0
   d9204:	302c 302c 302c 302c 302c 302c 302c 302c     ,0,0,0,0,0,0,0,0
   d9214:	322a 0038 5024 544d 324b 3032 312c 3030     *28.$PMTK220,100
   d9224:	2a30 4631 2400 4750 4d43 2c44 3333 312c     0*1F.$PGCMD,33,1
   d9234:	362a 0043                                   *6C.

000d9238 <_ZTVN8particle13__SPISettingsE>:
	...
   d9240:	52f9 000d 939a 000d 939d 000d 93a0 000d     .R..............
   d9250:	93a3 000d 93a6 000d 93a1 000d 9309 000d     ................

000d9260 <_ZTV12Adafruit_GPS>:
	...
   d9268:	5351 000d 5371 000d 5387 000d 73bd 000d     QS..qS...S...s..
   d9278:	6564 6166 6c75 2074 4d00 4253 4c00 4253     default .MSB.LSB
   d9288:	3c00 5053 5349 7465 6974 676e 2073 6564     .<SPISettings de
   d9298:	6166 6c75 3e74 3c00 5053 5349 7465 6974     fault>.<SPISetti
   d92a8:	676e 2073 7325 6c25 2075 7325 4d20 444f     ngs %s%lu %s MOD
   d92b8:	2545 3e64 4700 4147 4700 4c4c 4700 4153     E%d>.GGA.GLL.GSA
   d92c8:	5200 434d 4400 5442 4800 4d44 4800 5444     .RMC.DBT.HDM.HDT
   d92d8:	4d00 4144 4d00 5754 4d00 5657 5200 424d     .MDA.MTW.MWV.RMB
   d92e8:	5400 504f 5400 5458 5600 5748 5600 574c     .TOP.TXT.VHW.VLW
   d92f8:	5600 5750 5600 5257 5700 5643 5800 4554     .VPW.VWR.WCV.XTE
   d9308:	5a00 5a5a 4100 4250 4400 5450 4700 5653     .ZZZ.APB.DPT.GSV
   d9318:	4800 4744 4d00 4457 5200 544f 5200 4d50     .HDG.MWD.ROT.RPM
   d9328:	5200 4153 5600 5244 5600 4754 5a00 4144     .RSA.VDR.VTG.ZDA
   d9338:	2400 4d50 4b54 3831 2c35 2a30 3232 2400     .$PMTK185,0*22.$
   d9348:	4d50 4b54 3030 2c31 3831 2c35 2a33 4333     PMTK001,185,3*3C
   d9358:	2400 4d50 4b54 3831 2c35 2a31 3332 2400     .$PMTK185,1*23.$
   d9368:	4d50 4b54 3831 2a33 3833 2400 4d50 4b54     PMTK183*38.$PMTK
   d9378:	4f4c 0047 5024 544d 314b 3136 302c 322a     LOG.$PMTK161,0*2
   d9388:	0038 5024 544d 304b 3031 302c 3230 322a     8.$PMTK010,002*2
   d9398:	0044 4949 5700 0049 5047 5000 0047 4e47     D.II.WI.GP.PG.GN
   d93a8:	0000 0000                                   ....

000d93ac <_ZTVN5spark12NetworkClassE>:
	...
   d93b4:	6363 000d 636d 000d 6377 000d 6381 000d     cc..mc..wc...c..
   d93c4:	638b 000d 6397 000d 63a3 000d 63af 000d     .c...c...c...c..
   d93d4:	63b7 000d 63c1 000d 63cb 000d               .c...c...c..

000d93e0 <_ZTVN5spark9WiFiClassE>:
	...
   d93e8:	650b 000d 6501 000d 64f7 000d 64ad 000d     .e...e...d...d..
   d93f8:	64eb 000d 64df 000d 64d3 000d 64cb 000d     .d...d...d...d..
   d9408:	64c1 000d 64b7 000d 63cb 000d               .d...d...c..

000d9414 <_ZTVN5spark9MeshClassE>:
	...
   d941c:	6587 000d 657d 000d 6573 000d 6569 000d     .e..}e..se..ie..
   d942c:	655d 000d 6551 000d 6545 000d 653d 000d     ]e..Qe..Ee..=e..
   d943c:	6533 000d 6529 000d 63cb 000d               3e..)e...c..

000d9448 <_ZN12_GLOBAL__N_1L14clock_divisorsE>:
   d9448:	0800 1810 2820 3830                         .... (08

000d9450 <_ZTV7TwoWire>:
	...
   d9458:	680b 000d 6855 000d 682d 000d 680d 000d     .h..Uh..-h...h..
   d9468:	6835 000d 683d 000d 6845 000d 684d 000d     5h..=h..Eh..Mh..

000d9478 <_ZTV11USARTSerial>:
	...
   d9480:	68db 000d 692b 000d 6939 000d 73bd 000d     .h..+i..9i...s..
   d9490:	68ef 000d 6911 000d 68fd 000d 6925 000d     .h...i...h..%i..
   d94a0:	68dd 000d 68e1 000d                         .h...h..

000d94a8 <_ZTV9USBSerial>:
	...
   d94b0:	69fb 000d 6a4b 000d 6a59 000d 73bd 000d     .i..Kj..Yj...s..
   d94c0:	6a37 000d 69fd 000d 6a13 000d 6a45 000d     7j...i...j..Ej..
   d94d0:	6a29 000d 69f7 000d                         )j...i..

000d94d8 <_ZTV9IPAddress>:
	...
   d94e0:	6b19 000d 6b09 000d 6b0b 000d               .k...k...k..

000d94ec <_ZTVSt15_Sp_counted_ptrIPN8particle6detail10FutureImplIbNS1_13FutureContextEEELN9__gnu_cxx12_Lock_policyE0EE>:
	...
   d94f4:	6bed 000d 6bf3 000d 6c37 000d 6c01 000d     .k...k..7l...l..
   d9504:	6bef 000d 2b25 3330 3a64 3025 7532 2500     .k..%+03d:%02u.%
   d9514:	2d59 6d25 252d 5464 4825 253a 3a4d 5325     Y-%m-%dT%H:%M:%S
   d9524:	7a25 6100 6373 6974 656d 6200 7561 0064     %z.asctime.baud.
   d9534:	6553 6972 6c61 5300 7265 6169 316c 7400     Serial.Serial1.t
   d9544:	7079 0065 6170 6172 006d 6d63 0064 6469     ype.param.cmd.id
   d9554:	6800 646e 7300 7274 006d 6966 746c 6c00     .hnd.strm.filt.l
   d9564:	6c76 6100 6464 6148 646e 656c 0072 6572     vl.addHandler.re
   d9574:	6f6d 6576 6148 646e 656c 0072 6e65 6d75     moveHandler.enum
   d9584:	6148 646e 656c 7372 4a00 4f53 534e 7274     Handlers.JSONStr
   d9594:	6165 4c6d 676f 6148 646e 656c 0072 7061     eamLogHandler.ap
   d95a4:	0070 3025 3031 2075 5d00 0020 6425 2c00     p.%010u .] .%d.,
   d95b4:	0020 2928 203a 2000 005b 6f63 6564 3d20      .(): . [.code =
   d95c4:	0020 6564 6174 6c69 2073 203d 6600 6c00      .details = .f.l
   d95d4:	006e 6e66 6300 646f 0065 6564 6174 6c69     n.fn.code.detail
   d95e4:	6e00 6e6f 0065 7274 6361 0065 6e69 6f66     .none.trace.info
   d95f4:	7700 7261 006e 7265 6f72 0072 6170 696e     .warn.error.pani
   d9604:	0063 6c61 006c 6977 6972 676e 5300 7379     c.all.wiring.Sys
   d9614:	6574 206d 6c73 6565 2070 6f63 666e 6769     tem sleep config
   d9624:	7275 7461 6f69 206e 7369 6920 766e 6c61     uration is inval
   d9634:	6469 002e                                   id..

000d9638 <_ZTVN5spark13EthernetClassE>:
	...
   d9640:	7853 000d 7849 000d 783f 000d 7835 000d     Sx..Ix..?x..5x..
   d9650:	7829 000d 781d 000d 7811 000d 7809 000d     )x...x...x...x..
   d9660:	77ff 000d 77f5 000d 63cb 000d               .w...w...c..

000d966c <_ZSt7nothrow>:
   d966c:	0000 0000 6f6c 0067 0000 0000               ....log.....

000d9678 <__sf_fake_stdin>:
	...

000d9698 <__sf_fake_stdout>:
	...

000d96b8 <__sf_fake_stderr>:
	...

000d96d8 <link_const_variable_data_end>:
   d96d8:	000d5269 	.word	0x000d5269
   d96dc:	000d58a1 	.word	0x000d58a1
   d96e0:	000d58a5 	.word	0x000d58a5
   d96e4:	000d58a9 	.word	0x000d58a9
   d96e8:	000d5dcf 	.word	0x000d5dcf
   d96ec:	000d6499 	.word	0x000d6499
   d96f0:	000d6515 	.word	0x000d6515
   d96f4:	000d6655 	.word	0x000d6655
   d96f8:	000d7315 	.word	0x000d7315
   d96fc:	000d7339 	.word	0x000d7339
   d9700:	000d734d 	.word	0x000d734d
   d9704:	000d7509 	.word	0x000d7509
   d9708:	000d77c1 	.word	0x000d77c1
   d970c:	000d785d 	.word	0x000d785d
   d9710:	000d7a25 	.word	0x000d7a25
   d9714:	000d7aa9 	.word	0x000d7aa9
   d9718:	000d7b6d 	.word	0x000d7b6d
   d971c:	000d7c31 	.word	0x000d7c31
